(lp1
(lp2
I6
aI6
aI6
aI10
aI4
aI4
aI6
aa(lp3
I4
aI8
aI6
aI8
aI6
aI8
aI4
aI6
aa(lp4
I12
aI6
aI10
aI10
aI4
aI10
aI8
aa(lp5
I4
aI4
aI6
aI4
aI8
aI4
aI10
aI6
aI6
aI4
aa(lp6
I8
aI6
aI8
aI6
aa(lp7
I10
aI10
aI4
aI8
aI10
aI6
aI4
aI4
aI4
aI8
aa(lp8
I14
aI4
aI8
aI4
aI4
aI4
aI4
aa(lp9
I14
aI4
aI6
aI4
aI6
aI4
aI8
aI4
aI10
aI4
aa(lp10
I6
aI4
aI4
aa(lp11
I22
aI10
aI16
aI10
aI4
aI4
aa(lp12
I6
aI4
aI14
aI4
aI4
aa.