(lp1
(lp2
a(lp3
a(lp4
a(lp5
a(lp6
a(lp7
a(lp8
a(lp9
a(lp10
a(lp11
a(lp12
a(lp13
a(lp14
a(lp15
a(lp16
a(lp17
a(lp18
a(lp19
a(lp20
a(lp21
a(lp22
a(lp23
a(lp24
a(lp25
a(lp26
a(lp27
a(lp28
a(lp29
a(lp30
a(lp31
a(lp32
a(lp33
a(lp34
a(lp35
a(lp36
a(lp37
a(lp38
a(lp39
a(lp40
a(lp41
a(lp42
a(lp43
a(lp44
a(lp45
a(lp46
a(lp47
a(lp48
a(lp49
a(lp50
a(lp51
a(lp52
a(lp53
a(lp54
a(lp55
a(lp56
a(lp57
a(lp58
a(lp59
a(lp60
a(lp61
a(lp62
a(lp63
a(lp64
a(lp65
a(lp66
a(lp67
a(lp68
a(lp69
a(lp70
a(lp71
a(lp72
a(lp73
a(lp74
a(lp75
a(lp76
a(lp77
a(lp78
a(lp79
a(lp80
a(lp81
a(lp82
a(lp83
a(lp84
a(lp85
a(lp86
a(lp87
a(lp88
a(lp89
a(lp90
a(lp91
a(lp92
a(lp93
a(lp94
a(lp95
a(lp96
a(lp97
a(lp98
a(lp99
a(lp100
a(lp101
a(lp102
a(lp103
a(lp104
a(lp105
a(lp106
a(lp107
a(lp108
a(lp109
a(lp110
a(lp111
a(lp112
a(lp113
a(lp114
a(lp115
a(lp116
a(lp117
a(lp118
a(lp119
a(lp120
a(lp121
a(lp122
a(lp123
a(lp124
a(lp125
a(lp126
a(lp127
a(lp128
a(lp129
a(lp130
a(lp131
a(lp132
a(lp133
a(lp134
a(lp135
a(lp136
a(lp137
a(lp138
a(lp139
a(lp140
a(lp141
a(lp142
a(lp143
a(lp144
a(lp145
a(lp146
a(lp147
a(lp148
a(lp149
a(lp150
a(lp151
a(lp152
a(lp153
a(lp154
a(lp155
a(lp156
a(lp157
a(lp158
a(lp159
a(lp160
a(lp161
a(lp162
a(lp163
a(lp164
a(lp165
a(lp166
a(lp167
a(lp168
a(lp169
a(lp170
a(lp171
a(lp172
a(lp173
a(lp174
a(lp175
a(lp176
a(lp177
a(lp178
a(lp179
a(lp180
a(lp181
a(lp182
a(lp183
a(lp184
a(lp185
a(lp186
a(lp187
a(lp188
a(lp189
a(lp190
a(lp191
a(lp192
a(lp193
a(lp194
a(lp195
a(lp196
a(lp197
a(lp198
a(lp199
a(lp200
a(lp201
a(lp202
a(lp203
a(lp204
a(lp205
a(lp206
a(lp207
a(lp208
a(lp209
a(lp210
a(lp211
a(lp212
a(lp213
a(lp214
a(lp215
a(lp216
a(lp217
a(lp218
a(lp219
a(lp220
a(lp221
a(lp222
a(lp223
a(lp224
a(lp225
a(lp226
a(lp227
a(lp228
a(lp229
a(lp230
a(lp231
a(lp232
a(lp233
a(lp234
a(lp235
a(lp236
a(lp237
a(lp238
a(lp239
a(lp240
a(lp241
a(lp242
a(lp243
a(lp244
a(lp245
a(lp246
a(lp247
a(lp248
a(lp249
a(lp250
a(lp251
a(lp252
a(lp253
a(lp254
a(lp255
a(lp256
a(lp257
a(lp258
a(lp259
a(lp260
a(lp261
a(lp262
a(lp263
a(lp264
a(lp265
a(lp266
a(lp267
a(lp268
a(lp269
a(lp270
a(lp271
a(lp272
a(lp273
a(lp274
a(lp275
a(lp276
a(lp277
a(lp278
a(lp279
a(lp280
a(lp281
a(lp282
a(lp283
a(lp284
a(lp285
a(lp286
a(lp287
a(lp288
a(lp289
a(lp290
a(lp291
a(lp292
a(lp293
a(lp294
a(lp295
a(lp296
a(lp297
a(lp298
a(lp299
a(lp300
a(lp301
a(lp302
a(lp303
a(lp304
a(lp305
a(lp306
a(lp307
a(lp308
a(lp309
a(lp310
a(lp311
a(lp312
a(lp313
a(lp314
a(lp315
a(lp316
a(lp317
a(lp318
a(lp319
a(lp320
a(lp321
a(lp322
a(lp323
a(lp324
a(lp325
a(lp326
a(lp327
a(lp328
a(lp329
a(lp330
a(lp331
a(lp332
a(lp333
a(lp334
a(lp335
a(lp336
a(lp337
a(lp338
a(lp339
a(lp340
a(lp341
a(lp342
a(lp343
a(lp344
a(lp345
a(lp346
a(lp347
a(lp348
a(lp349
a(lp350
a(lp351
a(lp352
a(lp353
a(lp354
a(lp355
a(lp356
a(lp357
a(lp358
a(lp359
a(lp360
a(lp361
a(lp362
a(lp363
a(lp364
a(lp365
a(lp366
a(lp367
a(lp368
a(lp369
a(lp370
a(lp371
a(lp372
a(lp373
a(lp374
a(lp375
a(lp376
a(lp377
a(lp378
a(lp379
a(lp380
a(lp381
a(lp382
a(lp383
a(lp384
a(lp385
a(lp386
a(lp387
a(lp388
a(lp389
a(lp390
a(lp391
a(lp392
a(lp393
a(lp394
a(lp395
a(lp396
a(lp397
a(lp398
a(lp399
a(lp400
a(lp401
a(lp402
a(lp403
a(lp404
a(lp405
a(lp406
a(lp407
a(lp408
a(lp409
a(lp410
a(lp411
a(lp412
a(lp413
a(lp414
a(lp415
a(lp416
a(lp417
a(lp418
a(lp419
a(lp420
a(lp421
a(lp422
a(lp423
a(lp424
a(lp425
a(lp426
a(lp427
a(lp428
a(lp429
a(lp430
a(lp431
a(lp432
a(lp433
a(lp434
a(lp435
a(lp436
a(lp437
a(lp438
a(lp439
a(lp440
a(lp441
a(lp442
a(lp443
a(lp444
a(lp445
a(lp446
a(lp447
a(lp448
a(lp449
a(lp450
a(lp451
a(lp452
a(lp453
a(lp454
a(lp455
a(lp456
a(lp457
a(lp458
a(lp459
a(lp460
a(lp461
a(lp462
a(lp463
a(lp464
a(lp465
a(lp466
a(lp467
a(lp468
a(lp469
a(lp470
a(lp471
a(lp472
a(lp473
a(lp474
a(lp475
a(lp476
a(lp477
a(lp478
a(lp479
a(lp480
a(lp481
a(lp482
a(lp483
a(lp484
a(lp485
a(lp486
a(lp487
a(lp488
a(lp489
a(lp490
a(lp491
a(lp492
a(lp493
a(lp494
a(lp495
a(lp496
a(lp497
a(lp498
a(lp499
a(lp500
a(lp501
a(lp502
a(lp503
a(lp504
a(lp505
a(lp506
a(lp507
a(lp508
a(lp509
a(lp510
a(lp511
a(lp512
a(lp513
a(lp514
a(lp515
a(lp516
a(lp517
a(lp518
a(lp519
a(lp520
a(lp521
a(lp522
a(lp523
a(lp524
a(lp525
a(lp526
a(lp527
a(lp528
a(lp529
a(lp530
a(lp531
a(lp532
a(lp533
a(lp534
a(lp535
a(lp536
a(lp537
a(lp538
a(lp539
a(lp540
a(lp541
a(lp542
a(lp543
a(lp544
a(lp545
a(lp546
a(lp547
a(lp548
a(lp549
a(lp550
a(lp551
a(lp552
a(lp553
a(lp554
a(lp555
a(lp556
a(lp557
a(lp558
a(lp559
a(lp560
a(lp561
a(lp562
a(lp563
a(lp564
a(lp565
a(lp566
a(lp567
a(lp568
a(lp569
a(lp570
a(lp571
a(lp572
a(lp573
a(lp574
a(lp575
a(lp576
a(lp577
a(lp578
a(lp579
a(lp580
a(lp581
a(lp582
a(lp583
a(lp584
a(lp585
a(lp586
a(lp587
a(lp588
a(lp589
a(lp590
a(lp591
a(lp592
a(lp593
a(lp594
a(lp595
a(lp596
a(lp597
a(lp598
a(lp599
a(lp600
a(lp601
a(lp602
a(lp603
a(lp604
a(lp605
a(lp606
a(lp607
a(lp608
a(lp609
a(lp610
a(lp611
a(lp612
a(lp613
a(lp614
a(lp615
a(lp616
a(lp617
a(lp618
a(lp619
a(lp620
a(lp621
a(lp622
a(lp623
a(lp624
a(lp625
a(lp626
a(lp627
a(lp628
a(lp629
a(lp630
a(lp631
a(lp632
a(lp633
a(lp634
a(lp635
a(lp636
a(lp637
a(lp638
a(lp639
a(lp640
a(lp641
a(lp642
a(lp643
a(lp644
a(lp645
a(lp646
a(lp647
a(lp648
a(lp649
a(lp650
a(lp651
a(lp652
a(lp653
a(lp654
a(lp655
a(lp656
a(lp657
a(lp658
a(lp659
a(lp660
a(lp661
a(lp662
a(lp663
a(lp664
a(lp665
a(lp666
a(lp667
a(lp668
a(lp669
a(lp670
a(lp671
a(lp672
a(lp673
a(lp674
a(lp675
a(lp676
a(lp677
a(lp678
a(lp679
a(lp680
a(lp681
a(lp682
a(lp683
a(lp684
a(lp685
a(lp686
a(lp687
a(lp688
a(lp689
a(lp690
a(lp691
a(lp692
a(lp693
a(lp694
a(lp695
a(lp696
a(lp697
a(lp698
a(lp699
a(lp700
a(lp701
a(lp702
a(lp703
a(lp704
a(lp705
a(lp706
a(lp707
a(lp708
a(lp709
a(lp710
a(lp711
a(lp712
a(lp713
a(lp714
a(lp715
a(lp716
a(lp717
a(lp718
a(lp719
a(lp720
a(lp721
a(lp722
a(lp723
a(lp724
a(lp725
a(lp726
a(lp727
a(lp728
a(lp729
a(lp730
a(lp731
a(lp732
a(lp733
a(lp734
a(lp735
a(lp736
a(lp737
a(lp738
a(lp739
a(lp740
a(lp741
a(lp742
a(lp743
a(lp744
a(lp745
a(lp746
a(lp747
a(lp748
a(lp749
a(lp750
a(lp751
a(lp752
a(lp753
a(lp754
a(lp755
a(lp756
a(lp757
a(lp758
a(lp759
a(lp760
a(lp761
a(lp762
a(lp763
a(lp764
a(lp765
a(lp766
a(lp767
a(lp768
a(lp769
a(lp770
a(lp771
a(lp772
a(lp773
a(lp774
a(lp775
a(lp776
a(lp777
a(lp778
a(lp779
a(lp780
a(lp781
a(lp782
a(lp783
a(lp784
a(lp785
a(lp786
a(lp787
a(lp788
a(lp789
a(lp790
a(lp791
a(lp792
a(lp793
a(lp794
a(lp795
a(lp796
a(lp797
a(lp798
a(lp799
a(lp800
a(lp801
a(lp802
a(lp803
a(lp804
a(lp805
a(lp806
a(lp807
a(lp808
a(lp809
a(lp810
a(lp811
a(lp812
a(lp813
a(lp814
a(lp815
a(lp816
a(lp817
a(lp818
a(lp819
a(lp820
a(lp821
a(lp822
a(lp823
a(lp824
a(lp825
a(lp826
a(lp827
a(lp828
a(lp829
a(lp830
a(lp831
a(lp832
a(lp833
a(lp834
a(lp835
a(lp836
a(lp837
a(lp838
a(lp839
a(lp840
a(lp841
a(lp842
a(lp843
a(lp844
a(lp845
a(lp846
a(lp847
a(lp848
a(lp849
a(lp850
a(lp851
a(lp852
a(lp853
a(lp854
a(lp855
a(lp856
a(lp857
a(lp858
a(lp859
a(lp860
a(lp861
a(lp862
a(lp863
a(lp864
a(lp865
a(lp866
a(lp867
a(lp868
a(lp869
a(lp870
a(lp871
a(lp872
a(lp873
a(lp874
a(lp875
a(lp876
a(lp877
a(lp878
a(lp879
a(lp880
a(lp881
a(lp882
a(lp883
a(lp884
a(lp885
a(lp886
a(lp887
a(lp888
a(lp889
a(lp890
a(lp891
a(lp892
a(lp893
a(lp894
a(lp895
a(lp896
a(lp897
a(lp898
a(lp899
a(lp900
a(lp901
a(lp902
a(lp903
a(lp904
a(lp905
a(lp906
a(lp907
a(lp908
a(lp909
a(lp910
a(lp911
a(lp912
a(lp913
a(lp914
a(lp915
a(lp916
a(lp917
a(lp918
a(lp919
a(lp920
a(lp921
a(lp922
a(lp923
a(lp924
a(lp925
a(lp926
a(lp927
a(lp928
a(lp929
a(lp930
a(lp931
a(lp932
a(lp933
a(lp934
a(lp935
a(lp936
a(lp937
a(lp938
a(lp939
a(lp940
a(lp941
a(lp942
a(lp943
a(lp944
a(lp945
a(lp946
a(lp947
a(lp948
a(lp949
a(lp950
a(lp951
a(lp952
a(lp953
a(lp954
a(lp955
a(lp956
a(lp957
a(lp958
a(lp959
a(lp960
a(lp961
a(lp962
a(lp963
a(lp964
a(lp965
a(lp966
a(lp967
a(lp968
a(lp969
a(lp970
a(lp971
a(lp972
a(lp973
a(lp974
a(lp975
a(lp976
a(lp977
a(lp978
a(lp979
a(lp980
a(lp981
a(lp982
a(lp983
a(lp984
a(lp985
a(lp986
a(lp987
a(lp988
a(lp989
a(lp990
a(lp991
a(lp992
a(lp993
a(lp994
a(lp995
a(lp996
I4
aa(lp997
I4
aa(lp998
I4
aa(lp999
I4
aa(lp1000
I4
aa(lp1001
I4
aa(lp1002
I4
aa(lp1003
I4
aa(lp1004
I4
aa(lp1005
I4
aa(lp1006
I4
aa(lp1007
I4
aa(lp1008
I4
aa(lp1009
I4
aa(lp1010
I4
aa(lp1011
I4
aa(lp1012
I4
aa(lp1013
I4
aa(lp1014
I4
aa(lp1015
I4
aa(lp1016
I4
aa(lp1017
I4
aa(lp1018
I4
aa(lp1019
I4
aa(lp1020
I4
aa(lp1021
I4
aa(lp1022
I4
aa(lp1023
I4
aa(lp1024
I4
aa(lp1025
I4
aa(lp1026
I4
aa(lp1027
I4
aa(lp1028
I4
aa(lp1029
I4
aa(lp1030
I4
aa(lp1031
I4
aa(lp1032
I4
aa(lp1033
I4
aa(lp1034
I4
aa(lp1035
I4
aa(lp1036
I4
aa(lp1037
I4
aa(lp1038
I4
aa(lp1039
I4
aa(lp1040
I4
aa(lp1041
I4
aa(lp1042
I4
aa(lp1043
I4
aa(lp1044
I4
aa(lp1045
I4
aa(lp1046
I4
aa(lp1047
I4
aa(lp1048
I4
aa(lp1049
I4
aa(lp1050
I4
aa(lp1051
I4
aa(lp1052
I4
aa(lp1053
I4
aa(lp1054
I4
aa(lp1055
I4
aa(lp1056
I4
aa(lp1057
I4
aa(lp1058
I4
aI4
aa(lp1059
I4
aI4
aa(lp1060
I4
aI4
aa(lp1061
I4
aI4
aa(lp1062
I4
aI4
aa(lp1063
I4
aI4
aa(lp1064
I4
aI4
aa(lp1065
I4
aI4
aa(lp1066
I4
aI4
aa(lp1067
I4
aI4
aa(lp1068
I4
aI4
aa(lp1069
I4
aI4
aa(lp1070
I4
aI4
aa(lp1071
I4
aI4
aa(lp1072
I4
aI4
aa(lp1073
I4
aI4
aa(lp1074
I4
aI4
aa(lp1075
I4
aI4
aa(lp1076
I4
aI4
aa(lp1077
I4
aI4
aa(lp1078
I4
aI4
aa(lp1079
I4
aI4
aa(lp1080
I4
aI4
aa(lp1081
I4
aI4
aa(lp1082
I4
aI4
aa(lp1083
I4
aI4
aa(lp1084
I4
aI4
aa(lp1085
I4
aI4
aa(lp1086
I4
aI4
aa(lp1087
I4
aI4
aa(lp1088
I4
aI4
aa(lp1089
I4
aI4
aa(lp1090
I4
aI4
aa(lp1091
I4
aI4
aa(lp1092
I4
aI4
aa(lp1093
I4
aI4
aa(lp1094
I4
aI4
aa(lp1095
I4
aI4
aa(lp1096
I4
aI4
aa(lp1097
I4
aI4
aa(lp1098
I4
aI4
aa(lp1099
I4
aI4
aa(lp1100
I4
aI4
aa(lp1101
I4
aI4
aa(lp1102
I4
aI4
aa(lp1103
I4
aI4
aa(lp1104
I4
aI4
aa(lp1105
I4
aI4
aa(lp1106
I4
aI4
aa(lp1107
I4
aI4
aa(lp1108
I4
aI4
aa(lp1109
I4
aI4
aa(lp1110
I4
aI4
aa(lp1111
I4
aI4
aa(lp1112
I4
aI4
aa(lp1113
I4
aI4
aa(lp1114
I4
aI4
aa(lp1115
I4
aI4
aa(lp1116
I4
aI4
aa(lp1117
I4
aI4
aa(lp1118
I4
aI4
aa(lp1119
I4
aI4
aa(lp1120
I4
aI4
aa(lp1121
I4
aI4
aa(lp1122
I4
aI4
aa(lp1123
I4
aI4
aa(lp1124
I4
aI4
aa(lp1125
I4
aI4
aa(lp1126
I4
aI4
aa(lp1127
I4
aI4
aa(lp1128
I4
aI4
aa(lp1129
I4
aI4
aa(lp1130
I4
aI4
aa(lp1131
I4
aI4
aa(lp1132
I4
aI4
aa(lp1133
I4
aI4
aa(lp1134
I4
aI4
aa(lp1135
I4
aI4
aa(lp1136
I4
aI4
aa(lp1137
I4
aI4
aa(lp1138
I4
aI4
aa(lp1139
I4
aI4
aa(lp1140
I4
aI4
aa(lp1141
I4
aI4
aa(lp1142
I4
aI4
aa(lp1143
I4
aI4
aa(lp1144
I4
aI4
aa(lp1145
I4
aI4
aa(lp1146
I4
aI4
aa(lp1147
I4
aI4
aa(lp1148
I4
aI4
aa(lp1149
I4
aI4
aa(lp1150
I4
aI4
aa(lp1151
I4
aI4
aa(lp1152
I4
aI4
aa(lp1153
I4
aI4
aa(lp1154
I4
aI4
aa(lp1155
I4
aI4
aa(lp1156
I4
aI4
aa(lp1157
I4
aI4
aa(lp1158
I4
aI4
aa(lp1159
I4
aI4
aa(lp1160
I4
aI4
aa(lp1161
I4
aI4
aa(lp1162
I4
aI4
aa(lp1163
I4
aI4
aa(lp1164
I4
aI4
aa(lp1165
I4
aI4
aa(lp1166
I4
aI4
aa(lp1167
I4
aI4
aa(lp1168
I4
aI4
aa(lp1169
I4
aI4
aa(lp1170
I4
aI4
aa(lp1171
I4
aI4
aa(lp1172
I4
aI4
aa(lp1173
I4
aI4
aa(lp1174
I4
aI4
aa(lp1175
I4
aI4
aa(lp1176
I4
aI4
aa(lp1177
I4
aI4
aa(lp1178
I4
aI4
aa(lp1179
I4
aI4
aa(lp1180
I4
aI4
aa(lp1181
I4
aI4
aa(lp1182
I4
aI4
aa(lp1183
I4
aI4
aa(lp1184
I4
aI4
aa(lp1185
I4
aI4
aa(lp1186
I4
aI4
aa(lp1187
I4
aI4
aa(lp1188
I4
aI4
aa(lp1189
I4
aI4
aa(lp1190
I4
aI4
aa(lp1191
I4
aI4
aa(lp1192
I4
aI4
aa(lp1193
I4
aI4
aa(lp1194
I4
aI4
aa(lp1195
I4
aI4
aa(lp1196
I4
aI4
aa(lp1197
I4
aI4
aa(lp1198
I4
aI4
aa(lp1199
I4
aI4
aa(lp1200
I4
aI4
aa(lp1201
I4
aI4
aa(lp1202
I4
aI4
aa(lp1203
I4
aI4
aa(lp1204
I4
aI4
aa(lp1205
I4
aI4
aa(lp1206
I4
aI4
aa(lp1207
I4
aI4
aa(lp1208
I4
aI4
aa(lp1209
I4
aI4
aa(lp1210
I4
aI4
aa(lp1211
I4
aI4
aa(lp1212
I4
aI4
aa(lp1213
I4
aI4
aa(lp1214
I4
aI4
aa(lp1215
I4
aI4
aa(lp1216
I4
aI4
aa(lp1217
I4
aI4
aa(lp1218
I4
aI4
aa(lp1219
I4
aI4
aa(lp1220
I4
aI4
aa(lp1221
I4
aI4
aa(lp1222
I4
aI4
aa(lp1223
I4
aI4
aa(lp1224
I4
aI4
aa(lp1225
I4
aI4
aa(lp1226
I4
aI4
aa(lp1227
I4
aI4
aa(lp1228
I4
aI4
aa(lp1229
I4
aI4
aa(lp1230
I4
aI4
aa(lp1231
I4
aI4
aa(lp1232
I4
aI4
aa(lp1233
I4
aI4
aa(lp1234
I4
aI4
aa(lp1235
I4
aI4
aa(lp1236
I4
aI4
aa(lp1237
I4
aI4
aa(lp1238
I4
aI4
aI6
aa(lp1239
I4
aI4
aI6
aa(lp1240
I4
aI4
aI6
aa(lp1241
I4
aI4
aI6
aa(lp1242
I4
aI4
aI6
aa(lp1243
I4
aI4
aI6
aa(lp1244
I4
aI4
aI6
aa(lp1245
I4
aI4
aI6
aa(lp1246
I4
aI4
aI6
aa(lp1247
I4
aI4
aI6
aa(lp1248
I4
aI4
aI6
aa(lp1249
I4
aI4
aI6
aa(lp1250
I4
aI4
aI6
aa(lp1251
I4
aI4
aI6
aa(lp1252
I4
aI4
aI6
aa(lp1253
I4
aI4
aI6
aa(lp1254
I4
aI4
aI6
aa(lp1255
I4
aI4
aI6
aa(lp1256
I4
aI4
aI6
aa(lp1257
I4
aI4
aI6
aa(lp1258
I4
aI4
aI6
aa(lp1259
I4
aI4
aI6
aa(lp1260
I4
aI4
aI6
aa(lp1261
I4
aI4
aI6
aa(lp1262
I4
aI4
aI6
aa(lp1263
I4
aI4
aI6
aa(lp1264
I4
aI4
aI6
aa(lp1265
I4
aI4
aI6
aa(lp1266
I4
aI4
aI6
aa(lp1267
I4
aI4
aI6
aa(lp1268
I4
aI4
aI6
aa(lp1269
I4
aI4
aI6
aa(lp1270
I4
aI4
aI6
aa(lp1271
I4
aI4
aI6
aa(lp1272
I4
aI4
aI6
aa(lp1273
I4
aI4
aI6
aa(lp1274
I4
aI4
aI6
aa(lp1275
I4
aI4
aI6
aa(lp1276
I4
aI4
aI6
aa(lp1277
I4
aI4
aI6
aa(lp1278
I4
aI4
aI6
aa(lp1279
I4
aI4
aI6
aa(lp1280
I4
aI4
aI6
aa(lp1281
I4
aI4
aI6
aa(lp1282
I4
aI4
aI6
aa(lp1283
I4
aI4
aI6
aa(lp1284
I4
aI4
aI6
aa(lp1285
I4
aI4
aI6
aa(lp1286
I4
aI4
aI6
aa(lp1287
I4
aI4
aI6
aa(lp1288
I4
aI4
aI6
aa(lp1289
I4
aI4
aI6
aa(lp1290
I4
aI4
aI6
aa(lp1291
I4
aI4
aI6
aa(lp1292
I4
aI4
aI6
aa(lp1293
I4
aI4
aI6
aa(lp1294
I4
aI4
aI6
aa(lp1295
I4
aI4
aI6
aa(lp1296
I4
aI4
aI6
aa(lp1297
I4
aI4
aI6
aa(lp1298
I4
aI4
aI6
aa(lp1299
I4
aI4
aI6
aa(lp1300
I4
aI4
aI6
aa(lp1301
I4
aI4
aI6
aa(lp1302
I4
aI4
aI6
aa(lp1303
I4
aI4
aI6
aa(lp1304
I4
aI4
aI6
aa(lp1305
I4
aI4
aI6
aa(lp1306
I4
aI4
aI6
aa(lp1307
I4
aI4
aI6
aa(lp1308
I4
aI4
aI6
aa(lp1309
I4
aI4
aI6
aa(lp1310
I4
aI4
aI6
aa(lp1311
I4
aI4
aI6
aa(lp1312
I4
aI4
aI6
aa(lp1313
I4
aI4
aI6
aa(lp1314
I4
aI4
aI6
aa(lp1315
I4
aI4
aI6
aa(lp1316
I4
aI4
aI6
aa(lp1317
I4
aI4
aI6
aa(lp1318
I4
aI4
aI6
aa(lp1319
I4
aI4
aI6
aa(lp1320
I4
aI4
aI6
aa(lp1321
I4
aI4
aI6
aa(lp1322
I4
aI4
aI6
aa(lp1323
I4
aI4
aI6
aa(lp1324
I4
aI4
aI6
aa(lp1325
I4
aI4
aI6
aa(lp1326
I4
aI4
aI6
aa(lp1327
I4
aI4
aI6
aa(lp1328
I4
aI4
aI6
aa(lp1329
I4
aI4
aI6
aa(lp1330
I4
aI4
aI6
aa(lp1331
I4
aI4
aI6
aa(lp1332
I4
aI4
aI6
aa(lp1333
I4
aI4
aI6
aa(lp1334
I4
aI4
aI6
aa(lp1335
I4
aI4
aI6
aa(lp1336
I4
aI4
aI6
aa(lp1337
I4
aI4
aI6
aa(lp1338
I4
aI4
aI6
aa(lp1339
I4
aI4
aI6
aa(lp1340
I4
aI4
aI6
aa(lp1341
I4
aI4
aI6
aa(lp1342
I4
aI4
aI6
aa(lp1343
I4
aI4
aI6
aa(lp1344
I4
aI4
aI6
aa(lp1345
I4
aI4
aI6
aa(lp1346
I4
aI4
aI6
aa(lp1347
I4
aI4
aI6
aa(lp1348
I4
aI4
aI6
aa(lp1349
I4
aI4
aI6
aa(lp1350
I4
aI4
aI6
aa(lp1351
I4
aI4
aI6
aa(lp1352
I4
aI4
aI6
aa(lp1353
I4
aI4
aI6
aa(lp1354
I4
aI4
aI6
aa(lp1355
I4
aI4
aI6
aa(lp1356
I4
aI4
aI6
aa(lp1357
I4
aI4
aI6
aa(lp1358
I4
aI4
aI6
aa(lp1359
I4
aI4
aI6
aa(lp1360
I4
aI4
aI6
aa(lp1361
I4
aI4
aI6
aa(lp1362
I4
aI4
aI6
aa(lp1363
I4
aI4
aI6
aa(lp1364
I4
aI4
aI6
aa(lp1365
I4
aI4
aI6
aa(lp1366
I4
aI4
aI6
aa(lp1367
I4
aI4
aI6
aa(lp1368
I4
aI4
aI6
aa(lp1369
I4
aI4
aI6
aa(lp1370
I4
aI4
aI6
aa(lp1371
I4
aI4
aI6
aa(lp1372
I4
aI4
aI6
aa(lp1373
I4
aI4
aI6
aa(lp1374
I4
aI4
aI6
aa(lp1375
I4
aI4
aI6
aa(lp1376
I4
aI4
aI6
aa(lp1377
I4
aI4
aI6
aa(lp1378
I4
aI4
aI6
aa(lp1379
I4
aI4
aI6
aa(lp1380
I4
aI4
aI6
aa(lp1381
I4
aI4
aI6
aa(lp1382
I4
aI4
aI6
aa(lp1383
I4
aI4
aI6
aa(lp1384
I4
aI4
aI6
aa(lp1385
I4
aI4
aI6
aa(lp1386
I4
aI4
aI6
aa(lp1387
I4
aI4
aI6
aa(lp1388
I4
aI4
aI6
aa(lp1389
I4
aI4
aI6
aa(lp1390
I4
aI4
aI6
aa(lp1391
I4
aI4
aI6
aa(lp1392
I4
aI4
aI6
aa(lp1393
I4
aI4
aI6
aa(lp1394
I4
aI4
aI6
aa(lp1395
I4
aI4
aI6
aa(lp1396
I4
aI4
aI6
aa(lp1397
I4
aI4
aI6
aa(lp1398
I4
aI4
aI6
aa(lp1399
I4
aI4
aI6
aa(lp1400
I4
aI4
aI6
aa(lp1401
I4
aI4
aI6
aa(lp1402
I4
aI4
aI6
aa(lp1403
I4
aI4
aI6
aa(lp1404
I4
aI4
aI6
aa(lp1405
I4
aI4
aI6
aa(lp1406
I4
aI4
aI6
aa(lp1407
I4
aI4
aI6
aa(lp1408
I4
aI4
aI6
aa(lp1409
I4
aI4
aI6
aa(lp1410
I4
aI4
aI6
aa(lp1411
I4
aI4
aI6
aa(lp1412
I4
aI4
aI6
aa(lp1413
I4
aI4
aI6
aa(lp1414
I4
aI4
aI6
aa(lp1415
I4
aI4
aI6
aa(lp1416
I4
aI4
aI6
aa(lp1417
I4
aI4
aI6
aa(lp1418
I4
aI4
aI6
aa(lp1419
I4
aI4
aI6
aa(lp1420
I4
aI4
aI6
aa(lp1421
I4
aI4
aI6
aa(lp1422
I4
aI4
aI6
aa(lp1423
I4
aI4
aI6
aa(lp1424
I4
aI4
aI6
aa(lp1425
I4
aI4
aI6
aa(lp1426
I4
aI4
aI6
aa(lp1427
I4
aI4
aI6
aa(lp1428
I4
aI4
aI6
aa(lp1429
I4
aI4
aI6
aa(lp1430
I4
aI4
aI6
aa(lp1431
I4
aI4
aI6
aa(lp1432
I4
aI4
aI6
aa(lp1433
I4
aI4
aI6
aa(lp1434
I4
aI4
aI6
aa(lp1435
I4
aI4
aI6
aa(lp1436
I4
aI4
aI6
aa(lp1437
I4
aI4
aI6
aa(lp1438
I4
aI4
aI6
aa(lp1439
I4
aI4
aI6
aa(lp1440
I4
aI4
aI6
aa(lp1441
I4
aI4
aI6
aa(lp1442
I4
aI4
aI6
aa(lp1443
I4
aI4
aI6
aa(lp1444
I4
aI4
aI6
aa(lp1445
I4
aI4
aI6
aa(lp1446
I4
aI4
aI6
aa(lp1447
I4
aI4
aI6
aa(lp1448
I4
aI4
aI6
aa(lp1449
I4
aI4
aI6
aa(lp1450
I4
aI4
aI6
aa(lp1451
I4
aI4
aI6
aa(lp1452
I4
aI4
aI6
aa(lp1453
I4
aI4
aI6
aa(lp1454
I4
aI4
aI6
aa(lp1455
I4
aI4
aI6
aa(lp1456
I4
aI4
aI6
aa(lp1457
I4
aI4
aI6
aa(lp1458
I4
aI4
aI6
aa(lp1459
I4
aI4
aI6
aa(lp1460
I4
aI4
aI6
aa(lp1461
I4
aI4
aI6
aa(lp1462
I4
aI4
aI6
aa(lp1463
I4
aI4
aI6
aa(lp1464
I4
aI4
aI6
aa(lp1465
I4
aI4
aI6
aa(lp1466
I4
aI4
aI6
aa(lp1467
I4
aI4
aI6
aa(lp1468
I4
aI4
aI6
aa(lp1469
I4
aI4
aI6
aa(lp1470
I4
aI4
aI6
aa(lp1471
I4
aI4
aI6
aa(lp1472
I4
aI4
aI6
aa(lp1473
I4
aI4
aI6
aa(lp1474
I4
aI4
aI6
aa(lp1475
I4
aI4
aI6
aa(lp1476
I4
aI4
aI6
aa(lp1477
I4
aI4
aI6
aa(lp1478
I4
aI4
aI6
aa(lp1479
I4
aI4
aI6
aa(lp1480
I4
aI4
aI6
aa(lp1481
I4
aI4
aI6
aa(lp1482
I4
aI4
aI6
aa(lp1483
I4
aI4
aI6
aa(lp1484
I4
aI4
aI6
aa(lp1485
I4
aI4
aI6
aa(lp1486
I4
aI4
aI6
aa(lp1487
I4
aI4
aI6
aa(lp1488
I4
aI4
aI6
aa(lp1489
I4
aI4
aI6
aa(lp1490
I4
aI4
aI6
aa(lp1491
I4
aI4
aI6
aa(lp1492
I4
aI4
aI6
aa(lp1493
I4
aI4
aI6
aa(lp1494
I4
aI4
aI6
aa(lp1495
I4
aI4
aI6
aa(lp1496
I4
aI4
aI6
aa(lp1497
I4
aI4
aI6
aa(lp1498
I4
aI4
aI6
aa(lp1499
I4
aI4
aI6
aa(lp1500
I4
aI4
aI6
aa(lp1501
I4
aI4
aI6
aa(lp1502
I4
aI4
aI6
aa(lp1503
I4
aI4
aI6
aa(lp1504
I4
aI4
aI6
aa(lp1505
I4
aI4
aI6
aa(lp1506
I4
aI4
aI6
aa(lp1507
I4
aI4
aI6
aa(lp1508
I4
aI4
aI6
aa(lp1509
I4
aI4
aI6
aa(lp1510
I4
aI4
aI6
aa(lp1511
I4
aI4
aI6
aa(lp1512
I4
aI4
aI6
aa(lp1513
I4
aI4
aI6
aa(lp1514
I4
aI4
aI6
aa(lp1515
I4
aI4
aI6
aa(lp1516
I4
aI4
aI6
aa(lp1517
I4
aI4
aI6
aa(lp1518
I4
aI4
aI6
aa(lp1519
I4
aI4
aI6
aa(lp1520
I4
aI4
aI6
aa(lp1521
I4
aI4
aI6
aa(lp1522
I4
aI4
aI6
aa(lp1523
I4
aI4
aI6
aa(lp1524
I4
aI4
aI6
aa(lp1525
I4
aI4
aI6
aa(lp1526
I4
aI4
aI6
aa(lp1527
I4
aI4
aI6
aa(lp1528
I4
aI4
aI6
aa(lp1529
I6
aI4
aI4
aI6
aa(lp1530
I6
aI4
aI4
aI6
aa(lp1531
I6
aI4
aI4
aI6
aa(lp1532
I6
aI4
aI4
aI6
aa(lp1533
I6
aI4
aI4
aI6
aa(lp1534
I6
aI4
aI4
aI6
aa(lp1535
I6
aI4
aI4
aI6
aa(lp1536
I6
aI4
aI4
aI6
aa(lp1537
I6
aI4
aI4
aI6
aa(lp1538
I6
aI4
aI4
aI6
aa(lp1539
I6
aI4
aI4
aI6
aa(lp1540
I6
aI4
aI4
aI6
aa(lp1541
I6
aI4
aI4
aI6
aa(lp1542
I6
aI4
aI4
aI6
aa(lp1543
I6
aI4
aI4
aI6
aa(lp1544
I6
aI4
aI4
aI6
aa(lp1545
I6
aI4
aI4
aI6
aa(lp1546
I6
aI4
aI4
aI6
aa(lp1547
I6
aI4
aI4
aI6
aa(lp1548
I6
aI4
aI4
aI6
aa(lp1549
I6
aI4
aI4
aI6
aa(lp1550
I6
aI4
aI4
aI6
aa(lp1551
I6
aI4
aI4
aI6
aa(lp1552
I6
aI4
aI4
aI6
aa(lp1553
I6
aI4
aI4
aI6
aa(lp1554
I6
aI4
aI4
aI6
aa(lp1555
I6
aI4
aI4
aI6
aa(lp1556
I6
aI4
aI4
aI6
aa(lp1557
I6
aI4
aI4
aI6
aa(lp1558
I6
aI4
aI4
aI6
aa(lp1559
I6
aI4
aI4
aI6
aa(lp1560
I6
aI4
aI4
aI6
aa(lp1561
I6
aI4
aI4
aI6
aa(lp1562
I6
aI4
aI4
aI6
aa(lp1563
I6
aI4
aI4
aI6
aa(lp1564
I6
aI4
aI4
aI6
aa(lp1565
I6
aI4
aI4
aI6
aa(lp1566
I6
aI4
aI4
aI6
aa(lp1567
I6
aI4
aI4
aI6
aa(lp1568
I6
aI4
aI4
aI6
aa(lp1569
I6
aI4
aI4
aI6
aa(lp1570
I6
aI4
aI4
aI6
aa(lp1571
I6
aI4
aI4
aI6
aa(lp1572
I6
aI4
aI4
aI6
aa(lp1573
I6
aI4
aI4
aI6
aa(lp1574
I6
aI4
aI4
aI6
aa(lp1575
I6
aI4
aI4
aI6
aa(lp1576
I6
aI4
aI4
aI6
aa(lp1577
I6
aI4
aI4
aI6
aa(lp1578
I6
aI4
aI4
aI6
aa(lp1579
I6
aI4
aI4
aI6
aa(lp1580
I6
aI4
aI4
aI6
aa(lp1581
I6
aI4
aI4
aI6
aa(lp1582
I6
aI4
aI4
aI6
aa(lp1583
I6
aI4
aI4
aI6
aa(lp1584
I6
aI4
aI4
aI6
aa(lp1585
I6
aI4
aI4
aI6
aa(lp1586
I6
aI4
aI4
aI6
aa(lp1587
I6
aI4
aI4
aI6
aa(lp1588
I6
aI4
aI4
aI6
aa(lp1589
I6
aI4
aI4
aI6
aa(lp1590
I6
aI4
aI4
aI6
aa(lp1591
I6
aI4
aI4
aI6
aa(lp1592
I6
aI4
aI4
aI6
aa(lp1593
I6
aI4
aI4
aI6
aa(lp1594
I6
aI4
aI4
aI6
aa(lp1595
I6
aI4
aI4
aI6
aa(lp1596
I6
aI4
aI4
aI6
aa(lp1597
I6
aI4
aI4
aI6
aa(lp1598
I6
aI4
aI4
aI6
aa(lp1599
I6
aI4
aI4
aI6
aa(lp1600
I6
aI4
aI4
aI6
aa(lp1601
I6
aI4
aI4
aI6
aa(lp1602
I6
aI4
aI4
aI6
aa(lp1603
I6
aI4
aI4
aI6
aa(lp1604
I6
aI4
aI4
aI6
aa(lp1605
I6
aI4
aI4
aI6
aa(lp1606
I6
aI4
aI4
aI6
aa(lp1607
I6
aI4
aI4
aI6
aa(lp1608
I6
aI4
aI4
aI6
aa(lp1609
I6
aI4
aI4
aI6
aa(lp1610
I6
aI4
aI4
aI6
aa(lp1611
I6
aI4
aI4
aI6
aa(lp1612
I6
aI4
aI4
aI6
aa(lp1613
I6
aI4
aI4
aI6
aa(lp1614
I6
aI4
aI4
aI6
aa(lp1615
I6
aI4
aI4
aI6
aa(lp1616
I6
aI4
aI4
aI6
aa(lp1617
I6
aI4
aI4
aI6
aa(lp1618
I6
aI4
aI4
aI6
aa(lp1619
I6
aI4
aI4
aI6
aa(lp1620
I6
aI4
aI4
aI6
aa(lp1621
I6
aI4
aI4
aI6
aa(lp1622
I6
aI4
aI4
aI6
aa(lp1623
I6
aI4
aI4
aI6
aa(lp1624
I6
aI4
aI4
aI6
aa(lp1625
I6
aI4
aI4
aI6
aa(lp1626
I6
aI4
aI4
aI6
aa(lp1627
I6
aI4
aI4
aI6
aa(lp1628
I6
aI4
aI4
aI6
aa(lp1629
I6
aI4
aI4
aI6
aa(lp1630
I6
aI4
aI4
aI6
aa(lp1631
I6
aI4
aI4
aI6
aa(lp1632
I6
aI4
aI4
aI6
aa(lp1633
I6
aI4
aI4
aI6
aa(lp1634
I6
aI4
aI4
aI6
aa(lp1635
I6
aI4
aI4
aI6
aa(lp1636
I6
aI4
aI4
aI6
aa(lp1637
I6
aI4
aI4
aI6
aa(lp1638
I6
aI4
aI4
aI6
aa(lp1639
I6
aI4
aI4
aI6
aa(lp1640
I6
aI4
aI4
aI6
aa(lp1641
I6
aI4
aI4
aI6
aa(lp1642
I6
aI4
aI4
aI6
aa(lp1643
I6
aI4
aI4
aI6
aa(lp1644
I6
aI4
aI4
aI6
aa(lp1645
I6
aI4
aI4
aI6
aa(lp1646
I6
aI4
aI4
aI6
aa(lp1647
I6
aI4
aI4
aI6
aa(lp1648
I6
aI4
aI4
aI6
aa(lp1649
I6
aI4
aI4
aI6
aa(lp1650
I6
aI4
aI4
aI6
aa(lp1651
I6
aI4
aI4
aI6
aa(lp1652
I6
aI4
aI4
aI6
aa(lp1653
I6
aI4
aI4
aI6
aa(lp1654
I6
aI4
aI4
aI6
aa(lp1655
I6
aI4
aI4
aI6
aa(lp1656
I6
aI4
aI4
aI6
aa(lp1657
I6
aI4
aI4
aI6
aa(lp1658
I6
aI4
aI4
aI6
aa(lp1659
I6
aI4
aI4
aI6
aa(lp1660
I6
aI4
aI4
aI6
aa(lp1661
I6
aI4
aI4
aI6
aa(lp1662
I6
aI4
aI4
aI6
aa(lp1663
I6
aI4
aI4
aI6
aa(lp1664
I6
aI4
aI4
aI6
aa(lp1665
I6
aI4
aI4
aI6
aa(lp1666
I6
aI4
aI4
aI6
aa(lp1667
I6
aI4
aI4
aI6
aa(lp1668
I6
aI4
aI4
aI6
aa(lp1669
I6
aI4
aI4
aI6
aa(lp1670
I6
aI4
aI4
aI6
aa(lp1671
I6
aI4
aI4
aI6
aa(lp1672
I6
aI4
aI4
aI6
aa(lp1673
I6
aI4
aI4
aI6
aa(lp1674
I6
aI4
aI4
aI6
aa(lp1675
I6
aI4
aI4
aI6
aa(lp1676
I6
aI4
aI4
aI6
aa(lp1677
I6
aI4
aI4
aI6
aa(lp1678
I6
aI4
aI4
aI6
aa(lp1679
I6
aI4
aI4
aI6
aa(lp1680
I6
aI4
aI4
aI6
aa(lp1681
I6
aI4
aI4
aI6
aa(lp1682
I6
aI4
aI4
aI6
aa(lp1683
I6
aI4
aI4
aI6
aa(lp1684
I6
aI4
aI4
aI6
aa(lp1685
I6
aI4
aI4
aI6
aa(lp1686
I6
aI4
aI4
aI6
aa(lp1687
I6
aI4
aI4
aI6
aa(lp1688
I6
aI4
aI4
aI6
aa(lp1689
I6
aI4
aI4
aI6
aa(lp1690
I6
aI4
aI4
aI6
aa(lp1691
I6
aI4
aI4
aI6
aa(lp1692
I6
aI4
aI4
aI6
aa(lp1693
I6
aI4
aI4
aI6
aa(lp1694
I6
aI4
aI4
aI6
aa(lp1695
I6
aI4
aI4
aI6
aa(lp1696
I6
aI4
aI4
aI6
aa(lp1697
I6
aI4
aI4
aI6
aa(lp1698
I6
aI4
aI4
aI6
aa(lp1699
I6
aI4
aI4
aI6
aa(lp1700
I6
aI4
aI4
aI6
aa(lp1701
I6
aI4
aI4
aI6
aa(lp1702
I6
aI4
aI4
aI6
aa(lp1703
I6
aI4
aI4
aI6
aa(lp1704
I6
aI4
aI4
aI6
aa(lp1705
I6
aI4
aI4
aI6
aa(lp1706
I6
aI4
aI4
aI6
aa(lp1707
I6
aI4
aI4
aI6
aa(lp1708
I6
aI4
aI4
aI6
aa(lp1709
I6
aI4
aI4
aI6
aa(lp1710
I6
aI4
aI4
aI6
aa(lp1711
I6
aI4
aI4
aI6
aa(lp1712
I6
aI4
aI4
aI6
aa(lp1713
I6
aI4
aI4
aI6
aa(lp1714
I6
aI4
aI4
aI6
aa(lp1715
I6
aI4
aI4
aI6
aa(lp1716
I6
aI4
aI4
aI6
aa(lp1717
I6
aI4
aI4
aI6
aa(lp1718
I6
aI4
aI4
aI6
aa(lp1719
I6
aI4
aI4
aI6
aa(lp1720
I6
aI4
aI4
aI6
aa(lp1721
I6
aI4
aI4
aI6
aa(lp1722
I6
aI4
aI4
aI6
aa(lp1723
I6
aI4
aI4
aI6
aa(lp1724
I6
aI4
aI4
aI6
aa(lp1725
I6
aI4
aI4
aI6
aa(lp1726
I6
aI4
aI4
aI6
aa(lp1727
I6
aI4
aI4
aI6
aa(lp1728
I6
aI4
aI4
aI6
aa(lp1729
I6
aI4
aI4
aI6
aa(lp1730
I6
aI4
aI4
aI6
aa(lp1731
I6
aI4
aI4
aI6
aa(lp1732
I6
aI4
aI4
aI6
aa(lp1733
I6
aI4
aI4
aI6
aa(lp1734
I6
aI4
aI4
aI6
aa(lp1735
I6
aI4
aI4
aI6
aa(lp1736
I6
aI4
aI4
aI6
aa(lp1737
I6
aI4
aI4
aI6
aa(lp1738
I6
aI4
aI4
aI6
aa(lp1739
I6
aI4
aI4
aI6
aa(lp1740
I6
aI4
aI4
aI6
aa(lp1741
I6
aI4
aI4
aI6
aa(lp1742
I6
aI4
aI4
aI6
aa(lp1743
I6
aI4
aI4
aI6
aa(lp1744
I6
aI4
aI4
aI6
aa(lp1745
I6
aI4
aI4
aI6
aa(lp1746
I6
aI4
aI4
aI6
aa(lp1747
I6
aI4
aI4
aI6
aa(lp1748
I6
aI4
aI4
aI6
aa(lp1749
I6
aI4
aI4
aI6
aa(lp1750
I6
aI4
aI4
aI6
aa(lp1751
I6
aI4
aI4
aI6
aa(lp1752
I6
aI4
aI4
aI6
aa(lp1753
I6
aI4
aI4
aI6
aa(lp1754
I6
aI4
aI4
aI6
aa(lp1755
I6
aI4
aI4
aI6
aa(lp1756
I6
aI4
aI4
aI6
aa(lp1757
I6
aI4
aI4
aI6
aa(lp1758
I6
aI4
aI4
aI6
aa(lp1759
I6
aI4
aI4
aI6
aa(lp1760
I6
aI4
aI4
aI6
aa(lp1761
I6
aI4
aI4
aI6
aa(lp1762
I6
aI4
aI4
aI6
aa(lp1763
I6
aI4
aI4
aI6
aa(lp1764
I6
aI4
aI4
aI6
aa(lp1765
I6
aI4
aI4
aI6
aa(lp1766
I6
aI4
aI4
aI6
aa(lp1767
I6
aI4
aI4
aI6
aa(lp1768
I6
aI4
aI4
aI6
aa(lp1769
I6
aI4
aI4
aI6
aa(lp1770
I6
aI4
aI4
aI6
aa(lp1771
I6
aI4
aI4
aI6
aa(lp1772
I6
aI4
aI4
aI6
aa(lp1773
I6
aI4
aI4
aI6
aa(lp1774
I6
aI4
aI4
aI6
aa(lp1775
I6
aI4
aI4
aI6
aa(lp1776
I6
aI4
aI4
aI6
aa(lp1777
I6
aI4
aI4
aI6
aa(lp1778
I6
aI4
aI4
aI6
aa(lp1779
I6
aI4
aI4
aI6
aa(lp1780
I6
aI4
aI4
aI6
aa(lp1781
I6
aI4
aI4
aI6
aa(lp1782
I6
aI4
aI4
aI6
aa(lp1783
I6
aI4
aI4
aI6
aa(lp1784
I6
aI4
aI4
aI6
aa(lp1785
I6
aI4
aI4
aI6
aa(lp1786
I6
aI4
aI4
aI6
aa(lp1787
I6
aI4
aI4
aI6
aa(lp1788
I6
aI4
aI4
aI6
aa(lp1789
I6
aI4
aI4
aI6
aa(lp1790
I6
aI4
aI4
aI6
aa(lp1791
I6
aI4
aI4
aI6
aa(lp1792
I6
aI4
aI4
aI6
aa(lp1793
I6
aI4
aI4
aI6
aa(lp1794
I6
aI4
aI4
aI6
aa(lp1795
I6
aI4
aI4
aI6
aa(lp1796
I6
aI4
aI4
aI6
aa(lp1797
I6
aI4
aI4
aI6
aa(lp1798
I6
aI4
aI4
aI6
aa(lp1799
I6
aI4
aI4
aI6
aa(lp1800
I6
aI4
aI4
aI6
aa(lp1801
I6
aI4
aI4
aI6
aa(lp1802
I6
aI4
aI4
aI6
aa(lp1803
I6
aI4
aI4
aI6
aa(lp1804
I6
aI4
aI4
aI6
aa(lp1805
I6
aI4
aI4
aI6
aa(lp1806
I6
aI4
aI4
aI6
aa(lp1807
I6
aI4
aI4
aI6
aa(lp1808
I6
aI4
aI4
aI6
aa(lp1809
I6
aI4
aI4
aI6
aa(lp1810
I6
aI4
aI4
aI6
aa(lp1811
I6
aI4
aI4
aI6
aa(lp1812
I6
aI4
aI4
aI6
aa(lp1813
I6
aI4
aI4
aI6
aa(lp1814
I6
aI4
aI4
aI6
aa(lp1815
I6
aI4
aI4
aI6
aa(lp1816
I6
aI4
aI4
aI6
aa(lp1817
I6
aI4
aI4
aI6
aa(lp1818
I6
aI4
aI4
aI6
aa(lp1819
I6
aI4
aI4
aI6
aa(lp1820
I6
aI4
aI4
aI6
aa(lp1821
I6
aI4
aI4
aI6
aa(lp1822
I6
aI4
aI4
aI6
aa(lp1823
I6
aI4
aI4
aI6
aa(lp1824
I6
aI4
aI4
aI6
aa(lp1825
I6
aI4
aI4
aI6
aa(lp1826
I6
aI4
aI4
aI6
aa(lp1827
I6
aI4
aI4
aI6
aa(lp1828
I6
aI4
aI4
aI6
aa(lp1829
I6
aI4
aI4
aI6
aa(lp1830
I6
aI4
aI4
aI6
aa(lp1831
I6
aI4
aI4
aI6
aa(lp1832
I6
aI4
aI4
aI6
aa(lp1833
I6
aI4
aI4
aI6
aa(lp1834
I6
aI4
aI4
aI6
aa(lp1835
I6
aI4
aI4
aI6
aa(lp1836
I6
aI4
aI4
aI6
aa(lp1837
I6
aI4
aI4
aI6
aa(lp1838
I6
aI4
aI4
aI6
aa(lp1839
I6
aI4
aI4
aI6
aa(lp1840
I6
aI4
aI4
aI6
aa(lp1841
I6
aI4
aI4
aI6
aa(lp1842
I6
aI4
aI4
aI6
aa(lp1843
I6
aI4
aI4
aI6
aa(lp1844
I6
aI4
aI4
aI6
aa(lp1845
I6
aI4
aI4
aI6
aa(lp1846
I6
aI4
aI4
aI6
aa(lp1847
I6
aI4
aI4
aI6
aa(lp1848
I6
aI4
aI4
aI6
aa(lp1849
I6
aI4
aI4
aI6
aa(lp1850
I6
aI4
aI4
aI6
aa(lp1851
I6
aI4
aI4
aI6
aa(lp1852
I6
aI4
aI4
aI6
aa(lp1853
I6
aI4
aI4
aI6
aa(lp1854
I6
aI4
aI4
aI6
aa(lp1855
I6
aI4
aI4
aI6
aa(lp1856
I6
aI4
aI4
aI6
aa(lp1857
I6
aI4
aI4
aI6
aa(lp1858
I6
aI4
aI4
aI6
aa(lp1859
I6
aI4
aI4
aI6
aa(lp1860
I6
aI4
aI4
aI6
aa(lp1861
I6
aI4
aI4
aI6
aa(lp1862
I6
aI4
aI4
aI6
aa(lp1863
I6
aI4
aI4
aI6
aa(lp1864
I6
aI4
aI4
aI6
aa(lp1865
I6
aI4
aI4
aI6
aa(lp1866
I6
aI4
aI4
aI6
aa(lp1867
I6
aI4
aI4
aI6
aa(lp1868
I6
aI4
aI4
aI6
aa(lp1869
I6
aI4
aI4
aI6
aa(lp1870
I6
aI4
aI4
aI6
aa(lp1871
I6
aI4
aI4
aI6
aa(lp1872
I6
aI4
aI4
aI6
aa(lp1873
I6
aI4
aI4
aI6
aa(lp1874
I6
aI4
aI4
aI6
aa(lp1875
I6
aI4
aI4
aI6
aa(lp1876
I6
aI4
aI4
aI6
aa(lp1877
I6
aI4
aI4
aI6
aa(lp1878
I6
aI4
aI4
aI6
aa(lp1879
I6
aI4
aI4
aI6
aa(lp1880
I6
aI4
aI4
aI6
aa(lp1881
I6
aI4
aI4
aI6
aa(lp1882
I6
aI4
aI4
aI6
aa(lp1883
I6
aI4
aI4
aI6
aa(lp1884
I6
aI4
aI4
aI6
aa(lp1885
I6
aI4
aI4
aI6
aa(lp1886
I6
aI4
aI4
aI6
aa(lp1887
I6
aI4
aI4
aI6
aa(lp1888
I6
aI4
aI4
aI6
aa(lp1889
I6
aI4
aI4
aI6
aa(lp1890
I6
aI4
aI4
aI6
aa(lp1891
I6
aI4
aI4
aI6
aa(lp1892
I6
aI4
aI4
aI6
aa(lp1893
I6
aI4
aI4
aI6
aa(lp1894
I6
aI4
aI4
aI6
aa(lp1895
I6
aI4
aI4
aI6
aa(lp1896
I6
aI4
aI4
aI6
aa(lp1897
I6
aI4
aI4
aI6
aa(lp1898
I6
aI4
aI4
aI6
aa(lp1899
I6
aI4
aI4
aI6
aa(lp1900
I6
aI4
aI4
aI6
aa(lp1901
I6
aI4
aI4
aI6
aa(lp1902
I6
aI4
aI4
aI6
aa(lp1903
I6
aI4
aI4
aI6
aa(lp1904
I6
aI4
aI4
aI6
aa(lp1905
I6
aI4
aI4
aI6
aa(lp1906
I6
aI4
aI4
aI6
aa(lp1907
I6
aI4
aI4
aI6
aa(lp1908
I6
aI4
aI4
aI6
aa(lp1909
I6
aI4
aI4
aI6
aa(lp1910
I6
aI4
aI4
aI6
aa(lp1911
I6
aI4
aI4
aI6
aa(lp1912
I6
aI4
aI4
aI6
aa(lp1913
I6
aI4
aI4
aI6
aa(lp1914
I6
aI4
aI4
aI6
aa(lp1915
I6
aI4
aI4
aI6
aa(lp1916
I6
aI4
aI4
aI6
aa(lp1917
I6
aI4
aI4
aI6
aa(lp1918
I6
aI4
aI4
aI6
aa(lp1919
I6
aI4
aI4
aI6
aa(lp1920
I6
aI4
aI4
aI6
aa(lp1921
I6
aI4
aI4
aI6
aa(lp1922
I6
aI4
aI4
aI6
aa(lp1923
I6
aI4
aI4
aI6
aa(lp1924
I6
aI4
aI4
aI6
aa(lp1925
I6
aI4
aI4
aI6
aa(lp1926
I6
aI4
aI4
aI6
aa(lp1927
I6
aI4
aI4
aI6
aa(lp1928
I6
aI4
aI4
aI6
aa(lp1929
I6
aI4
aI4
aI6
aa(lp1930
I6
aI4
aI4
aI6
aa(lp1931
I6
aI4
aI4
aI6
aa(lp1932
I6
aI4
aI4
aI6
aa(lp1933
I6
aI4
aI4
aI6
aa(lp1934
I6
aI4
aI4
aI6
aa(lp1935
I6
aI4
aI4
aI6
aa(lp1936
I6
aI4
aI4
aI6
aa(lp1937
I6
aI4
aI4
aI6
aa(lp1938
I6
aI4
aI4
aI6
aa(lp1939
I6
aI4
aI4
aI6
aa(lp1940
I6
aI4
aI4
aI6
aa(lp1941
I6
aI4
aI4
aI6
aa(lp1942
I6
aI4
aI4
aI6
aa(lp1943
I6
aI4
aI4
aI6
aa(lp1944
I6
aI4
aI4
aI6
aa(lp1945
I6
aI4
aI4
aI6
aa(lp1946
I6
aI4
aI4
aI6
aa(lp1947
I6
aI4
aI4
aI6
aa(lp1948
I6
aI4
aI4
aI6
aa(lp1949
I6
aI4
aI4
aI6
aa(lp1950
I6
aI4
aI4
aI6
aa(lp1951
I6
aI4
aI4
aI6
aa(lp1952
I6
aI4
aI4
aI6
aa(lp1953
I6
aI4
aI4
aI6
aa(lp1954
I6
aI4
aI4
aI6
aa(lp1955
I6
aI4
aI4
aI6
aa(lp1956
I6
aI4
aI4
aI6
aa(lp1957
I6
aI4
aI4
aI6
aa(lp1958
I6
aI4
aI4
aI6
aa(lp1959
I6
aI4
aI4
aI6
aa(lp1960
I6
aI4
aI4
aI6
aa(lp1961
I6
aI4
aI4
aI6
aa(lp1962
I6
aI4
aI4
aI6
aa(lp1963
I6
aI4
aI4
aI6
aa(lp1964
I6
aI4
aI4
aI6
aa(lp1965
I6
aI4
aI4
aI6
aa(lp1966
I6
aI4
aI4
aI6
aa(lp1967
I6
aI4
aI4
aI6
aa(lp1968
I6
aI4
aI4
aI6
aa(lp1969
I6
aI4
aI4
aI6
aa(lp1970
I6
aI4
aI4
aI6
aa(lp1971
I6
aI4
aI4
aI6
aa(lp1972
I6
aI4
aI4
aI6
aa(lp1973
I6
aI4
aI4
aI6
aa(lp1974
I6
aI4
aI4
aI6
aa(lp1975
I6
aI4
aI4
aI6
aa(lp1976
I6
aI4
aI4
aI6
aa(lp1977
I6
aI4
aI4
aI6
aa(lp1978
I6
aI4
aI4
aI6
aa(lp1979
I6
aI4
aI4
aI6
aa(lp1980
I6
aI4
aI4
aI6
aa(lp1981
I6
aI4
aI4
aI6
aa(lp1982
I6
aI4
aI4
aI6
aa(lp1983
I6
aI4
aI4
aI6
aa(lp1984
I6
aI4
aI4
aI6
aa(lp1985
I6
aI4
aI4
aI6
aa(lp1986
I6
aI4
aI4
aI6
aa(lp1987
I6
aI4
aI4
aI6
aa(lp1988
I6
aI4
aI4
aI6
aa(lp1989
I6
aI4
aI4
aI6
aa(lp1990
I6
aI4
aI4
aI6
aa(lp1991
I6
aI4
aI4
aI6
aa(lp1992
I6
aI4
aI4
aI6
aa(lp1993
I6
aI4
aI4
aI6
aa(lp1994
I6
aI4
aI4
aI6
aa(lp1995
I6
aI4
aI4
aI6
aa(lp1996
I6
aI4
aI4
aI6
aa(lp1997
I6
aI4
aI4
aI6
aa(lp1998
I6
aI4
aI4
aI6
aa(lp1999
I6
aI4
aI4
aI6
aa(lp2000
I6
aI4
aI4
aI6
aa(lp2001
I6
aI4
aI4
aI6
aa(lp2002
I6
aI4
aI4
aI6
aa(lp2003
I6
aI4
aI4
aI6
aa(lp2004
I6
aI4
aI4
aI6
aa(lp2005
I6
aI4
aI4
aI6
aa(lp2006
I6
aI4
aI4
aI6
aa(lp2007
I6
aI4
aI4
aI6
aa(lp2008
I6
aI4
aI4
aI6
aa(lp2009
I6
aI4
aI4
aI6
aa(lp2010
I6
aI4
aI4
aI6
aa(lp2011
I6
aI4
aI4
aI6
aa(lp2012
I6
aI4
aI4
aI6
aa(lp2013
I6
aI4
aI4
aI6
aa(lp2014
I6
aI4
aI4
aI6
aa(lp2015
I6
aI4
aI4
aI6
aa(lp2016
I6
aI4
aI4
aI6
aa(lp2017
I6
aI4
aI4
aI6
aa(lp2018
I6
aI4
aI4
aI6
aa(lp2019
I6
aI4
aI4
aI6
aa(lp2020
I6
aI4
aI4
aI6
aa(lp2021
I6
aI4
aI4
aI6
aa(lp2022
I6
aI4
aI4
aI6
aa(lp2023
I6
aI4
aI4
aI6
aa(lp2024
I6
aI4
aI4
aI6
aa(lp2025
I6
aI4
aI4
aI6
aa(lp2026
I6
aI4
aI4
aI6
aa(lp2027
I6
aI4
aI4
aI6
aa(lp2028
I6
aI4
aI4
aI6
aa(lp2029
I6
aI4
aI4
aI6
aa(lp2030
I6
aI4
aI4
aI6
aa(lp2031
I6
aI4
aI4
aI6
aa(lp2032
I6
aI4
aI4
aI6
aa(lp2033
I6
aI4
aI4
aI6
aa(lp2034
I6
aI4
aI4
aI6
aa(lp2035
I6
aI4
aI4
aI6
aa(lp2036
I6
aI4
aI4
aI6
aa(lp2037
I6
aI4
aI4
aI6
aa(lp2038
I6
aI4
aI4
aI6
aa(lp2039
I6
aI4
aI4
aI6
aa(lp2040
I6
aI4
aI4
aI6
aa(lp2041
I6
aI4
aI4
aI6
aa(lp2042
I6
aI4
aI4
aI6
aa(lp2043
I6
aI4
aI4
aI6
aa(lp2044
I6
aI4
aI4
aI6
aa(lp2045
I6
aI4
aI4
aI6
aa(lp2046
I6
aI4
aI4
aI6
aa(lp2047
I6
aI4
aI4
aI6
aa(lp2048
I6
aI4
aI4
aI6
aa(lp2049
I6
aI4
aI4
aI6
aa(lp2050
I6
aI4
aI4
aI6
aa(lp2051
I6
aI4
aI4
aI6
aa(lp2052
I6
aI4
aI4
aI6
aa(lp2053
I6
aI4
aI4
aI6
aa(lp2054
I6
aI4
aI4
aI6
aa(lp2055
I6
aI4
aI4
aI6
aa(lp2056
I6
aI4
aI4
aI6
aa(lp2057
I6
aI4
aI4
aI6
aa(lp2058
I6
aI4
aI4
aI6
aa(lp2059
I6
aI4
aI4
aI6
aa(lp2060
I6
aI4
aI4
aI6
aa(lp2061
I6
aI4
aI4
aI6
aa(lp2062
I6
aI4
aI4
aI6
aa(lp2063
I6
aI4
aI4
aI6
aa(lp2064
I6
aI4
aI4
aI6
aa(lp2065
I6
aI4
aI4
aI6
aa(lp2066
I6
aI4
aI4
aI6
aa(lp2067
I6
aI4
aI4
aI6
aa(lp2068
I6
aI4
aI4
aI6
aa(lp2069
I6
aI4
aI4
aI6
aa(lp2070
I6
aI4
aI4
aI6
aa(lp2071
I6
aI4
aI4
aI6
aa(lp2072
I6
aI4
aI4
aI6
aa(lp2073
I6
aI4
aI4
aI6
aa(lp2074
I6
aI4
aI4
aI6
aa(lp2075
I6
aI4
aI4
aI6
aa(lp2076
I6
aI4
aI4
aI6
aa(lp2077
I6
aI4
aI4
aI6
aa(lp2078
I6
aI4
aI4
aI6
aa(lp2079
I6
aI4
aI4
aI6
aa(lp2080
I6
aI4
aI4
aI6
aa(lp2081
I6
aI4
aI4
aI6
aa(lp2082
I6
aI4
aI4
aI6
aa(lp2083
I6
aI4
aI4
aI6
aa(lp2084
I6
aI4
aI4
aI6
aa(lp2085
I6
aI4
aI4
aI6
aa(lp2086
I6
aI4
aI4
aI6
aa(lp2087
I6
aI4
aI4
aI6
aa(lp2088
I6
aI4
aI4
aI6
aa(lp2089
I6
aI4
aI4
aI6
aa(lp2090
I6
aI4
aI4
aI6
aa(lp2091
I6
aI4
aI4
aI6
aa(lp2092
I6
aI4
aI4
aI6
aa(lp2093
I6
aI4
aI4
aI6
aa(lp2094
I6
aI4
aI4
aI6
aa(lp2095
I6
aI4
aI4
aI6
aa(lp2096
I6
aI4
aI4
aI6
aa(lp2097
I6
aI4
aI4
aI6
aa(lp2098
I6
aI4
aI4
aI6
aa(lp2099
I6
aI4
aI4
aI6
aa(lp2100
I6
aI4
aI4
aI6
aa(lp2101
I6
aI4
aI4
aI6
aa(lp2102
I6
aI4
aI4
aI6
aa(lp2103
I6
aI4
aI4
aI6
aa(lp2104
I6
aI4
aI4
aI6
aa(lp2105
I6
aI4
aI4
aI6
aa(lp2106
I6
aI4
aI4
aI6
aa(lp2107
I6
aI4
aI4
aI6
aa(lp2108
I6
aI4
aI4
aI6
aa(lp2109
I6
aI4
aI4
aI6
aa(lp2110
I6
aI4
aI4
aI6
aa(lp2111
I6
aI4
aI4
aI6
aa(lp2112
I6
aI4
aI4
aI6
aa(lp2113
I6
aI4
aI4
aI6
aa(lp2114
I6
aI4
aI4
aI6
aa(lp2115
I6
aI4
aI4
aI6
aa(lp2116
I6
aI4
aI4
aI6
aa(lp2117
I6
aI4
aI4
aI6
aa(lp2118
I6
aI4
aI4
aI6
aa(lp2119
I6
aI4
aI4
aI6
aa(lp2120
I6
aI4
aI4
aI6
aa(lp2121
I6
aI4
aI4
aI6
aa(lp2122
I6
aI4
aI4
aI6
aa(lp2123
I6
aI4
aI4
aI6
aa(lp2124
I6
aI4
aI4
aI6
aa(lp2125
I6
aI4
aI4
aI6
aa(lp2126
I6
aI4
aI4
aI6
aa(lp2127
I6
aI4
aI4
aI6
aa(lp2128
I6
aI4
aI4
aI6
aa(lp2129
I6
aI4
aI4
aI6
aa(lp2130
I6
aI4
aI4
aI6
aa(lp2131
I6
aI4
aI4
aI6
aa(lp2132
I6
aI4
aI4
aI6
aa(lp2133
I6
aI4
aI4
aI6
aa(lp2134
I6
aI4
aI4
aI6
aa(lp2135
I6
aI4
aI4
aI6
aa(lp2136
I6
aI4
aI4
aI6
aa(lp2137
I6
aI4
aI4
aI6
aa(lp2138
I6
aI4
aI4
aI6
aa(lp2139
I6
aI4
aI4
aI6
aa(lp2140
I6
aI4
aI4
aI6
aa(lp2141
I6
aI4
aI4
aI6
aa(lp2142
I6
aI4
aI4
aI6
aa(lp2143
I6
aI4
aI4
aI6
aa(lp2144
I6
aI4
aI4
aI6
aa(lp2145
I6
aI4
aI4
aI6
aa(lp2146
I6
aI4
aI4
aI6
aa(lp2147
I6
aI4
aI4
aI6
aa(lp2148
I6
aI4
aI4
aI6
aa(lp2149
I6
aI4
aI4
aI6
aa(lp2150
I6
aI4
aI4
aI6
aa(lp2151
I6
aI4
aI4
aI6
aa(lp2152
I6
aI4
aI4
aI6
aa(lp2153
I6
aI4
aI4
aI6
aa(lp2154
I6
aI4
aI4
aI6
aa(lp2155
I6
aI4
aI4
aI6
aa(lp2156
I6
aI4
aI4
aI6
aa(lp2157
I6
aI4
aI4
aI6
aa(lp2158
I6
aI4
aI4
aI6
aa(lp2159
I6
aI4
aI4
aI6
aa(lp2160
I6
aI4
aI4
aI6
aa(lp2161
I6
aI4
aI4
aI6
aa(lp2162
I6
aI4
aI4
aI6
aa(lp2163
I6
aI4
aI4
aI6
aa(lp2164
I6
aI4
aI4
aI6
aa(lp2165
I6
aI4
aI4
aI6
aa(lp2166
I6
aI4
aI4
aI6
aa(lp2167
I6
aI4
aI4
aI6
aa(lp2168
I6
aI4
aI4
aI6
aa(lp2169
I6
aI4
aI4
aI6
aa(lp2170
I6
aI4
aI4
aI6
aa(lp2171
I6
aI4
aI4
aI6
aa(lp2172
I6
aI4
aI4
aI6
aa(lp2173
I6
aI4
aI4
aI6
aa(lp2174
I6
aI4
aI4
aI6
aa(lp2175
I6
aI4
aI4
aI6
aa(lp2176
I6
aI4
aI4
aI6
aa(lp2177
I6
aI4
aI4
aI6
aa(lp2178
I6
aI4
aI4
aI6
aa(lp2179
I6
aI4
aI4
aI6
aa(lp2180
I6
aI4
aI4
aI6
aa(lp2181
I6
aI4
aI4
aI6
aa(lp2182
I6
aI4
aI4
aI6
aa(lp2183
I6
aI4
aI4
aI6
aa(lp2184
I6
aI4
aI4
aI6
aa(lp2185
I6
aI4
aI4
aI6
aa(lp2186
I6
aI4
aI4
aI6
aa(lp2187
I6
aI4
aI4
aI6
aa(lp2188
I6
aI4
aI4
aI6
aa(lp2189
I6
aI4
aI4
aI6
aa(lp2190
I6
aI4
aI4
aI6
aa(lp2191
I6
aI4
aI4
aI6
aa(lp2192
I6
aI4
aI4
aI6
aa(lp2193
I6
aI4
aI4
aI6
aa(lp2194
I6
aI4
aI4
aI6
aa(lp2195
I6
aI4
aI4
aI6
aa(lp2196
I6
aI4
aI4
aI6
aa(lp2197
I6
aI4
aI4
aI6
aa(lp2198
I6
aI4
aI4
aI6
aa(lp2199
I6
aI4
aI4
aI6
aa(lp2200
I6
aI4
aI4
aI6
aa(lp2201
I6
aI4
aI4
aI6
aa(lp2202
I6
aI4
aI4
aI6
aa(lp2203
I6
aI4
aI4
aI6
aa(lp2204
I6
aI4
aI4
aI6
aa(lp2205
I6
aI4
aI4
aI6
aa(lp2206
I6
aI4
aI4
aI6
aa(lp2207
I6
aI4
aI4
aI6
aa(lp2208
I6
aI4
aI4
aI6
aa(lp2209
I6
aI4
aI4
aI6
aa(lp2210
I6
aI4
aI4
aI6
aa(lp2211
I6
aI4
aI4
aI6
aa(lp2212
I6
aI4
aI4
aI6
aa(lp2213
I6
aI4
aI4
aI6
aa(lp2214
I6
aI4
aI4
aI6
aa(lp2215
I6
aI4
aI4
aI6
aa(lp2216
I6
aI4
aI4
aI6
aa(lp2217
I6
aI4
aI4
aI6
aa(lp2218
I6
aI4
aI4
aI6
aa(lp2219
I6
aI4
aI4
aI6
aa(lp2220
I6
aI4
aI4
aI6
aa(lp2221
I6
aI4
aI4
aI6
aa(lp2222
I6
aI4
aI4
aI6
aa(lp2223
I6
aI4
aI4
aI6
aa(lp2224
I6
aI4
aI4
aI6
aa(lp2225
I6
aI4
aI4
aI6
aa(lp2226
I6
aI4
aI4
aI6
aa(lp2227
I6
aI4
aI4
aI6
aa(lp2228
I6
aI4
aI4
aI6
aa(lp2229
I6
aI4
aI4
aI6
aa(lp2230
I6
aI4
aI4
aI6
aa(lp2231
I6
aI4
aI4
aI6
aa(lp2232
I6
aI4
aI4
aI6
aa(lp2233
I6
aI4
aI4
aI6
aa(lp2234
I6
aI4
aI4
aI6
aa(lp2235
I6
aI4
aI4
aI6
aa(lp2236
I6
aI4
aI4
aI6
aa(lp2237
I6
aI4
aI4
aI6
aa(lp2238
I6
aI4
aI4
aI6
aa(lp2239
I6
aI4
aI4
aI6
aa(lp2240
I6
aI4
aI4
aI6
aa(lp2241
I6
aI4
aI4
aI6
aa(lp2242
I6
aI4
aI4
aI6
aa(lp2243
I6
aI4
aI4
aI6
aa(lp2244
I6
aI4
aI4
aI6
aa(lp2245
I6
aI4
aI4
aI6
aa(lp2246
I6
aI4
aI4
aI6
aa(lp2247
I6
aI4
aI4
aI6
aa(lp2248
I6
aI4
aI4
aI6
aa(lp2249
I6
aI4
aI4
aI6
aa(lp2250
I6
aI4
aI4
aI6
aa(lp2251
I6
aI4
aI4
aI6
aa(lp2252
I6
aI4
aI4
aI6
aa(lp2253
I6
aI4
aI4
aI6
aa(lp2254
I6
aI4
aI4
aI6
aa(lp2255
I6
aI4
aI4
aI6
aa(lp2256
I6
aI4
aI4
aI6
aa(lp2257
I6
aI4
aI4
aI6
aa(lp2258
I6
aI4
aI4
aI6
aa(lp2259
I6
aI4
aI4
aI6
aa(lp2260
I6
aI4
aI4
aI6
aa(lp2261
I6
aI4
aI4
aI6
aa(lp2262
I6
aI4
aI4
aI6
aa(lp2263
I6
aI4
aI4
aI6
aa(lp2264
I6
aI4
aI4
aI6
aa(lp2265
I6
aI4
aI4
aI6
aa(lp2266
I6
aI4
aI4
aI6
aa(lp2267
I6
aI4
aI4
aI6
aa(lp2268
I6
aI4
aI4
aI6
aa(lp2269
I6
aI4
aI4
aI6
aa(lp2270
I6
aI4
aI4
aI6
aa(lp2271
I6
aI4
aI4
aI6
aa(lp2272
I6
aI4
aI4
aI6
aa(lp2273
I6
aI4
aI4
aI6
aa(lp2274
I6
aI4
aI4
aI6
aa(lp2275
I6
aI4
aI4
aI6
aa(lp2276
I6
aI4
aI4
aI6
aa(lp2277
I6
aI4
aI4
aI6
aa(lp2278
I6
aI4
aI4
aI6
aa(lp2279
I6
aI4
aI4
aI6
aa(lp2280
I6
aI4
aI4
aI6
aa(lp2281
I6
aI4
aI4
aI6
aa(lp2282
I6
aI4
aI4
aI6
aa(lp2283
I6
aI4
aI4
aI6
aa(lp2284
I6
aI4
aI4
aI6
aa(lp2285
I6
aI4
aI4
aI6
aa(lp2286
I6
aI4
aI4
aI6
aa(lp2287
I6
aI4
aI4
aI6
aa(lp2288
I6
aI4
aI4
aI6
aa(lp2289
I6
aI4
aI4
aI6
aa(lp2290
I6
aI4
aI4
aI6
aa(lp2291
I6
aI4
aI4
aI6
aa(lp2292
I6
aI4
aI4
aI6
aa(lp2293
I6
aI4
aI4
aI6
aa(lp2294
I6
aI4
aI4
aI6
aa(lp2295
I6
aI4
aI4
aI6
aa(lp2296
I6
aI4
aI4
aI6
aa(lp2297
I6
aI4
aI4
aI6
aa(lp2298
I6
aI4
aI4
aI6
aa(lp2299
I6
aI4
aI4
aI6
aa(lp2300
I6
aI4
aI4
aI6
aa(lp2301
I6
aI4
aI4
aI6
aa(lp2302
I6
aI4
aI4
aI6
aa(lp2303
I6
aI4
aI4
aI6
aa(lp2304
I6
aI4
aI4
aI6
aa(lp2305
I6
aI4
aI4
aI6
aa(lp2306
I6
aI4
aI4
aI6
aa(lp2307
I6
aI4
aI4
aI6
aa(lp2308
I6
aI4
aI4
aI6
aa(lp2309
I6
aI4
aI4
aI6
aa(lp2310
I6
aI4
aI4
aI6
aa(lp2311
I6
aI4
aI4
aI6
aa(lp2312
I6
aI4
aI4
aI6
aa(lp2313
I6
aI4
aI4
aI6
aa(lp2314
I6
aI4
aI4
aI6
aa(lp2315
I6
aI4
aI4
aI6
aa(lp2316
I6
aI4
aI4
aI6
aa(lp2317
I6
aI4
aI4
aI6
aa(lp2318
I6
aI4
aI4
aI6
aa(lp2319
I6
aI4
aI4
aI6
aa(lp2320
I6
aI4
aI4
aI6
aa(lp2321
I6
aI4
aI4
aI6
aa(lp2322
I6
aI4
aI4
aI6
aa(lp2323
I6
aI4
aI4
aI6
aa(lp2324
I6
aI4
aI4
aI6
aa(lp2325
I6
aI4
aI4
aI6
aa(lp2326
I6
aI4
aI4
aI6
aa(lp2327
I6
aI4
aI4
aI6
aa(lp2328
I6
aI4
aI4
aI6
aa(lp2329
I6
aI4
aI4
aI6
aa(lp2330
I6
aI4
aI4
aI6
aa(lp2331
I6
aI4
aI4
aI6
aa(lp2332
I6
aI4
aI4
aI6
aa(lp2333
I6
aI4
aI4
aI6
aa(lp2334
I6
aI4
aI4
aI6
aa(lp2335
I6
aI4
aI4
aI6
aa(lp2336
I6
aI4
aI4
aI6
aa(lp2337
I6
aI4
aI4
aI6
aa(lp2338
I6
aI4
aI4
aI6
aa(lp2339
I6
aI4
aI4
aI6
aa(lp2340
I6
aI4
aI4
aI6
aa(lp2341
I6
aI4
aI4
aI6
aa(lp2342
I6
aI4
aI4
aI6
aa(lp2343
I6
aI4
aI4
aI6
aa(lp2344
I6
aI4
aI4
aI6
aa(lp2345
I6
aI4
aI4
aI6
aa(lp2346
I6
aI4
aI4
aI6
aa(lp2347
I6
aI4
aI4
aI6
aa(lp2348
I6
aI4
aI4
aI6
aa(lp2349
I6
aI4
aI4
aI6
aa(lp2350
I6
aI4
aI4
aI6
aa(lp2351
I6
aI4
aI4
aI6
aa(lp2352
I6
aI4
aI4
aI6
aa(lp2353
I6
aI4
aI4
aI6
aa(lp2354
I6
aI4
aI4
aI6
aa(lp2355
I6
aI4
aI4
aI6
aa(lp2356
I6
aI4
aI4
aI6
aa(lp2357
I6
aI4
aI4
aI6
aa(lp2358
I6
aI4
aI4
aI6
aa(lp2359
I6
aI4
aI4
aI6
aa(lp2360
I6
aI4
aI4
aI6
aa(lp2361
I6
aI4
aI4
aI6
aa(lp2362
I6
aI4
aI4
aI6
aa(lp2363
I6
aI4
aI4
aI6
aa(lp2364
I6
aI4
aI4
aI6
aa(lp2365
I6
aI4
aI4
aI6
aa(lp2366
I6
aI4
aI4
aI6
aa(lp2367
I6
aI4
aI4
aI6
aa(lp2368
I6
aI4
aI4
aI6
aa(lp2369
I6
aI4
aI4
aI6
aa(lp2370
I6
aI4
aI4
aI6
aa(lp2371
I6
aI4
aI4
aI6
aa(lp2372
I6
aI4
aI4
aI6
aa(lp2373
I6
aI4
aI4
aI6
aa(lp2374
I6
aI4
aI4
aI6
aa(lp2375
I6
aI4
aI4
aI6
aa(lp2376
I6
aI4
aI4
aI6
aa(lp2377
I6
aI4
aI4
aI6
aa(lp2378
I6
aI4
aI4
aI6
aa(lp2379
I6
aI4
aI4
aI6
aa(lp2380
I6
aI4
aI4
aI6
aa(lp2381
I6
aI4
aI4
aI6
aa(lp2382
I6
aI4
aI4
aI6
aa(lp2383
I6
aI4
aI4
aI6
aa(lp2384
I6
aI4
aI4
aI6
aa(lp2385
I6
aI4
aI4
aI6
aa(lp2386
I6
aI4
aI4
aI6
aa(lp2387
I6
aI4
aI4
aI6
aa(lp2388
I6
aI4
aI4
aI6
aa(lp2389
I6
aI4
aI4
aI6
aa(lp2390
I6
aI4
aI4
aI6
aa(lp2391
I6
aI4
aI4
aI6
aa(lp2392
I6
aI4
aI4
aI6
aa(lp2393
I6
aI4
aI4
aI6
aa(lp2394
I6
aI4
aI4
aI6
aa(lp2395
I6
aI4
aI4
aI6
aa(lp2396
I6
aI4
aI4
aI6
aa(lp2397
I6
aI4
aI4
aI6
aa(lp2398
I6
aI4
aI4
aI6
aa(lp2399
I6
aI4
aI4
aI6
aa(lp2400
I6
aI4
aI4
aI6
aa(lp2401
I6
aI4
aI4
aI6
aa(lp2402
I6
aI4
aI4
aI6
aa(lp2403
I6
aI4
aI4
aI6
aa(lp2404
I6
aI4
aI4
aI6
aa(lp2405
I6
aI4
aI4
aI6
aa(lp2406
I6
aI4
aI4
aI6
aa(lp2407
I6
aI4
aI4
aI6
aa(lp2408
I6
aI4
aI4
aI6
aa(lp2409
I6
aI4
aI4
aI6
aa(lp2410
I6
aI4
aI4
aI6
aa(lp2411
I6
aI4
aI4
aI6
aa(lp2412
I6
aI4
aI4
aI6
aa(lp2413
I6
aI4
aI4
aI6
aa(lp2414
I6
aI4
aI4
aI6
aa(lp2415
I6
aI4
aI4
aI6
aa(lp2416
I6
aI4
aI4
aI6
aa(lp2417
I6
aI4
aI4
aI6
aa(lp2418
I6
aI4
aI4
aI6
aa(lp2419
I6
aI4
aI4
aI6
aa(lp2420
I6
aI4
aI4
aI6
aa(lp2421
I6
aI4
aI4
aI6
aa(lp2422
I6
aI4
aI4
aI6
aa(lp2423
I6
aI4
aI4
aI6
aa(lp2424
I6
aI4
aI4
aI6
aa(lp2425
I6
aI4
aI4
aI6
aa(lp2426
I6
aI4
aI4
aI6
aa(lp2427
I6
aI4
aI4
aI6
aa(lp2428
I6
aI4
aI4
aI6
aa(lp2429
I6
aI4
aI4
aI6
aa(lp2430
I6
aI4
aI4
aI6
aa(lp2431
I6
aI4
aI4
aI6
aa(lp2432
I6
aI4
aI4
aI6
aa(lp2433
I6
aI4
aI4
aI6
aa(lp2434
I6
aI4
aI4
aI6
aa(lp2435
I6
aI4
aI4
aI6
aa(lp2436
I6
aI4
aI4
aI6
aa(lp2437
I6
aI4
aI4
aI6
aa(lp2438
I6
aI4
aI4
aI6
aa(lp2439
I6
aI4
aI4
aI6
aa(lp2440
I6
aI4
aI4
aI6
aa(lp2441
I6
aI4
aI4
aI6
aa(lp2442
I6
aI4
aI4
aI6
aa(lp2443
I6
aI4
aI4
aI6
aa(lp2444
I6
aI4
aI4
aI6
aa(lp2445
I6
aI4
aI4
aI6
aa(lp2446
I6
aI4
aI4
aI6
aa(lp2447
I6
aI10
aI4
aI4
aI6
aa(lp2448
I6
aI10
aI4
aI4
aI6
aa(lp2449
I6
aI10
aI4
aI4
aI6
aa(lp2450
I6
aI10
aI4
aI4
aI6
aa(lp2451
I6
aI10
aI4
aI4
aI6
aa(lp2452
I6
aI10
aI4
aI4
aI6
aa(lp2453
I6
aI10
aI4
aI4
aI6
aa(lp2454
I6
aI10
aI4
aI4
aI6
aa(lp2455
I6
aI10
aI4
aI4
aI6
aa(lp2456
I6
aI10
aI4
aI4
aI6
aa(lp2457
I6
aI10
aI4
aI4
aI6
aa(lp2458
I6
aI10
aI4
aI4
aI6
aa(lp2459
I6
aI10
aI4
aI4
aI6
aa(lp2460
I6
aI10
aI4
aI4
aI6
aa(lp2461
I6
aI10
aI4
aI4
aI6
aa(lp2462
I6
aI10
aI4
aI4
aI6
aa(lp2463
I6
aI10
aI4
aI4
aI6
aa(lp2464
I6
aI10
aI4
aI4
aI6
aa(lp2465
I6
aI10
aI4
aI4
aI6
aa(lp2466
I6
aI10
aI4
aI4
aI6
aa(lp2467
I6
aI6
aI10
aI4
aI4
aI6
aa(lp2468
I6
aI6
aI10
aI4
aI4
aI6
aa(lp2469
I6
aI6
aI10
aI4
aI4
aI6
aa(lp2470
I6
aI6
aI10
aI4
aI4
aI6
aa(lp2471
I6
aI6
aI10
aI4
aI4
aI6
aa(lp2472
I6
aI6
aI10
aI4
aI4
aI6
aa(lp2473
I6
aI6
aI10
aI4
aI4
aI6
aa(lp2474
I6
aI6
aI10
aI4
aI4
aI6
aa(lp2475
I6
aI6
aI10
aI4
aI4
aI6
aa(lp2476
I6
aI6
aI10
aI4
aI4
aI6
aa(lp2477
I6
aI6
aI10
aI4
aI4
aI6
aa(lp2478
I6
aI6
aI10
aI4
aI4
aI6
aa(lp2479
I6
aI6
aI10
aI4
aI4
aI6
aa(lp2480
I6
aI6
aI10
aI4
aI4
aI6
aa(lp2481
I6
aI6
aI10
aI4
aI4
aI6
aa(lp2482
I6
aI6
aI10
aI4
aI4
aI6
aa(lp2483
I6
aI6
aI10
aI4
aI4
aI6
aa(lp2484
I6
aI6
aI10
aI4
aI4
aI6
aa(lp2485
I6
aI6
aI10
aI4
aI4
aI6
aa(lp2486
I6
aI6
aI10
aI4
aI4
aI6
aa(lp2487
I6
aI6
aI10
aI4
aI4
aI6
aa(lp2488
I6
aI6
aI10
aI4
aI4
aI6
aa(lp2489
I6
aI6
aI10
aI4
aI4
aI6
aa(lp2490
I6
aI6
aI10
aI4
aI4
aI6
aa(lp2491
I6
aI6
aI10
aI4
aI4
aI6
aa(lp2492
I6
aI6
aI10
aI4
aI4
aI6
aa(lp2493
I6
aI6
aI10
aI4
aI4
aI6
aa(lp2494
I6
aI6
aI10
aI4
aI4
aI6
aa(lp2495
I6
aI6
aI10
aI4
aI4
aI6
aa(lp2496
I6
aI6
aI10
aI4
aI4
aI6
aa(lp2497
I6
aI6
aI10
aI4
aI4
aI6
aa(lp2498
I6
aI6
aI10
aI4
aI4
aI6
aa(lp2499
I6
aI6
aI10
aI4
aI4
aI6
aa(lp2500
I6
aI6
aI10
aI4
aI4
aI6
aa(lp2501
I6
aI6
aI10
aI4
aI4
aI6
aa(lp2502
I6
aI6
aI10
aI4
aI4
aI6
aa(lp2503
I6
aI6
aI10
aI4
aI4
aI6
aa(lp2504
I6
aI6
aI10
aI4
aI4
aI6
aa(lp2505
I6
aI6
aI10
aI4
aI4
aI6
aa(lp2506
I6
aI6
aI10
aI4
aI4
aI6
aa(lp2507
I6
aI6
aI10
aI4
aI4
aI6
aa(lp2508
I6
aI6
aI10
aI4
aI4
aI6
aa(lp2509
I6
aI6
aI10
aI4
aI4
aI6
aa(lp2510
I6
aI6
aI10
aI4
aI4
aI6
aa(lp2511
I6
aI6
aI10
aI4
aI4
aI6
aa(lp2512
I6
aI6
aI10
aI4
aI4
aI6
aa(lp2513
I6
aI6
aI10
aI4
aI4
aI6
aa(lp2514
I6
aI6
aI10
aI4
aI4
aI6
aa(lp2515
I6
aI6
aI10
aI4
aI4
aI6
aa(lp2516
I6
aI6
aI10
aI4
aI4
aI6
aa(lp2517
I6
aI6
aI10
aI4
aI4
aI6
aa(lp2518
I6
aI6
aI10
aI4
aI4
aI6
aa(lp2519
I6
aI6
aI10
aI4
aI4
aI6
aa(lp2520
I6
aI6
aI10
aI4
aI4
aI6
aa(lp2521
I6
aI6
aI10
aI4
aI4
aI6
aa(lp2522
I6
aI6
aI10
aI4
aI4
aI6
aa(lp2523
I6
aI6
aI10
aI4
aI4
aI6
aa(lp2524
I6
aI6
aI10
aI4
aI4
aI6
aa(lp2525
I6
aI6
aI10
aI4
aI4
aI6
aa(lp2526
I6
aI6
aI10
aI4
aI4
aI6
aa(lp2527
I6
aI6
aI10
aI4
aI4
aI6
aa(lp2528
I6
aI6
aI10
aI4
aI4
aI6
aa(lp2529
I6
aI6
aI10
aI4
aI4
aI6
aa(lp2530
I6
aI6
aI10
aI4
aI4
aI6
aa(lp2531
I6
aI6
aI10
aI4
aI4
aI6
aa(lp2532
I6
aI6
aI10
aI4
aI4
aI6
aa(lp2533
I6
aI6
aI10
aI4
aI4
aI6
aa(lp2534
I6
aI6
aI10
aI4
aI4
aI6
aa(lp2535
I6
aI6
aI10
aI4
aI4
aI6
aa(lp2536
I6
aI6
aI10
aI4
aI4
aI6
aa(lp2537
I6
aI6
aI10
aI4
aI4
aI6
aa(lp2538
I6
aI6
aI10
aI4
aI4
aI6
aa(lp2539
I6
aI6
aI10
aI4
aI4
aI6
aa(lp2540
I6
aI6
aI10
aI4
aI4
aI6
aa(lp2541
I6
aI6
aI10
aI4
aI4
aI6
aa(lp2542
I6
aI6
aI10
aI4
aI4
aI6
aa(lp2543
I6
aI6
aI10
aI4
aI4
aI6
aa(lp2544
I6
aI6
aI10
aI4
aI4
aI6
aa(lp2545
I6
aI6
aI10
aI4
aI4
aI6
aa(lp2546
I6
aI6
aI10
aI4
aI4
aI6
aa(lp2547
I6
aI6
aI10
aI4
aI4
aI6
aa(lp2548
I6
aI6
aI10
aI4
aI4
aI6
aa(lp2549
I6
aI6
aI10
aI4
aI4
aI6
aa(lp2550
I6
aI6
aI10
aI4
aI4
aI6
aa(lp2551
I6
aI6
aI10
aI4
aI4
aI6
aa(lp2552
I6
aI6
aI10
aI4
aI4
aI6
aa(lp2553
I6
aI6
aI10
aI4
aI4
aI6
aa(lp2554
I6
aI6
aI10
aI4
aI4
aI6
aa(lp2555
I6
aI6
aI10
aI4
aI4
aI6
aa(lp2556
I6
aI6
aI10
aI4
aI4
aI6
aa(lp2557
I6
aI6
aI10
aI4
aI4
aI6
aa(lp2558
I6
aI6
aI10
aI4
aI4
aI6
aa(lp2559
I6
aI6
aI10
aI4
aI4
aI6
aa(lp2560
I6
aI6
aI10
aI4
aI4
aI6
aa(lp2561
I6
aI6
aI10
aI4
aI4
aI6
aa(lp2562
I6
aI6
aI10
aI4
aI4
aI6
aa(lp2563
I6
aI6
aI10
aI4
aI4
aI6
aa(lp2564
I6
aI6
aI10
aI4
aI4
aI6
aa(lp2565
I6
aI6
aI10
aI4
aI4
aI6
aa(lp2566
I6
aI6
aI10
aI4
aI4
aI6
aa(lp2567
I6
aI6
aI10
aI4
aI4
aI6
aa(lp2568
I6
aI6
aI10
aI4
aI4
aI6
aa(lp2569
I6
aI6
aI10
aI4
aI4
aI6
aa(lp2570
I6
aI6
aI10
aI4
aI4
aI6
aa(lp2571
I6
aI6
aI10
aI4
aI4
aI6
aa(lp2572
I6
aI6
aI10
aI4
aI4
aI6
aa(lp2573
I6
aI6
aI10
aI4
aI4
aI6
aa(lp2574
I6
aI6
aI10
aI4
aI4
aI6
aa(lp2575
I6
aI6
aI10
aI4
aI4
aI6
aa(lp2576
I6
aI6
aI10
aI4
aI4
aI6
aa(lp2577
I6
aI6
aI10
aI4
aI4
aI6
aa(lp2578
I6
aI6
aI10
aI4
aI4
aI6
aa(lp2579
I6
aI6
aI10
aI4
aI4
aI6
aa(lp2580
I6
aI6
aI10
aI4
aI4
aI6
aa(lp2581
I6
aI6
aI10
aI4
aI4
aI6
aa(lp2582
I6
aI6
aI10
aI4
aI4
aI6
aa(lp2583
I6
aI6
aI10
aI4
aI4
aI6
aa(lp2584
I6
aI6
aI10
aI4
aI4
aI6
aa(lp2585
I6
aI6
aI10
aI4
aI4
aI6
aa(lp2586
I6
aI6
aI10
aI4
aI4
aI6
aa(lp2587
I6
aI6
aI10
aI4
aI4
aI6
aa(lp2588
I6
aI6
aI10
aI4
aI4
aI6
aa(lp2589
I6
aI6
aI10
aI4
aI4
aI6
aa(lp2590
I6
aI6
aI10
aI4
aI4
aI6
aa(lp2591
I6
aI6
aI10
aI4
aI4
aI6
aa(lp2592
I6
aI6
aI10
aI4
aI4
aI6
aa(lp2593
I6
aI6
aI10
aI4
aI4
aI6
aa(lp2594
I6
aI6
aI10
aI4
aI4
aI6
aa(lp2595
I6
aI6
aI10
aI4
aI4
aI6
aa(lp2596
I6
aI6
aI10
aI4
aI4
aI6
aa(lp2597
I6
aI6
aI10
aI4
aI4
aI6
aa(lp2598
I6
aI6
aI10
aI4
aI4
aI6
aa(lp2599
I6
aI6
aI10
aI4
aI4
aI6
aa(lp2600
I6
aI6
aI10
aI4
aI4
aI6
aa(lp2601
I6
aI6
aI10
aI4
aI4
aI6
aa(lp2602
I6
aI6
aI10
aI4
aI4
aI6
aa(lp2603
I6
aI6
aI10
aI4
aI4
aI6
aa(lp2604
I6
aI6
aI10
aI4
aI4
aI6
aa(lp2605
I6
aI6
aI10
aI4
aI4
aI6
aa(lp2606
I6
aI6
aI10
aI4
aI4
aI6
aa(lp2607
I6
aI6
aI10
aI4
aI4
aI6
aa(lp2608
I6
aI6
aI10
aI4
aI4
aI6
aa(lp2609
I6
aI6
aI10
aI4
aI4
aI6
aa(lp2610
I6
aI6
aI10
aI4
aI4
aI6
aa(lp2611
I6
aI6
aI10
aI4
aI4
aI6
aa(lp2612
I6
aI6
aI10
aI4
aI4
aI6
aa(lp2613
I6
aI6
aI10
aI4
aI4
aI6
aa(lp2614
I6
aI6
aI10
aI4
aI4
aI6
aa(lp2615
I6
aI6
aI10
aI4
aI4
aI6
aa(lp2616
I6
aI6
aI10
aI4
aI4
aI6
aa(lp2617
I6
aI6
aI10
aI4
aI4
aI6
aa(lp2618
I6
aI6
aI10
aI4
aI4
aI6
aa(lp2619
I6
aI6
aI10
aI4
aI4
aI6
aa(lp2620
I6
aI6
aI10
aI4
aI4
aI6
aa(lp2621
I6
aI6
aI10
aI4
aI4
aI6
aa(lp2622
I6
aI6
aI10
aI4
aI4
aI6
aa(lp2623
I6
aI6
aI10
aI4
aI4
aI6
aa(lp2624
I6
aI6
aI10
aI4
aI4
aI6
aa(lp2625
I6
aI6
aI10
aI4
aI4
aI6
aa(lp2626
I6
aI6
aI10
aI4
aI4
aI6
aa(lp2627
I6
aI6
aI10
aI4
aI4
aI6
aa(lp2628
I6
aI6
aI10
aI4
aI4
aI6
aa(lp2629
I6
aI6
aI10
aI4
aI4
aI6
aa(lp2630
I6
aI6
aI10
aI4
aI4
aI6
aa(lp2631
I6
aI6
aI10
aI4
aI4
aI6
aa(lp2632
I6
aI6
aI10
aI4
aI4
aI6
aa(lp2633
I6
aI6
aI10
aI4
aI4
aI6
aa(lp2634
I6
aI6
aI10
aI4
aI4
aI6
aa(lp2635
I6
aI6
aI10
aI4
aI4
aI6
aa(lp2636
I6
aI6
aI10
aI4
aI4
aI6
aa(lp2637
I6
aI6
aI10
aI4
aI4
aI6
aa(lp2638
I6
aI6
aI10
aI4
aI4
aI6
aa(lp2639
I6
aI6
aI10
aI4
aI4
aI6
aa(lp2640
I6
aI6
aI10
aI4
aI4
aI6
aa(lp2641
I6
aI6
aI10
aI4
aI4
aI6
aa(lp2642
I6
aI6
aI10
aI4
aI4
aI6
aa(lp2643
I6
aI6
aI10
aI4
aI4
aI6
aa(lp2644
I6
aI6
aI10
aI4
aI4
aI6
aa(lp2645
I6
aI6
aI10
aI4
aI4
aI6
aa(lp2646
I6
aI6
aI10
aI4
aI4
aI6
aa(lp2647
I6
aI6
aI10
aI4
aI4
aI6
aa(lp2648
I6
aI6
aI10
aI4
aI4
aI6
aa(lp2649
I6
aI6
aI10
aI4
aI4
aI6
aa(lp2650
I6
aI6
aI10
aI4
aI4
aI6
aa(lp2651
I6
aI6
aI10
aI4
aI4
aI6
aa(lp2652
I6
aI6
aI10
aI4
aI4
aI6
aa(lp2653
I6
aI6
aI10
aI4
aI4
aI6
aa(lp2654
I6
aI6
aI10
aI4
aI4
aI6
aa(lp2655
I6
aI6
aI10
aI4
aI4
aI6
aa(lp2656
I6
aI6
aI10
aI4
aI4
aI6
aa(lp2657
I6
aI6
aI10
aI4
aI4
aI6
aa(lp2658
I6
aI6
aI10
aI4
aI4
aI6
aa(lp2659
I6
aI6
aI10
aI4
aI4
aI6
aa(lp2660
I6
aI6
aI10
aI4
aI4
aI6
aa(lp2661
I6
aI6
aI10
aI4
aI4
aI6
aa(lp2662
I6
aI6
aI10
aI4
aI4
aI6
aa(lp2663
I6
aI6
aI10
aI4
aI4
aI6
aa(lp2664
I6
aI6
aI10
aI4
aI4
aI6
aa(lp2665
I6
aI6
aI10
aI4
aI4
aI6
aa(lp2666
I6
aI6
aI10
aI4
aI4
aI6
aa(lp2667
I6
aI6
aI10
aI4
aI4
aI6
aa(lp2668
I6
aI6
aI10
aI4
aI4
aI6
aa(lp2669
I6
aI6
aI10
aI4
aI4
aI6
aa(lp2670
I6
aI6
aI10
aI4
aI4
aI6
aa(lp2671
I6
aI6
aI10
aI4
aI4
aI6
aa(lp2672
I6
aI6
aI10
aI4
aI4
aI6
aa(lp2673
I6
aI6
aI10
aI4
aI4
aI6
aa(lp2674
I6
aI6
aI10
aI4
aI4
aI6
aa(lp2675
I6
aI6
aI10
aI4
aI4
aI6
aa(lp2676
I6
aI6
aI10
aI4
aI4
aI6
aa(lp2677
I6
aI6
aI10
aI4
aI4
aI6
aa(lp2678
I6
aI6
aI10
aI4
aI4
aI6
aa(lp2679
I6
aI6
aI10
aI4
aI4
aI6
aa(lp2680
I6
aI6
aI10
aI4
aI4
aI6
aa(lp2681
I6
aI6
aI10
aI4
aI4
aI6
aa(lp2682
I6
aI6
aI10
aI4
aI4
aI6
aa(lp2683
I6
aI6
aI10
aI4
aI4
aI6
aa(lp2684
I6
aI6
aI10
aI4
aI4
aI6
aa(lp2685
I6
aI6
aI10
aI4
aI4
aI6
aa(lp2686
I6
aI6
aI10
aI4
aI4
aI6
aa(lp2687
I6
aI6
aI10
aI4
aI4
aI6
aa(lp2688
I6
aI6
aI10
aI4
aI4
aI6
aa(lp2689
I6
aI6
aI10
aI4
aI4
aI6
aa(lp2690
I6
aI6
aI10
aI4
aI4
aI6
aa(lp2691
I6
aI6
aI10
aI4
aI4
aI6
aa(lp2692
I6
aI6
aI10
aI4
aI4
aI6
aa(lp2693
I6
aI6
aI10
aI4
aI4
aI6
aa(lp2694
I6
aI6
aI10
aI4
aI4
aI6
aa(lp2695
I6
aI6
aI10
aI4
aI4
aI6
aa(lp2696
I6
aI6
aI10
aI4
aI4
aI6
aa(lp2697
I6
aI6
aI10
aI4
aI4
aI6
aa(lp2698
I6
aI6
aI10
aI4
aI4
aI6
aa(lp2699
I6
aI6
aI10
aI4
aI4
aI6
aa(lp2700
I6
aI6
aI10
aI4
aI4
aI6
aa(lp2701
I6
aI6
aI10
aI4
aI4
aI6
aa(lp2702
I6
aI6
aI10
aI4
aI4
aI6
aa(lp2703
I6
aI6
aI10
aI4
aI4
aI6
aa(lp2704
I6
aI6
aI10
aI4
aI4
aI6
aa(lp2705
I6
aI6
aI10
aI4
aI4
aI6
aa(lp2706
I6
aI6
aI10
aI4
aI4
aI6
aa(lp2707
I6
aI6
aI10
aI4
aI4
aI6
aa(lp2708
I6
aI6
aI10
aI4
aI4
aI6
aa(lp2709
I6
aI6
aI10
aI4
aI4
aI6
aa(lp2710
I6
aI6
aI10
aI4
aI4
aI6
aa(lp2711
I6
aI6
aI10
aI4
aI4
aI6
aa(lp2712
I6
aI6
aI10
aI4
aI4
aI6
aa(lp2713
I6
aI6
aI10
aI4
aI4
aI6
aa(lp2714
I6
aI6
aI10
aI4
aI4
aI6
aa(lp2715
I6
aI6
aI10
aI4
aI4
aI6
aa(lp2716
I6
aI6
aI10
aI4
aI4
aI6
aa(lp2717
I6
aI6
aI10
aI4
aI4
aI6
aa(lp2718
I6
aI6
aI10
aI4
aI4
aI6
aa(lp2719
I6
aI6
aI10
aI4
aI4
aI6
aa(lp2720
I6
aI6
aI10
aI4
aI4
aI6
aa(lp2721
I6
aI6
aI10
aI4
aI4
aI6
aa(lp2722
I6
aI6
aI10
aI4
aI4
aI6
aa(lp2723
I6
aI6
aI10
aI4
aI4
aI6
aa(lp2724
I6
aI6
aI10
aI4
aI4
aI6
aa(lp2725
I6
aI6
aI10
aI4
aI4
aI6
aa(lp2726
I6
aI6
aI10
aI4
aI4
aI6
aa(lp2727
I6
aI6
aI10
aI4
aI4
aI6
aa(lp2728
I6
aI6
aI10
aI4
aI4
aI6
aa(lp2729
I6
aI6
aI10
aI4
aI4
aI6
aa(lp2730
I6
aI6
aI10
aI4
aI4
aI6
aa(lp2731
I6
aI6
aI10
aI4
aI4
aI6
aa(lp2732
I6
aI6
aI10
aI4
aI4
aI6
aa(lp2733
I6
aI6
aI10
aI4
aI4
aI6
aa(lp2734
I6
aI6
aI10
aI4
aI4
aI6
aa(lp2735
I6
aI6
aI10
aI4
aI4
aI6
aa(lp2736
I6
aI6
aI10
aI4
aI4
aI6
aa(lp2737
I6
aI6
aI10
aI4
aI4
aI6
aa(lp2738
I6
aI6
aI10
aI4
aI4
aI6
aa(lp2739
I6
aI6
aI10
aI4
aI4
aI6
aa(lp2740
I6
aI6
aI10
aI4
aI4
aI6
aa(lp2741
I6
aI6
aI10
aI4
aI4
aI6
aa(lp2742
I6
aI6
aI10
aI4
aI4
aI6
aa(lp2743
I6
aI6
aI10
aI4
aI4
aI6
aa(lp2744
I6
aI6
aI10
aI4
aI4
aI6
aa(lp2745
I6
aI6
aI10
aI4
aI4
aI6
aa(lp2746
I6
aI6
aI10
aI4
aI4
aI6
aa(lp2747
I6
aI6
aI10
aI4
aI4
aI6
aa(lp2748
I6
aI6
aI10
aI4
aI4
aI6
aa(lp2749
I6
aI6
aI10
aI4
aI4
aI6
aa(lp2750
I6
aI6
aI10
aI4
aI4
aI6
aa(lp2751
I6
aI6
aI10
aI4
aI4
aI6
aa(lp2752
I6
aI6
aI10
aI4
aI4
aI6
aa(lp2753
I6
aI6
aI10
aI4
aI4
aI6
aa(lp2754
I6
aI6
aI10
aI4
aI4
aI6
aa(lp2755
I6
aI6
aI10
aI4
aI4
aI6
aa(lp2756
I6
aI6
aI10
aI4
aI4
aI6
aa(lp2757
I6
aI6
aI10
aI4
aI4
aI6
aa(lp2758
I6
aI6
aI10
aI4
aI4
aI6
aa(lp2759
I6
aI6
aI10
aI4
aI4
aI6
aa(lp2760
I6
aI6
aI10
aI4
aI4
aI6
aa(lp2761
I6
aI6
aI10
aI4
aI4
aI6
aa(lp2762
I6
aI6
aI10
aI4
aI4
aI6
aa(lp2763
I6
aI6
aI10
aI4
aI4
aI6
aa(lp2764
I6
aI6
aI10
aI4
aI4
aI6
aa(lp2765
I6
aI6
aI10
aI4
aI4
aI6
aa(lp2766
I6
aI6
aI10
aI4
aI4
aI6
aa(lp2767
I6
aI6
aI10
aI4
aI4
aI6
aa(lp2768
I6
aI6
aI10
aI4
aI4
aI6
aa(lp2769
I6
aI6
aI10
aI4
aI4
aI6
aa(lp2770
I6
aI6
aI10
aI4
aI4
aI6
aa(lp2771
I6
aI6
aI10
aI4
aI4
aI6
aa(lp2772
I6
aI6
aI10
aI4
aI4
aI6
aa(lp2773
I6
aI6
aI10
aI4
aI4
aI6
aa(lp2774
I6
aI6
aI10
aI4
aI4
aI6
aa(lp2775
I6
aI6
aI10
aI4
aI4
aI6
aa(lp2776
I6
aI6
aI10
aI4
aI4
aI6
aa(lp2777
I6
aI6
aI10
aI4
aI4
aI6
aa(lp2778
I6
aI6
aI10
aI4
aI4
aI6
aa(lp2779
I6
aI6
aI10
aI4
aI4
aI6
aa(lp2780
I6
aI6
aI10
aI4
aI4
aI6
aa(lp2781
I6
aI6
aI10
aI4
aI4
aI6
aa(lp2782
I6
aI6
aI10
aI4
aI4
aI6
aa(lp2783
I6
aI6
aI10
aI4
aI4
aI6
aa(lp2784
I6
aI6
aI10
aI4
aI4
aI6
aa(lp2785
I6
aI6
aI10
aI4
aI4
aI6
aa(lp2786
I6
aI6
aI10
aI4
aI4
aI6
aa(lp2787
I6
aI6
aI10
aI4
aI4
aI6
aa(lp2788
I6
aI6
aI10
aI4
aI4
aI6
aa(lp2789
I6
aI6
aI10
aI4
aI4
aI6
aa(lp2790
I6
aI6
aI10
aI4
aI4
aI6
aa(lp2791
I6
aI6
aI10
aI4
aI4
aI6
aa(lp2792
I6
aI6
aI10
aI4
aI4
aI6
aa(lp2793
I6
aI6
aI10
aI4
aI4
aI6
aa(lp2794
I6
aI6
aI10
aI4
aI4
aI6
aa(lp2795
I6
aI6
aI10
aI4
aI4
aI6
aa(lp2796
I6
aI6
aI10
aI4
aI4
aI6
aa(lp2797
I6
aI6
aI10
aI4
aI4
aI6
aa(lp2798
I6
aI6
aI10
aI4
aI4
aI6
aa(lp2799
I6
aI6
aI10
aI4
aI4
aI6
aa(lp2800
I6
aI6
aI10
aI4
aI4
aI6
aa(lp2801
I6
aI6
aI10
aI4
aI4
aI6
aa(lp2802
I6
aI6
aI10
aI4
aI4
aI6
aa(lp2803
I6
aI6
aI10
aI4
aI4
aI6
aa(lp2804
I6
aI6
aI10
aI4
aI4
aI6
aa(lp2805
I6
aI6
aI10
aI4
aI4
aI6
aa(lp2806
I6
aI6
aI10
aI4
aI4
aI6
aa(lp2807
I6
aI6
aI10
aI4
aI4
aI6
aa(lp2808
I6
aI6
aI10
aI4
aI4
aI6
aa(lp2809
I6
aI6
aI10
aI4
aI4
aI6
aa(lp2810
I6
aI6
aI10
aI4
aI4
aI6
aa(lp2811
I6
aI6
aI10
aI4
aI4
aI6
aa(lp2812
I6
aI6
aI10
aI4
aI4
aI6
aa(lp2813
I6
aI6
aI10
aI4
aI4
aI6
aa(lp2814
I6
aI6
aI10
aI4
aI4
aI6
aa(lp2815
I6
aI6
aI10
aI4
aI4
aI6
aa(lp2816
I6
aI6
aI10
aI4
aI4
aI6
aa(lp2817
I6
aI6
aI10
aI4
aI4
aI6
aa(lp2818
I6
aI6
aI10
aI4
aI4
aI6
aa(lp2819
I6
aI6
aI10
aI4
aI4
aI6
aa(lp2820
I6
aI6
aI10
aI4
aI4
aI6
aa(lp2821
I6
aI6
aI10
aI4
aI4
aI6
aa(lp2822
I6
aI6
aI10
aI4
aI4
aI6
aa(lp2823
I6
aI6
aI10
aI4
aI4
aI6
aa(lp2824
I6
aI6
aI10
aI4
aI4
aI6
aa(lp2825
I6
aI6
aI10
aI4
aI4
aI6
aa(lp2826
I6
aI6
aI10
aI4
aI4
aI6
aa(lp2827
I6
aI6
aI10
aI4
aI4
aI6
aa(lp2828
I6
aI6
aI10
aI4
aI4
aI6
aa(lp2829
I6
aI6
aI10
aI4
aI4
aI6
aa(lp2830
I6
aI6
aI10
aI4
aI4
aI6
aa(lp2831
I6
aI6
aI10
aI4
aI4
aI6
aa(lp2832
I6
aI6
aI10
aI4
aI4
aI6
aa(lp2833
I6
aI6
aI10
aI4
aI4
aI6
aa(lp2834
I6
aI6
aI10
aI4
aI4
aI6
aa(lp2835
I6
aI6
aI10
aI4
aI4
aI6
aa(lp2836
I6
aI6
aI10
aI4
aI4
aI6
aa(lp2837
I6
aI6
aI10
aI4
aI4
aI6
aa(lp2838
I6
aI6
aI10
aI4
aI4
aI6
aa(lp2839
I6
aI6
aI10
aI4
aI4
aI6
aa(lp2840
I6
aI6
aI10
aI4
aI4
aI6
aa(lp2841
I6
aI6
aI10
aI4
aI4
aI6
aa(lp2842
I6
aI6
aI10
aI4
aI4
aI6
aa(lp2843
I6
aI6
aI10
aI4
aI4
aI6
aa(lp2844
I6
aI6
aI10
aI4
aI4
aI6
aa(lp2845
I6
aI6
aI10
aI4
aI4
aI6
aa(lp2846
I6
aI6
aI10
aI4
aI4
aI6
aa(lp2847
I6
aI6
aI10
aI4
aI4
aI6
aa(lp2848
I6
aI6
aI10
aI4
aI4
aI6
aa(lp2849
I6
aI6
aI10
aI4
aI4
aI6
aa(lp2850
I6
aI6
aI10
aI4
aI4
aI6
aa(lp2851
I6
aI6
aI10
aI4
aI4
aI6
aa(lp2852
I6
aI6
aI10
aI4
aI4
aI6
aa(lp2853
I6
aI6
aI10
aI4
aI4
aI6
aa(lp2854
I6
aI6
aI10
aI4
aI4
aI6
aa(lp2855
I6
aI6
aI10
aI4
aI4
aI6
aa(lp2856
I6
aI6
aI10
aI4
aI4
aI6
aa(lp2857
I6
aI6
aI10
aI4
aI4
aI6
aa(lp2858
I6
aI6
aI10
aI4
aI4
aI6
aa(lp2859
I6
aI6
aI10
aI4
aI4
aI6
aa(lp2860
I6
aI6
aI10
aI4
aI4
aI6
aa(lp2861
I6
aI6
aI10
aI4
aI4
aI6
aa(lp2862
I6
aI6
aI10
aI4
aI4
aI6
aa(lp2863
I6
aI6
aI10
aI4
aI4
aI6
aa(lp2864
I6
aI6
aI10
aI4
aI4
aI6
aa(lp2865
I6
aI6
aI10
aI4
aI4
aI6
aa(lp2866
I6
aI6
aI10
aI4
aI4
aI6
aa(lp2867
I6
aI6
aI10
aI4
aI4
aI6
aa(lp2868
I6
aI6
aI10
aI4
aI4
aI6
aa(lp2869
I6
aI6
aI10
aI4
aI4
aI6
aa(lp2870
I6
aI6
aI10
aI4
aI4
aI6
aa(lp2871
I6
aI6
aI10
aI4
aI4
aI6
aa(lp2872
I6
aI6
aI10
aI4
aI4
aI6
aa(lp2873
I6
aI6
aI10
aI4
aI4
aI6
aa(lp2874
I6
aI6
aI10
aI4
aI4
aI6
aa(lp2875
I6
aI6
aI10
aI4
aI4
aI6
aa(lp2876
I6
aI6
aI10
aI4
aI4
aI6
aa(lp2877
I6
aI6
aI10
aI4
aI4
aI6
aa(lp2878
I6
aI6
aI10
aI4
aI4
aI6
aa(lp2879
I6
aI6
aI10
aI4
aI4
aI6
aa(lp2880
I6
aI6
aI10
aI4
aI4
aI6
aa(lp2881
I6
aI6
aI10
aI4
aI4
aI6
aa(lp2882
I6
aI6
aI10
aI4
aI4
aI6
aa(lp2883
I6
aI6
aI10
aI4
aI4
aI6
aa(lp2884
I6
aI6
aI10
aI4
aI4
aI6
aa(lp2885
I6
aI6
aI10
aI4
aI4
aI6
aa(lp2886
I6
aI6
aI10
aI4
aI4
aI6
aa(lp2887
I6
aI6
aI10
aI4
aI4
aI6
aa(lp2888
I6
aI6
aI10
aI4
aI4
aI6
aa(lp2889
I6
aI6
aI10
aI4
aI4
aI6
aa(lp2890
I6
aI6
aI10
aI4
aI4
aI6
aa(lp2891
I6
aI6
aI10
aI4
aI4
aI6
aa(lp2892
I6
aI6
aI10
aI4
aI4
aI6
aa(lp2893
I6
aI6
aI10
aI4
aI4
aI6
aa(lp2894
I6
aI6
aI10
aI4
aI4
aI6
aa(lp2895
I6
aI6
aI10
aI4
aI4
aI6
aa(lp2896
I6
aI6
aI10
aI4
aI4
aI6
aa(lp2897
I6
aI6
aI10
aI4
aI4
aI6
aa(lp2898
I6
aI6
aI10
aI4
aI4
aI6
aa(lp2899
I6
aI6
aI10
aI4
aI4
aI6
aa(lp2900
I6
aI6
aI10
aI4
aI4
aI6
aa(lp2901
I6
aI6
aI10
aI4
aI4
aI6
aa(lp2902
I6
aI6
aI10
aI4
aI4
aI6
aa(lp2903
I6
aI6
aI10
aI4
aI4
aI6
aa(lp2904
I6
aI6
aI10
aI4
aI4
aI6
aa(lp2905
I6
aI6
aI10
aI4
aI4
aI6
aa(lp2906
I6
aI6
aI10
aI4
aI4
aI6
aa(lp2907
I6
aI6
aI10
aI4
aI4
aI6
aa(lp2908
I6
aI6
aI10
aI4
aI4
aI6
aa(lp2909
I6
aI6
aI10
aI4
aI4
aI6
aa(lp2910
I6
aI6
aI10
aI4
aI4
aI6
aa(lp2911
I6
aI6
aI10
aI4
aI4
aI6
aa(lp2912
I6
aI6
aI10
aI4
aI4
aI6
aa(lp2913
I6
aI6
aI10
aI4
aI4
aI6
aa(lp2914
I6
aI6
aI10
aI4
aI4
aI6
aa(lp2915
I6
aI6
aI10
aI4
aI4
aI6
aa(lp2916
I6
aI6
aI10
aI4
aI4
aI6
aa(lp2917
I6
aI6
aI10
aI4
aI4
aI6
aa(lp2918
I6
aI6
aI10
aI4
aI4
aI6
aa(lp2919
I6
aI6
aI10
aI4
aI4
aI6
aa(lp2920
I6
aI6
aI10
aI4
aI4
aI6
aa(lp2921
I6
aI6
aI10
aI4
aI4
aI6
aa(lp2922
I6
aI6
aI10
aI4
aI4
aI6
aa(lp2923
I6
aI6
aI10
aI4
aI4
aI6
aa(lp2924
I6
aI6
aI10
aI4
aI4
aI6
aa(lp2925
I6
aI6
aI10
aI4
aI4
aI6
aa(lp2926
I6
aI6
aI10
aI4
aI4
aI6
aa(lp2927
I6
aI6
aI10
aI4
aI4
aI6
aa(lp2928
I6
aI6
aI10
aI4
aI4
aI6
aa(lp2929
I6
aI6
aI10
aI4
aI4
aI6
aa(lp2930
I6
aI6
aI10
aI4
aI4
aI6
aa(lp2931
I6
aI6
aI10
aI4
aI4
aI6
aa(lp2932
I6
aI6
aI10
aI4
aI4
aI6
aa(lp2933
I6
aI6
aI10
aI4
aI4
aI6
aa(lp2934
I6
aI6
aI10
aI4
aI4
aI6
aa(lp2935
I6
aI6
aI10
aI4
aI4
aI6
aa(lp2936
I6
aI6
aI10
aI4
aI4
aI6
aa(lp2937
I6
aI6
aI10
aI4
aI4
aI6
aa(lp2938
I6
aI6
aI10
aI4
aI4
aI6
aa(lp2939
I6
aI6
aI10
aI4
aI4
aI6
aa(lp2940
I6
aI6
aI10
aI4
aI4
aI6
aa(lp2941
I6
aI6
aI10
aI4
aI4
aI6
aa(lp2942
I6
aI6
aI10
aI4
aI4
aI6
aa(lp2943
I6
aI6
aI10
aI4
aI4
aI6
aa(lp2944
I6
aI6
aI10
aI4
aI4
aI6
aa(lp2945
I6
aI6
aI10
aI4
aI4
aI6
aa(lp2946
I6
aI6
aI10
aI4
aI4
aI6
aa(lp2947
I6
aI6
aI10
aI4
aI4
aI6
aa(lp2948
I6
aI6
aI10
aI4
aI4
aI6
aa(lp2949
I6
aI6
aI10
aI4
aI4
aI6
aa(lp2950
I6
aI6
aI10
aI4
aI4
aI6
aa(lp2951
I6
aI6
aI10
aI4
aI4
aI6
aa(lp2952
I6
aI6
aI10
aI4
aI4
aI6
aa(lp2953
I6
aI6
aI10
aI4
aI4
aI6
aa(lp2954
I6
aI6
aI10
aI4
aI4
aI6
aa(lp2955
I6
aI6
aI10
aI4
aI4
aI6
aa(lp2956
I6
aI6
aI10
aI4
aI4
aI6
aa(lp2957
I6
aI6
aI10
aI4
aI4
aI6
aa(lp2958
I6
aI6
aI10
aI4
aI4
aI6
aa(lp2959
I6
aI6
aI10
aI4
aI4
aI6
aa(lp2960
I6
aI6
aI10
aI4
aI4
aI6
aa(lp2961
I6
aI6
aI10
aI4
aI4
aI6
aa(lp2962
I6
aI6
aI10
aI4
aI4
aI6
aa(lp2963
I6
aI6
aI10
aI4
aI4
aI6
aa(lp2964
I6
aI6
aI10
aI4
aI4
aI6
aa(lp2965
I6
aI6
aI10
aI4
aI4
aI6
aa(lp2966
I6
aI6
aI10
aI4
aI4
aI6
aa(lp2967
I6
aI6
aI10
aI4
aI4
aI6
aa(lp2968
I6
aI6
aI10
aI4
aI4
aI6
aa(lp2969
I6
aI6
aI10
aI4
aI4
aI6
aa(lp2970
I6
aI6
aI10
aI4
aI4
aI6
aa(lp2971
I6
aI6
aI10
aI4
aI4
aI6
aa(lp2972
I6
aI6
aI10
aI4
aI4
aI6
aa(lp2973
I6
aI6
aI10
aI4
aI4
aI6
aa(lp2974
I6
aI6
aI10
aI4
aI4
aI6
aa(lp2975
I6
aI6
aI10
aI4
aI4
aI6
aa(lp2976
I6
aI6
aI10
aI4
aI4
aI6
aa(lp2977
I6
aI6
aI10
aI4
aI4
aI6
aa(lp2978
I6
aI6
aI10
aI4
aI4
aI6
aa(lp2979
I6
aI6
aI10
aI4
aI4
aI6
aa(lp2980
I6
aI6
aI10
aI4
aI4
aI6
aa(lp2981
I6
aI6
aI10
aI4
aI4
aI6
aa(lp2982
I6
aI6
aI10
aI4
aI4
aI6
aa(lp2983
I6
aI6
aI10
aI4
aI4
aI6
aa(lp2984
I6
aI6
aI10
aI4
aI4
aI6
aa(lp2985
I6
aI6
aI10
aI4
aI4
aI6
aa(lp2986
I6
aI6
aI10
aI4
aI4
aI6
aa(lp2987
I6
aI6
aI10
aI4
aI4
aI6
aa(lp2988
I6
aI6
aI10
aI4
aI4
aI6
aa(lp2989
I6
aI6
aI10
aI4
aI4
aI6
aa(lp2990
I6
aI6
aI10
aI4
aI4
aI6
aa(lp2991
I6
aI6
aI10
aI4
aI4
aI6
aa(lp2992
I6
aI6
aI10
aI4
aI4
aI6
aa(lp2993
I6
aI6
aI10
aI4
aI4
aI6
aa(lp2994
I6
aI6
aI10
aI4
aI4
aI6
aa(lp2995
I6
aI6
aI10
aI4
aI4
aI6
aa(lp2996
I6
aI6
aI10
aI4
aI4
aI6
aa(lp2997
I6
aI6
aI10
aI4
aI4
aI6
aa(lp2998
I6
aI6
aI10
aI4
aI4
aI6
aa(lp2999
I6
aI6
aI10
aI4
aI4
aI6
aa(lp3000
I6
aI6
aI10
aI4
aI4
aI6
aa(lp3001
I6
aI6
aI10
aI4
aI4
aI6
aa(lp3002
I6
aI6
aI10
aI4
aI4
aI6
aa(lp3003
I6
aI6
aI10
aI4
aI4
aI6
aa(lp3004
I6
aI6
aI10
aI4
aI4
aI6
aa(lp3005
I6
aI6
aI10
aI4
aI4
aI6
aa(lp3006
I6
aI6
aI10
aI4
aI4
aI6
aa(lp3007
I6
aI6
aI10
aI4
aI4
aI6
aa(lp3008
I6
aI6
aI10
aI4
aI4
aI6
aa(lp3009
I6
aI6
aI10
aI4
aI4
aI6
aa(lp3010
I6
aI6
aI10
aI4
aI4
aI6
aa(lp3011
I6
aI6
aI10
aI4
aI4
aI6
aa(lp3012
I6
aI6
aI10
aI4
aI4
aI6
aa(lp3013
I6
aI6
aI10
aI4
aI4
aI6
aa(lp3014
I6
aI6
aI10
aI4
aI4
aI6
aa(lp3015
I6
aI6
aI10
aI4
aI4
aI6
aa(lp3016
I6
aI6
aI10
aI4
aI4
aI6
aa(lp3017
I6
aI6
aI10
aI4
aI4
aI6
aa(lp3018
I6
aI6
aI10
aI4
aI4
aI6
aa(lp3019
I6
aI6
aI10
aI4
aI4
aI6
aa(lp3020
I6
aI6
aI10
aI4
aI4
aI6
aa(lp3021
I6
aI6
aI10
aI4
aI4
aI6
aa(lp3022
I6
aI6
aI10
aI4
aI4
aI6
aa(lp3023
I6
aI6
aI10
aI4
aI4
aI6
aa(lp3024
I6
aI6
aI10
aI4
aI4
aI6
aa(lp3025
I6
aI6
aI10
aI4
aI4
aI6
aa(lp3026
I6
aI6
aI10
aI4
aI4
aI6
aa(lp3027
I6
aI6
aI10
aI4
aI4
aI6
aa(lp3028
I6
aI6
aI10
aI4
aI4
aI6
aa(lp3029
I6
aI6
aI10
aI4
aI4
aI6
aa(lp3030
I6
aI6
aI10
aI4
aI4
aI6
aa(lp3031
I6
aI6
aI10
aI4
aI4
aI6
aa(lp3032
I6
aI6
aI10
aI4
aI4
aI6
aa(lp3033
I6
aI6
aI10
aI4
aI4
aI6
aa(lp3034
I6
aI6
aI10
aI4
aI4
aI6
aa(lp3035
I6
aI6
aI10
aI4
aI4
aI6
aa(lp3036
I6
aI6
aI10
aI4
aI4
aI6
aa(lp3037
I6
aI6
aI10
aI4
aI4
aI6
aa(lp3038
I6
aI6
aI10
aI4
aI4
aI6
aa(lp3039
I6
aI6
aI10
aI4
aI4
aI6
aa(lp3040
I6
aI6
aI10
aI4
aI4
aI6
aa(lp3041
I6
aI6
aI10
aI4
aI4
aI6
aa(lp3042
I6
aI6
aI10
aI4
aI4
aI6
aa(lp3043
I6
aI6
aI10
aI4
aI4
aI6
aa(lp3044
I6
aI6
aI10
aI4
aI4
aI6
aa(lp3045
I6
aI6
aI10
aI4
aI4
aI6
aa(lp3046
I6
aI6
aI10
aI4
aI4
aI6
aa(lp3047
I6
aI6
aI10
aI4
aI4
aI6
aa(lp3048
I6
aI6
aI10
aI4
aI4
aI6
aa(lp3049
I6
aI6
aI10
aI4
aI4
aI6
aa(lp3050
I6
aI6
aI10
aI4
aI4
aI6
aa(lp3051
I6
aI6
aI10
aI4
aI4
aI6
aa(lp3052
I6
aI6
aI10
aI4
aI4
aI6
aa(lp3053
I6
aI6
aI10
aI4
aI4
aI6
aa(lp3054
I6
aI6
aI10
aI4
aI4
aI6
aa(lp3055
I6
aI6
aI10
aI4
aI4
aI6
aa(lp3056
I6
aI6
aI10
aI4
aI4
aI6
aa(lp3057
I6
aI6
aI10
aI4
aI4
aI6
aa(lp3058
I6
aI6
aI10
aI4
aI4
aI6
aa(lp3059
I6
aI6
aI10
aI4
aI4
aI6
aa(lp3060
I6
aI6
aI10
aI4
aI4
aI6
aa(lp3061
I6
aI6
aI10
aI4
aI4
aI6
aa(lp3062
I6
aI6
aI10
aI4
aI4
aI6
aa(lp3063
I6
aI6
aI10
aI4
aI4
aI6
aa(lp3064
I6
aI6
aI10
aI4
aI4
aI6
aa(lp3065
I6
aI6
aI10
aI4
aI4
aI6
aa(lp3066
I6
aI6
aI10
aI4
aI4
aI6
aa(lp3067
I6
aI6
aI10
aI4
aI4
aI6
aa(lp3068
I6
aI6
aI10
aI4
aI4
aI6
aa(lp3069
I6
aI6
aI10
aI4
aI4
aI6
aa(lp3070
I6
aI6
aI10
aI4
aI4
aI6
aa(lp3071
I6
aI6
aI10
aI4
aI4
aI6
aa(lp3072
I6
aI6
aI10
aI4
aI4
aI6
aa(lp3073
I6
aI6
aI10
aI4
aI4
aI6
aa(lp3074
I6
aI6
aI10
aI4
aI4
aI6
aa(lp3075
I6
aI6
aI10
aI4
aI4
aI6
aa(lp3076
I6
aI6
aI10
aI4
aI4
aI6
aa(lp3077
I6
aI6
aI10
aI4
aI4
aI6
aa(lp3078
I6
aI6
aI10
aI4
aI4
aI6
aa(lp3079
I6
aI6
aI10
aI4
aI4
aI6
aa(lp3080
I6
aI6
aI10
aI4
aI4
aI6
aa(lp3081
I6
aI6
aI10
aI4
aI4
aI6
aa(lp3082
I6
aI6
aI10
aI4
aI4
aI6
aa(lp3083
I6
aI6
aI10
aI4
aI4
aI6
aa(lp3084
I6
aI6
aI10
aI4
aI4
aI6
aa(lp3085
I6
aI6
aI10
aI4
aI4
aI6
aa(lp3086
I6
aI6
aI10
aI4
aI4
aI6
aa(lp3087
I6
aI6
aI10
aI4
aI4
aI6
aa(lp3088
I6
aI6
aI10
aI4
aI4
aI6
aa(lp3089
I6
aI6
aI10
aI4
aI4
aI6
aa(lp3090
I6
aI6
aI10
aI4
aI4
aI6
aa(lp3091
I6
aI6
aI10
aI4
aI4
aI6
aa(lp3092
I6
aI6
aI10
aI4
aI4
aI6
aa(lp3093
I6
aI6
aI10
aI4
aI4
aI6
aa(lp3094
I6
aI6
aI10
aI4
aI4
aI6
aa(lp3095
I6
aI6
aI10
aI4
aI4
aI6
aa(lp3096
I6
aI6
aI10
aI4
aI4
aI6
aa(lp3097
I6
aI6
aI10
aI4
aI4
aI6
aa(lp3098
I6
aI6
aI10
aI4
aI4
aI6
aa(lp3099
I6
aI6
aI10
aI4
aI4
aI6
aa(lp3100
I6
aI6
aI10
aI4
aI4
aI6
aa(lp3101
I6
aI6
aI10
aI4
aI4
aI6
aa(lp3102
I6
aI6
aI10
aI4
aI4
aI6
aa(lp3103
I6
aI6
aI10
aI4
aI4
aI6
aa(lp3104
I6
aI6
aI10
aI4
aI4
aI6
aa(lp3105
I6
aI6
aI10
aI4
aI4
aI6
aa(lp3106
I6
aI6
aI10
aI4
aI4
aI6
aa(lp3107
I6
aI6
aI10
aI4
aI4
aI6
aa(lp3108
I6
aI6
aI10
aI4
aI4
aI6
aa(lp3109
I6
aI6
aI10
aI4
aI4
aI6
aa(lp3110
I6
aI6
aI10
aI4
aI4
aI6
aa(lp3111
I6
aI6
aI10
aI4
aI4
aI6
aa(lp3112
I6
aI6
aI10
aI4
aI4
aI6
aa(lp3113
I6
aI6
aI10
aI4
aI4
aI6
aa(lp3114
I6
aI6
aI10
aI4
aI4
aI6
aa(lp3115
I6
aI6
aI10
aI4
aI4
aI6
aa(lp3116
I6
aI6
aI10
aI4
aI4
aI6
aa(lp3117
I6
aI6
aI10
aI4
aI4
aI6
aa(lp3118
I6
aI6
aI10
aI4
aI4
aI6
aa(lp3119
I6
aI6
aI10
aI4
aI4
aI6
aa(lp3120
I6
aI6
aI10
aI4
aI4
aI6
aa(lp3121
I6
aI6
aI10
aI4
aI4
aI6
aa(lp3122
I6
aI6
aI10
aI4
aI4
aI6
aa(lp3123
I6
aI6
aI10
aI4
aI4
aI6
aa(lp3124
I6
aI6
aI10
aI4
aI4
aI6
aa(lp3125
I6
aI6
aI10
aI4
aI4
aI6
aa(lp3126
I6
aI6
aI10
aI4
aI4
aI6
aa(lp3127
I6
aI6
aI10
aI4
aI4
aI6
aa(lp3128
I6
aI6
aI10
aI4
aI4
aI6
aa(lp3129
I6
aI6
aI10
aI4
aI4
aI6
aa(lp3130
I6
aI6
aI10
aI4
aI4
aI6
aa(lp3131
I6
aI6
aI10
aI4
aI4
aI6
aa(lp3132
I6
aI6
aI10
aI4
aI4
aI6
aa(lp3133
I6
aI6
aI10
aI4
aI4
aI6
aa(lp3134
I6
aI6
aI10
aI4
aI4
aI6
aa(lp3135
I6
aI6
aI10
aI4
aI4
aI6
aa(lp3136
I6
aI6
aI10
aI4
aI4
aI6
aa(lp3137
I6
aI6
aI10
aI4
aI4
aI6
aa(lp3138
I6
aI6
aI10
aI4
aI4
aI6
aa(lp3139
I6
aI6
aI10
aI4
aI4
aI6
aa(lp3140
I6
aI6
aI10
aI4
aI4
aI6
aa(lp3141
I6
aI6
aI10
aI4
aI4
aI6
aa(lp3142
I6
aI6
aI10
aI4
aI4
aI6
aa(lp3143
I6
aI6
aI10
aI4
aI4
aI6
aa(lp3144
I6
aI6
aI10
aI4
aI4
aI6
aa(lp3145
I6
aI6
aI10
aI4
aI4
aI6
aa(lp3146
I6
aI6
aI10
aI4
aI4
aI6
aa(lp3147
I6
aI6
aI10
aI4
aI4
aI6
aa(lp3148
I6
aI6
aI10
aI4
aI4
aI6
aa(lp3149
I6
aI6
aI10
aI4
aI4
aI6
aa(lp3150
I6
aI6
aI10
aI4
aI4
aI6
aa(lp3151
I6
aI6
aI10
aI4
aI4
aI6
aa(lp3152
I6
aI6
aI10
aI4
aI4
aI6
aa(lp3153
I6
aI6
aI10
aI4
aI4
aI6
aa(lp3154
I6
aI6
aI10
aI4
aI4
aI6
aa(lp3155
I6
aI6
aI10
aI4
aI4
aI6
aa(lp3156
I6
aI6
aI10
aI4
aI4
aI6
aa(lp3157
I6
aI6
aI10
aI4
aI4
aI6
aa(lp3158
I6
aI6
aI10
aI4
aI4
aI6
aa(lp3159
I6
aI6
aI10
aI4
aI4
aI6
aa(lp3160
I6
aI6
aI10
aI4
aI4
aI6
aa(lp3161
I6
aI6
aI10
aI4
aI4
aI6
aa(lp3162
I6
aI6
aI10
aI4
aI4
aI6
aa(lp3163
I6
aI6
aI10
aI4
aI4
aI6
aa(lp3164
I6
aI6
aI10
aI4
aI4
aI6
aa(lp3165
I6
aI6
aI10
aI4
aI4
aI6
aa(lp3166
I6
aI6
aI10
aI4
aI4
aI6
aa(lp3167
I6
aI6
aI10
aI4
aI4
aI6
aa(lp3168
I6
aI6
aI10
aI4
aI4
aI6
aa(lp3169
I6
aI6
aI10
aI4
aI4
aI6
aa(lp3170
I6
aI6
aI10
aI4
aI4
aI6
aa(lp3171
I6
aI6
aI10
aI4
aI4
aI6
aa(lp3172
I6
aI6
aI10
aI4
aI4
aI6
aa(lp3173
I6
aI6
aI10
aI4
aI4
aI6
aa(lp3174
I6
aI6
aI10
aI4
aI4
aI6
aa(lp3175
I6
aI6
aI10
aI4
aI4
aI6
aa(lp3176
I6
aI6
aI10
aI4
aI4
aI6
aa(lp3177
I6
aI6
aI10
aI4
aI4
aI6
aa(lp3178
I6
aI6
aI10
aI4
aI4
aI6
aa(lp3179
I6
aI6
aI10
aI4
aI4
aI6
aa(lp3180
I6
aI6
aI10
aI4
aI4
aI6
aa(lp3181
I6
aI6
aI10
aI4
aI4
aI6
aa(lp3182
I6
aI6
aI10
aI4
aI4
aI6
aa(lp3183
I6
aI6
aI10
aI4
aI4
aI6
aa(lp3184
I6
aI6
aI10
aI4
aI4
aI6
aa(lp3185
I6
aI6
aI10
aI4
aI4
aI6
aa(lp3186
I6
aI6
aI10
aI4
aI4
aI6
aa(lp3187
I6
aI6
aI10
aI4
aI4
aI6
aa(lp3188
I6
aI6
aI10
aI4
aI4
aI6
aa(lp3189
I6
aI6
aI10
aI4
aI4
aI6
aa(lp3190
I6
aI6
aI10
aI4
aI4
aI6
aa(lp3191
I6
aI6
aI10
aI4
aI4
aI6
aa(lp3192
I6
aI6
aI10
aI4
aI4
aI6
aa(lp3193
I6
aI6
aI10
aI4
aI4
aI6
aa(lp3194
I6
aI6
aI10
aI4
aI4
aI6
aa(lp3195
I6
aI6
aI10
aI4
aI4
aI6
aa(lp3196
I6
aI6
aI10
aI4
aI4
aI6
aa(lp3197
I6
aI6
aI10
aI4
aI4
aI6
aa(lp3198
I6
aI6
aI10
aI4
aI4
aI6
aa(lp3199
I6
aI6
aI10
aI4
aI4
aI6
aa(lp3200
I6
aI6
aI10
aI4
aI4
aI6
aa(lp3201
I6
aI6
aI10
aI4
aI4
aI6
aa(lp3202
I6
aI6
aI10
aI4
aI4
aI6
aa(lp3203
I6
aI6
aI10
aI4
aI4
aI6
aa(lp3204
I6
aI6
aI10
aI4
aI4
aI6
aa(lp3205
I6
aI6
aI10
aI4
aI4
aI6
aa(lp3206
I6
aI6
aI10
aI4
aI4
aI6
aa(lp3207
I6
aI6
aI10
aI4
aI4
aI6
aa(lp3208
I6
aI6
aI10
aI4
aI4
aI6
aa(lp3209
I6
aI6
aI10
aI4
aI4
aI6
aa(lp3210
I6
aI6
aI10
aI4
aI4
aI6
aa(lp3211
I6
aI6
aI10
aI4
aI4
aI6
aa(lp3212
I6
aI6
aI10
aI4
aI4
aI6
aa(lp3213
I6
aI6
aI10
aI4
aI4
aI6
aa(lp3214
I6
aI6
aI10
aI4
aI4
aI6
aa(lp3215
I6
aI6
aI10
aI4
aI4
aI6
aa(lp3216
I6
aI6
aI10
aI4
aI4
aI6
aa(lp3217
I6
aI6
aI10
aI4
aI4
aI6
aa(lp3218
I6
aI6
aI10
aI4
aI4
aI6
aa(lp3219
I6
aI6
aI10
aI4
aI4
aI6
aa(lp3220
I6
aI6
aI10
aI4
aI4
aI6
aa(lp3221
I6
aI6
aI10
aI4
aI4
aI6
aa(lp3222
I6
aI6
aI10
aI4
aI4
aI6
aa(lp3223
I6
aI6
aI10
aI4
aI4
aI6
aa(lp3224
I6
aI6
aI10
aI4
aI4
aI6
aa(lp3225
I6
aI6
aI10
aI4
aI4
aI6
aa(lp3226
I6
aI6
aI10
aI4
aI4
aI6
aa(lp3227
I6
aI6
aI10
aI4
aI4
aI6
aa(lp3228
I6
aI6
aI10
aI4
aI4
aI6
aa(lp3229
I6
aI6
aI10
aI4
aI4
aI6
aa(lp3230
I6
aI6
aI10
aI4
aI4
aI6
aa(lp3231
I6
aI6
aI10
aI4
aI4
aI6
aa(lp3232
I6
aI6
aI10
aI4
aI4
aI6
aa(lp3233
I6
aI6
aI10
aI4
aI4
aI6
aa(lp3234
I6
aI6
aI10
aI4
aI4
aI6
aa(lp3235
I6
aI6
aI10
aI4
aI4
aI6
aa(lp3236
I6
aI6
aI10
aI4
aI4
aI6
aa(lp3237
I6
aI6
aI10
aI4
aI4
aI6
aa(lp3238
I6
aI6
aI10
aI4
aI4
aI6
aa(lp3239
I6
aI6
aI10
aI4
aI4
aI6
aa(lp3240
I6
aI6
aI10
aI4
aI4
aI6
aa(lp3241
I6
aI6
aI10
aI4
aI4
aI6
aa(lp3242
I6
aI6
aI10
aI4
aI4
aI6
aa(lp3243
I6
aI6
aI10
aI4
aI4
aI6
aa(lp3244
I6
aI6
aI10
aI4
aI4
aI6
aa(lp3245
I6
aI6
aI10
aI4
aI4
aI6
aa(lp3246
I6
aI6
aI10
aI4
aI4
aI6
aa(lp3247
I6
aI6
aI10
aI4
aI4
aI6
aa(lp3248
I6
aI6
aI10
aI4
aI4
aI6
aa(lp3249
I6
aI6
aI10
aI4
aI4
aI6
aa(lp3250
I6
aI6
aI10
aI4
aI4
aI6
aa(lp3251
I6
aI6
aI10
aI4
aI4
aI6
aa(lp3252
I6
aI6
aI10
aI4
aI4
aI6
aa(lp3253
I6
aI6
aI10
aI4
aI4
aI6
aa(lp3254
I6
aI6
aI10
aI4
aI4
aI6
aa(lp3255
I6
aI6
aI10
aI4
aI4
aI6
aa(lp3256
I6
aI6
aI10
aI4
aI4
aI6
aa(lp3257
I6
aI6
aI10
aI4
aI4
aI6
aa(lp3258
I6
aI6
aI10
aI4
aI4
aI6
aa(lp3259
I6
aI6
aI10
aI4
aI4
aI6
aa(lp3260
I6
aI6
aI10
aI4
aI4
aI6
aa(lp3261
I6
aI6
aI10
aI4
aI4
aI6
aa(lp3262
I6
aI6
aI10
aI4
aI4
aI6
aa(lp3263
I6
aI6
aI10
aI4
aI4
aI6
aa(lp3264
I6
aI6
aI10
aI4
aI4
aI6
aa(lp3265
I6
aI6
aI10
aI4
aI4
aI6
aa(lp3266
I6
aI6
aI10
aI4
aI4
aI6
aa(lp3267
I6
aI6
aI10
aI4
aI4
aI6
aa(lp3268
I6
aI6
aI10
aI4
aI4
aI6
aa(lp3269
I6
aI6
aI10
aI4
aI4
aI6
aa(lp3270
I6
aI6
aI10
aI4
aI4
aI6
aa(lp3271
I6
aI6
aI10
aI4
aI4
aI6
aa(lp3272
I6
aI6
aI10
aI4
aI4
aI6
aa(lp3273
I6
aI6
aI10
aI4
aI4
aI6
aa(lp3274
I6
aI6
aI10
aI4
aI4
aI6
aa(lp3275
I6
aI6
aI10
aI4
aI4
aI6
aa(lp3276
I6
aI6
aI10
aI4
aI4
aI6
aa(lp3277
I6
aI6
aI10
aI4
aI4
aI6
aa(lp3278
I6
aI6
aI10
aI4
aI4
aI6
aa(lp3279
I6
aI6
aI10
aI4
aI4
aI6
aa(lp3280
I6
aI6
aI10
aI4
aI4
aI6
aa(lp3281
I6
aI6
aI10
aI4
aI4
aI6
aa(lp3282
I6
aI6
aI10
aI4
aI4
aI6
aa(lp3283
I6
aI6
aI10
aI4
aI4
aI6
aa(lp3284
I6
aI6
aI10
aI4
aI4
aI6
aa(lp3285
I6
aI6
aI10
aI4
aI4
aI6
aa(lp3286
I6
aI6
aI10
aI4
aI4
aI6
aa(lp3287
I6
aI6
aI10
aI4
aI4
aI6
aa(lp3288
I6
aI6
aI10
aI4
aI4
aI6
aa(lp3289
I6
aI6
aI10
aI4
aI4
aI6
aa(lp3290
I6
aI6
aI10
aI4
aI4
aI6
aa(lp3291
I6
aI6
aI10
aI4
aI4
aI6
aa(lp3292
I6
aI6
aI10
aI4
aI4
aI6
aa(lp3293
I6
aI6
aI10
aI4
aI4
aI6
aa(lp3294
I6
aI6
aI10
aI4
aI4
aI6
aa(lp3295
I6
aI6
aI10
aI4
aI4
aI6
aa(lp3296
I6
aI6
aI10
aI4
aI4
aI6
aa(lp3297
I6
aI6
aI10
aI4
aI4
aI6
aa(lp3298
I6
aI6
aI10
aI4
aI4
aI6
aa(lp3299
I6
aI6
aI10
aI4
aI4
aI6
aa(lp3300
I6
aI6
aI10
aI4
aI4
aI6
aa(lp3301
I6
aI6
aI10
aI4
aI4
aI6
aa(lp3302
I6
aI6
aI10
aI4
aI4
aI6
aa(lp3303
I6
aI6
aI10
aI4
aI4
aI6
aa(lp3304
I6
aI6
aI10
aI4
aI4
aI6
aa(lp3305
I6
aI6
aI10
aI4
aI4
aI6
aa(lp3306
I6
aI6
aI10
aI4
aI4
aI6
aa(lp3307
I6
aI6
aI10
aI4
aI4
aI6
aa(lp3308
I6
aI6
aI10
aI4
aI4
aI6
aa(lp3309
I6
aI6
aI10
aI4
aI4
aI6
aa(lp3310
I6
aI6
aI10
aI4
aI4
aI6
aa(lp3311
I6
aI6
aI10
aI4
aI4
aI6
aa(lp3312
I6
aI6
aI10
aI4
aI4
aI6
aa(lp3313
I6
aI6
aI10
aI4
aI4
aI6
aa(lp3314
I6
aI6
aI10
aI4
aI4
aI6
aa(lp3315
I6
aI6
aI10
aI4
aI4
aI6
aa(lp3316
I6
aI6
aI10
aI4
aI4
aI6
aa(lp3317
I6
aI6
aI10
aI4
aI4
aI6
aa(lp3318
I6
aI6
aI10
aI4
aI4
aI6
aa(lp3319
I6
aI6
aI10
aI4
aI4
aI6
aa(lp3320
I6
aI6
aI10
aI4
aI4
aI6
aa(lp3321
I6
aI6
aI10
aI4
aI4
aI6
aa(lp3322
I6
aI6
aI10
aI4
aI4
aI6
aa(lp3323
I6
aI6
aI10
aI4
aI4
aI6
aa(lp3324
I6
aI6
aI10
aI4
aI4
aI6
aa(lp3325
I6
aI6
aI10
aI4
aI4
aI6
aa(lp3326
I6
aI6
aI10
aI4
aI4
aI6
aa(lp3327
I6
aI6
aI10
aI4
aI4
aI6
aa(lp3328
I6
aI6
aI10
aI4
aI4
aI6
aa(lp3329
I6
aI6
aI10
aI4
aI4
aI6
aa(lp3330
I6
aI6
aI10
aI4
aI4
aI6
aa(lp3331
I6
aI6
aI10
aI4
aI4
aI6
aa(lp3332
I6
aI6
aI10
aI4
aI4
aI6
aa(lp3333
I6
aI6
aI10
aI4
aI4
aI6
aa(lp3334
I6
aI6
aI10
aI4
aI4
aI6
aa(lp3335
I6
aI6
aI10
aI4
aI4
aI6
aa(lp3336
I6
aI6
aI10
aI4
aI4
aI6
aa(lp3337
I6
aI6
aI10
aI4
aI4
aI6
aa(lp3338
I6
aI6
aI10
aI4
aI4
aI6
aa(lp3339
I6
aI6
aI10
aI4
aI4
aI6
aa(lp3340
I6
aI6
aI10
aI4
aI4
aI6
aa(lp3341
I6
aI6
aI10
aI4
aI4
aI6
aa(lp3342
I6
aI6
aI10
aI4
aI4
aI6
aa(lp3343
I6
aI6
aI10
aI4
aI4
aI6
aa(lp3344
I6
aI6
aI10
aI4
aI4
aI6
aa(lp3345
I6
aI6
aI10
aI4
aI4
aI6
aa(lp3346
I6
aI6
aI10
aI4
aI4
aI6
aa(lp3347
I6
aI6
aI10
aI4
aI4
aI6
aa(lp3348
I6
aI6
aI10
aI4
aI4
aI6
aa(lp3349
I6
aI6
aI10
aI4
aI4
aI6
aa(lp3350
I6
aI6
aI10
aI4
aI4
aI6
aa(lp3351
I6
aI6
aI10
aI4
aI4
aI6
aa(lp3352
I6
aI6
aI10
aI4
aI4
aI6
aa(lp3353
I6
aI6
aI10
aI4
aI4
aI6
aa(lp3354
I6
aI6
aI10
aI4
aI4
aI6
aa(lp3355
I6
aI6
aI10
aI4
aI4
aI6
aa(lp3356
I6
aI6
aI10
aI4
aI4
aI6
aa(lp3357
I6
aI6
aI10
aI4
aI4
aI6
aa(lp3358
I6
aI6
aI10
aI4
aI4
aI6
aa(lp3359
I6
aI6
aI10
aI4
aI4
aI6
aa(lp3360
I6
aI6
aI10
aI4
aI4
aI6
aa(lp3361
I6
aI6
aI10
aI4
aI4
aI6
aa(lp3362
I6
aI6
aI10
aI4
aI4
aI6
aa(lp3363
I6
aI6
aI10
aI4
aI4
aI6
aa(lp3364
I6
aI6
aI10
aI4
aI4
aI6
aa(lp3365
I6
aI6
aI10
aI4
aI4
aI6
aa(lp3366
I6
aI6
aI10
aI4
aI4
aI6
aa(lp3367
I6
aI6
aI10
aI4
aI4
aI6
aa(lp3368
I6
aI6
aI10
aI4
aI4
aI6
aa(lp3369
I6
aI6
aI10
aI4
aI4
aI6
aa(lp3370
I6
aI6
aI10
aI4
aI4
aI6
aa(lp3371
I6
aI6
aI10
aI4
aI4
aI6
aa(lp3372
I6
aI6
aI10
aI4
aI4
aI6
aa(lp3373
I6
aI6
aI10
aI4
aI4
aI6
aa(lp3374
I6
aI6
aI10
aI4
aI4
aI6
aa(lp3375
I6
aI6
aI10
aI4
aI4
aI6
aa(lp3376
I6
aI6
aI10
aI4
aI4
aI6
aa(lp3377
I6
aI6
aI10
aI4
aI4
aI6
aa(lp3378
I6
aI6
aI10
aI4
aI4
aI6
aa(lp3379
I6
aI6
aI10
aI4
aI4
aI6
aa(lp3380
I6
aI6
aI10
aI4
aI4
aI6
aa(lp3381
I6
aI6
aI10
aI4
aI4
aI6
aa(lp3382
I6
aI6
aI10
aI4
aI4
aI6
aa(lp3383
I6
aI6
aI10
aI4
aI4
aI6
aa(lp3384
I6
aI6
aI10
aI4
aI4
aI6
aa(lp3385
I6
aI6
aI10
aI4
aI4
aI6
aa(lp3386
I6
aI6
aI10
aI4
aI4
aI6
aa(lp3387
I6
aI6
aI10
aI4
aI4
aI6
aa(lp3388
I6
aI6
aI10
aI4
aI4
aI6
aa(lp3389
I6
aI6
aI10
aI4
aI4
aI6
aa(lp3390
I6
aI6
aI10
aI4
aI4
aI6
aa(lp3391
I6
aI6
aI10
aI4
aI4
aI6
aa(lp3392
I6
aI6
aI10
aI4
aI4
aI6
aa(lp3393
I6
aI6
aI10
aI4
aI4
aI6
aa(lp3394
I6
aI6
aI10
aI4
aI4
aI6
aa(lp3395
I6
aI6
aI10
aI4
aI4
aI6
aa(lp3396
I6
aI6
aI10
aI4
aI4
aI6
aa(lp3397
I6
aI6
aI10
aI4
aI4
aI6
aa(lp3398
I6
aI6
aI10
aI4
aI4
aI6
aa(lp3399
I6
aI6
aI10
aI4
aI4
aI6
aa(lp3400
I6
aI6
aI10
aI4
aI4
aI6
aa(lp3401
I6
aI6
aI10
aI4
aI4
aI6
aa(lp3402
I6
aI6
aI10
aI4
aI4
aI6
aa(lp3403
I6
aI6
aI10
aI4
aI4
aI6
aa(lp3404
I6
aI6
aI10
aI4
aI4
aI6
aa(lp3405
I6
aI6
aI10
aI4
aI4
aI6
aa(lp3406
I6
aI6
aI10
aI4
aI4
aI6
aa(lp3407
I6
aI6
aI10
aI4
aI4
aI6
aa(lp3408
I6
aI6
aI10
aI4
aI4
aI6
aa(lp3409
I6
aI6
aI10
aI4
aI4
aI6
aa(lp3410
I6
aI6
aI10
aI4
aI4
aI6
aa(lp3411
I6
aI6
aI10
aI4
aI4
aI6
aa(lp3412
I6
aI6
aI10
aI4
aI4
aI6
aa(lp3413
I6
aI6
aI10
aI4
aI4
aI6
aa(lp3414
I6
aI6
aI10
aI4
aI4
aI6
aa(lp3415
I6
aI6
aI10
aI4
aI4
aI6
aa(lp3416
I6
aI6
aI10
aI4
aI4
aI6
aa(lp3417
I6
aI6
aI10
aI4
aI4
aI6
aa(lp3418
I6
aI6
aI10
aI4
aI4
aI6
aa(lp3419
I6
aI6
aI10
aI4
aI4
aI6
aa(lp3420
I6
aI6
aI10
aI4
aI4
aI6
aa(lp3421
I6
aI6
aI10
aI4
aI4
aI6
aa(lp3422
I6
aI6
aI10
aI4
aI4
aI6
aa(lp3423
I6
aI6
aI10
aI4
aI4
aI6
aa(lp3424
I6
aI6
aI10
aI4
aI4
aI6
aa(lp3425
I6
aI6
aI10
aI4
aI4
aI6
aa(lp3426
I6
aI6
aI10
aI4
aI4
aI6
aa(lp3427
I6
aI6
aI10
aI4
aI4
aI6
aa(lp3428
I6
aI6
aI10
aI4
aI4
aI6
aa(lp3429
I6
aI6
aI10
aI4
aI4
aI6
aa(lp3430
I6
aI6
aI10
aI4
aI4
aI6
aa(lp3431
I6
aI6
aI10
aI4
aI4
aI6
aa(lp3432
I6
aI6
aI10
aI4
aI4
aI6
aa(lp3433
I6
aI6
aI10
aI4
aI4
aI6
aa(lp3434
I6
aI6
aI10
aI4
aI4
aI6
aa(lp3435
I6
aI6
aI10
aI4
aI4
aI6
aa(lp3436
I6
aI6
aI10
aI4
aI4
aI6
aa(lp3437
I6
aI6
aI10
aI4
aI4
aI6
aa(lp3438
I6
aI6
aI10
aI4
aI4
aI6
aa(lp3439
I6
aI6
aI10
aI4
aI4
aI6
aa(lp3440
I6
aI6
aI10
aI4
aI4
aI6
aa(lp3441
I6
aI6
aI10
aI4
aI4
aI6
aa(lp3442
I6
aI6
aI10
aI4
aI4
aI6
aa(lp3443
I6
aI6
aI10
aI4
aI4
aI6
aa(lp3444
I6
aI6
aI10
aI4
aI4
aI6
aa(lp3445
I6
aI6
aI10
aI4
aI4
aI6
aa(lp3446
I6
aI6
aI10
aI4
aI4
aI6
aa(lp3447
I6
aI6
aI10
aI4
aI4
aI6
aa(lp3448
I6
aI6
aI10
aI4
aI4
aI6
aa(lp3449
I6
aI6
aI10
aI4
aI4
aI6
aa(lp3450
I6
aI6
aI10
aI4
aI4
aI6
aa(lp3451
I6
aI6
aI10
aI4
aI4
aI6
aa(lp3452
I6
aI6
aI10
aI4
aI4
aI6
aa(lp3453
I6
aI6
aI10
aI4
aI4
aI6
aa(lp3454
I6
aI6
aI10
aI4
aI4
aI6
aa(lp3455
I6
aI6
aI10
aI4
aI4
aI6
aa(lp3456
I6
aI6
aI10
aI4
aI4
aI6
aa(lp3457
I6
aI6
aI10
aI4
aI4
aI6
aa(lp3458
I6
aI6
aI10
aI4
aI4
aI6
aa(lp3459
I6
aI6
aI10
aI4
aI4
aI6
aa(lp3460
I6
aI6
aI10
aI4
aI4
aI6
aa(lp3461
I6
aI6
aI10
aI4
aI4
aI6
aa(lp3462
I6
aI6
aI10
aI4
aI4
aI6
aa(lp3463
I6
aI6
aI10
aI4
aI4
aI6
aa(lp3464
I6
aI6
aI10
aI4
aI4
aI6
aa(lp3465
I6
aI6
aI10
aI4
aI4
aI6
aa(lp3466
I6
aI6
aI10
aI4
aI4
aI6
aa(lp3467
I6
aI6
aI10
aI4
aI4
aI6
aa(lp3468
I6
aI6
aI10
aI4
aI4
aI6
aa(lp3469
I6
aI6
aI10
aI4
aI4
aI6
aa(lp3470
I6
aI6
aI10
aI4
aI4
aI6
aa(lp3471
I6
aI6
aI10
aI4
aI4
aI6
aa(lp3472
I6
aI6
aI10
aI4
aI4
aI6
aa(lp3473
I6
aI6
aI10
aI4
aI4
aI6
aa(lp3474
I6
aI6
aI10
aI4
aI4
aI6
aa(lp3475
I6
aI6
aI10
aI4
aI4
aI6
aa(lp3476
I6
aI6
aI10
aI4
aI4
aI6
aa(lp3477
I6
aI6
aI10
aI4
aI4
aI6
aa(lp3478
I6
aI6
aI10
aI4
aI4
aI6
aa(lp3479
I6
aI6
aI10
aI4
aI4
aI6
aa(lp3480
I6
aI6
aI10
aI4
aI4
aI6
aa(lp3481
I6
aI6
aI10
aI4
aI4
aI6
aa(lp3482
I6
aI6
aI10
aI4
aI4
aI6
aa(lp3483
I6
aI6
aI10
aI4
aI4
aI6
aa(lp3484
I6
aI6
aI10
aI4
aI4
aI6
aa(lp3485
I6
aI6
aI10
aI4
aI4
aI6
aa(lp3486
I6
aI6
aI10
aI4
aI4
aI6
aa(lp3487
I6
aI6
aI10
aI4
aI4
aI6
aa(lp3488
I6
aI6
aI10
aI4
aI4
aI6
aa(lp3489
I6
aI6
aI10
aI4
aI4
aI6
aa(lp3490
I6
aI6
aI10
aI4
aI4
aI6
aa(lp3491
I6
aI6
aI10
aI4
aI4
aI6
aa(lp3492
I6
aI6
aI10
aI4
aI4
aI6
aa(lp3493
I6
aI6
aI10
aI4
aI4
aI6
aa(lp3494
I6
aI6
aI10
aI4
aI4
aI6
aa(lp3495
I6
aI6
aI10
aI4
aI4
aI6
aa(lp3496
I6
aI6
aI10
aI4
aI4
aI6
aa(lp3497
I6
aI6
aI10
aI4
aI4
aI6
aa(lp3498
I6
aI6
aI10
aI4
aI4
aI6
aa(lp3499
I6
aI6
aI10
aI4
aI4
aI6
aa(lp3500
I6
aI6
aI10
aI4
aI4
aI6
aa(lp3501
I6
aI6
aI10
aI4
aI4
aI6
aa(lp3502
I6
aI6
aI10
aI4
aI4
aI6
aa(lp3503
I6
aI6
aI10
aI4
aI4
aI6
aa(lp3504
I6
aI6
aI10
aI4
aI4
aI6
aa(lp3505
I6
aI6
aI10
aI4
aI4
aI6
aa(lp3506
I6
aI6
aI10
aI4
aI4
aI6
aa(lp3507
I6
aI6
aI10
aI4
aI4
aI6
aa(lp3508
I6
aI6
aI10
aI4
aI4
aI6
aa(lp3509
I6
aI6
aI10
aI4
aI4
aI6
aa(lp3510
I6
aI6
aI10
aI4
aI4
aI6
aa(lp3511
I6
aI6
aI10
aI4
aI4
aI6
aa(lp3512
I6
aI6
aI10
aI4
aI4
aI6
aa(lp3513
I6
aI6
aI10
aI4
aI4
aI6
aa(lp3514
I6
aI6
aI10
aI4
aI4
aI6
aa(lp3515
I6
aI6
aI10
aI4
aI4
aI6
aa(lp3516
I6
aI6
aI10
aI4
aI4
aI6
aa(lp3517
I6
aI6
aI10
aI4
aI4
aI6
aa(lp3518
I6
aI6
aI10
aI4
aI4
aI6
aa(lp3519
I6
aI6
aI10
aI4
aI4
aI6
aa(lp3520
I6
aI6
aI10
aI4
aI4
aI6
aa(lp3521
I6
aI6
aI10
aI4
aI4
aI6
aa(lp3522
I6
aI6
aI10
aI4
aI4
aI6
aa(lp3523
I6
aI6
aI10
aI4
aI4
aI6
aa(lp3524
I6
aI6
aI10
aI4
aI4
aI6
aa(lp3525
I6
aI6
aI10
aI4
aI4
aI6
aa(lp3526
I6
aI6
aI10
aI4
aI4
aI6
aa(lp3527
I6
aI6
aI10
aI4
aI4
aI6
aa(lp3528
I6
aI6
aI10
aI4
aI4
aI6
aa(lp3529
I6
aI6
aI10
aI4
aI4
aI6
aa(lp3530
I6
aI6
aI10
aI4
aI4
aI6
aa(lp3531
I6
aI6
aI10
aI4
aI4
aI6
aa(lp3532
I6
aI6
aI10
aI4
aI4
aI6
aa(lp3533
I6
aI6
aI10
aI4
aI4
aI6
aa(lp3534
I6
aI6
aI10
aI4
aI4
aI6
aa(lp3535
I6
aI6
aI10
aI4
aI4
aI6
aa(lp3536
I6
aI6
aI10
aI4
aI4
aI6
aa(lp3537
I6
aI6
aI10
aI4
aI4
aI6
aa(lp3538
I6
aI6
aI10
aI4
aI4
aI6
aa(lp3539
I6
aI6
aI10
aI4
aI4
aI6
aa(lp3540
I6
aI6
aI10
aI4
aI4
aI6
aa(lp3541
I6
aI6
aI10
aI4
aI4
aI6
aa(lp3542
I6
aI6
aI10
aI4
aI4
aI6
aa(lp3543
I6
aI6
aI10
aI4
aI4
aI6
aa(lp3544
I6
aI6
aI10
aI4
aI4
aI6
aa(lp3545
I6
aI6
aI10
aI4
aI4
aI6
aa(lp3546
I6
aI6
aI10
aI4
aI4
aI6
aa(lp3547
I6
aI6
aI10
aI4
aI4
aI6
aa(lp3548
I6
aI6
aI10
aI4
aI4
aI6
aa(lp3549
I6
aI6
aI10
aI4
aI4
aI6
aa(lp3550
I6
aI6
aI10
aI4
aI4
aI6
aa(lp3551
I6
aI6
aI10
aI4
aI4
aI6
aa(lp3552
I6
aI6
aI10
aI4
aI4
aI6
aa(lp3553
I6
aI6
aI10
aI4
aI4
aI6
aa(lp3554
I6
aI6
aI10
aI4
aI4
aI6
aa(lp3555
I6
aI6
aI10
aI4
aI4
aI6
aa(lp3556
I6
aI6
aI10
aI4
aI4
aI6
aa(lp3557
I6
aI6
aI10
aI4
aI4
aI6
aa(lp3558
I6
aI6
aI10
aI4
aI4
aI6
aa(lp3559
I6
aI6
aI10
aI4
aI4
aI6
aa(lp3560
I6
aI6
aI10
aI4
aI4
aI6
aa(lp3561
I6
aI6
aI10
aI4
aI4
aI6
aa(lp3562
I6
aI6
aI10
aI4
aI4
aI6
aa(lp3563
I6
aI6
aI10
aI4
aI4
aI6
aa(lp3564
I6
aI6
aI10
aI4
aI4
aI6
aa(lp3565
I6
aI6
aI10
aI4
aI4
aI6
aa(lp3566
I6
aI6
aI10
aI4
aI4
aI6
aa(lp3567
I6
aI6
aI10
aI4
aI4
aI6
aa(lp3568
I6
aI6
aI10
aI4
aI4
aI6
aa(lp3569
I6
aI6
aI10
aI4
aI4
aI6
aa(lp3570
I6
aI6
aI10
aI4
aI4
aI6
aa(lp3571
I6
aI6
aI10
aI4
aI4
aI6
aa(lp3572
I6
aI6
aI10
aI4
aI4
aI6
aa(lp3573
I6
aI6
aI10
aI4
aI4
aI6
aa(lp3574
I6
aI6
aI10
aI4
aI4
aI6
aa(lp3575
I6
aI6
aI10
aI4
aI4
aI6
aa(lp3576
I6
aI6
aI10
aI4
aI4
aI6
aa(lp3577
I6
aI6
aI10
aI4
aI4
aI6
aa(lp3578
I6
aI6
aI10
aI4
aI4
aI6
aa(lp3579
I6
aI6
aI10
aI4
aI4
aI6
aa(lp3580
I6
aI6
aI10
aI4
aI4
aI6
aa(lp3581
I6
aI6
aI10
aI4
aI4
aI6
aa(lp3582
I6
aI6
aI10
aI4
aI4
aI6
aa(lp3583
I6
aI6
aI10
aI4
aI4
aI6
aa(lp3584
I6
aI6
aI10
aI4
aI4
aI6
aa(lp3585
I6
aI6
aI10
aI4
aI4
aI6
aa(lp3586
I6
aI6
aI10
aI4
aI4
aI6
aa(lp3587
I6
aI6
aI10
aI4
aI4
aI6
aa(lp3588
I6
aI6
aI10
aI4
aI4
aI6
aa(lp3589
I6
aI6
aI10
aI4
aI4
aI6
aa(lp3590
I6
aI6
aI10
aI4
aI4
aI6
aa(lp3591
I6
aI6
aI10
aI4
aI4
aI6
aa(lp3592
I6
aI6
aI10
aI4
aI4
aI6
aa(lp3593
I6
aI6
aI10
aI4
aI4
aI6
aa(lp3594
I6
aI6
aI10
aI4
aI4
aI6
aa(lp3595
I6
aI6
aI10
aI4
aI4
aI6
aa(lp3596
I6
aI6
aI10
aI4
aI4
aI6
aa(lp3597
I6
aI6
aI10
aI4
aI4
aI6
aa(lp3598
I6
aI6
aI10
aI4
aI4
aI6
aa(lp3599
I6
aI6
aI10
aI4
aI4
aI6
aa(lp3600
I6
aI6
aI10
aI4
aI4
aI6
aa(lp3601
I6
aI6
aI10
aI4
aI4
aI6
aa(lp3602
I6
aI6
aI10
aI4
aI4
aI6
aa(lp3603
I6
aI6
aI10
aI4
aI4
aI6
aa(lp3604
I6
aI6
aI10
aI4
aI4
aI6
aa(lp3605
I6
aI6
aI10
aI4
aI4
aI6
aa(lp3606
I6
aI6
aI10
aI4
aI4
aI6
aa(lp3607
I6
aI6
aI10
aI4
aI4
aI6
aa(lp3608
I6
aI6
aI10
aI4
aI4
aI6
aa(lp3609
I6
aI6
aI10
aI4
aI4
aI6
aa(lp3610
I6
aI6
aI10
aI4
aI4
aI6
aa(lp3611
I6
aI6
aI10
aI4
aI4
aI6
aa(lp3612
I6
aI6
aI10
aI4
aI4
aI6
aa(lp3613
I6
aI6
aI10
aI4
aI4
aI6
aa(lp3614
I6
aI6
aI10
aI4
aI4
aI6
aa(lp3615
I6
aI6
aI10
aI4
aI4
aI6
aa(lp3616
I6
aI6
aI10
aI4
aI4
aI6
aa(lp3617
I6
aI6
aI10
aI4
aI4
aI6
aa(lp3618
I6
aI6
aI10
aI4
aI4
aI6
aa(lp3619
I6
aI6
aI10
aI4
aI4
aI6
aa(lp3620
I6
aI6
aI10
aI4
aI4
aI6
aa(lp3621
I6
aI6
aI10
aI4
aI4
aI6
aa(lp3622
I6
aI6
aI10
aI4
aI4
aI6
aa(lp3623
I6
aI6
aI10
aI4
aI4
aI6
aa(lp3624
I6
aI6
aI10
aI4
aI4
aI6
aa(lp3625
I6
aI6
aI10
aI4
aI4
aI6
aa(lp3626
I6
aI6
aI10
aI4
aI4
aI6
aa(lp3627
I6
aI6
aI10
aI4
aI4
aI6
aa(lp3628
I6
aI6
aI10
aI4
aI4
aI6
aa(lp3629
I6
aI6
aI10
aI4
aI4
aI6
aa(lp3630
I6
aI6
aI10
aI4
aI4
aI6
aa(lp3631
I6
aI6
aI10
aI4
aI4
aI6
aa(lp3632
I6
aI6
aI10
aI4
aI4
aI6
aa(lp3633
I6
aI6
aI10
aI4
aI4
aI6
aa(lp3634
I6
aI6
aI10
aI4
aI4
aI6
aa(lp3635
I6
aI6
aI10
aI4
aI4
aI6
aa(lp3636
I6
aI6
aI10
aI4
aI4
aI6
aa(lp3637
I6
aI6
aI10
aI4
aI4
aI6
aa(lp3638
I6
aI6
aI10
aI4
aI4
aI6
aa(lp3639
I6
aI6
aI10
aI4
aI4
aI6
aa(lp3640
I6
aI6
aI10
aI4
aI4
aI6
aa(lp3641
I6
aI6
aI10
aI4
aI4
aI6
aa(lp3642
I6
aI6
aI10
aI4
aI4
aI6
aa(lp3643
I6
aI6
aI10
aI4
aI4
aI6
aa(lp3644
I6
aI6
aI10
aI4
aI4
aI6
aa(lp3645
I6
aI6
aI10
aI4
aI4
aI6
aa(lp3646
I6
aI6
aI10
aI4
aI4
aI6
aa(lp3647
I6
aI6
aI10
aI4
aI4
aI6
aa(lp3648
I6
aI6
aI10
aI4
aI4
aI6
aa(lp3649
I6
aI6
aI10
aI4
aI4
aI6
aa(lp3650
I6
aI6
aI10
aI4
aI4
aI6
aa(lp3651
I6
aI6
aI10
aI4
aI4
aI6
aa(lp3652
I6
aI6
aI10
aI4
aI4
aI6
aa(lp3653
I6
aI6
aI10
aI4
aI4
aI6
aa(lp3654
I6
aI6
aI10
aI4
aI4
aI6
aa(lp3655
I6
aI6
aI10
aI4
aI4
aI6
aa(lp3656
I6
aI6
aI10
aI4
aI4
aI6
aa(lp3657
I6
aI6
aI10
aI4
aI4
aI6
aa(lp3658
I6
aI6
aI10
aI4
aI4
aI6
aa(lp3659
I6
aI6
aI10
aI4
aI4
aI6
aa(lp3660
I6
aI6
aI10
aI4
aI4
aI6
aa(lp3661
I6
aI6
aI10
aI4
aI4
aI6
aa(lp3662
I6
aI6
aI10
aI4
aI4
aI6
aa(lp3663
I6
aI6
aI10
aI4
aI4
aI6
aa(lp3664
I6
aI6
aI10
aI4
aI4
aI6
aa(lp3665
I6
aI6
aI10
aI4
aI4
aI6
aa(lp3666
I6
aI6
aI10
aI4
aI4
aI6
aa(lp3667
I6
aI6
aI10
aI4
aI4
aI6
aa(lp3668
I6
aI6
aI10
aI4
aI4
aI6
aa(lp3669
I6
aI6
aI10
aI4
aI4
aI6
aa(lp3670
I6
aI6
aI10
aI4
aI4
aI6
aa(lp3671
I6
aI6
aI10
aI4
aI4
aI6
aa(lp3672
I6
aI6
aI10
aI4
aI4
aI6
aa(lp3673
I6
aI6
aI10
aI4
aI4
aI6
aa(lp3674
I6
aI6
aI10
aI4
aI4
aI6
aa(lp3675
I6
aI6
aI10
aI4
aI4
aI6
aa(lp3676
I6
aI6
aI10
aI4
aI4
aI6
aa(lp3677
I6
aI6
aI10
aI4
aI4
aI6
aa(lp3678
I6
aI6
aI10
aI4
aI4
aI6
aa(lp3679
I6
aI6
aI10
aI4
aI4
aI6
aa(lp3680
I6
aI6
aI10
aI4
aI4
aI6
aa(lp3681
I6
aI6
aI10
aI4
aI4
aI6
aa(lp3682
I6
aI6
aI10
aI4
aI4
aI6
aa(lp3683
I6
aI6
aI10
aI4
aI4
aI6
aa(lp3684
I6
aI6
aI6
aI10
aI4
aI4
aI6
aa(lp3685
I6
aI6
aI6
aI10
aI4
aI4
aI6
aa(lp3686
I6
aI6
aI6
aI10
aI4
aI4
aI6
aa(lp3687
I6
aI6
aI6
aI10
aI4
aI4
aI6
aa(lp3688
I6
aI6
aI6
aI10
aI4
aI4
aI6
aa(lp3689
I6
aI6
aI6
aI10
aI4
aI4
aI6
aa(lp3690
I6
aI6
aI6
aI10
aI4
aI4
aI6
aa(lp3691
I6
aI6
aI6
aI10
aI4
aI4
aI6
aa(lp3692
I6
aI6
aI6
aI10
aI4
aI4
aI6
aa(lp3693
I6
aI6
aI6
aI10
aI4
aI4
aI6
aa(lp3694
I6
aI6
aI6
aI10
aI4
aI4
aI6
aa(lp3695
I6
aI6
aI6
aI10
aI4
aI4
aI6
aa(lp3696
I6
aI6
aI6
aI10
aI4
aI4
aI6
aa(lp3697
I6
aI6
aI6
aI10
aI4
aI4
aI6
aa(lp3698
I6
aI6
aI6
aI10
aI4
aI4
aI6
aa(lp3699
I6
aI6
aI6
aI10
aI4
aI4
aI6
aa(lp3700
I6
aI6
aI6
aI10
aI4
aI4
aI6
aa(lp3701
I6
aI6
aI6
aI10
aI4
aI4
aI6
aa(lp3702
I6
aI6
aI6
aI10
aI4
aI4
aI6
aa(lp3703
I6
aI6
aI6
aI10
aI4
aI4
aI6
aa(lp3704
I6
aI6
aI6
aI10
aI4
aI4
aI6
aa(lp3705
I6
aI6
aI6
aI10
aI4
aI4
aI6
aa(lp3706
I6
aI6
aI6
aI10
aI4
aI4
aI6
aa(lp3707
I6
aI6
aI6
aI10
aI4
aI4
aI6
aa(lp3708
I6
aI6
aI6
aI10
aI4
aI4
aI6
aa(lp3709
I6
aI6
aI6
aI10
aI4
aI4
aI6
aa(lp3710
I6
aI6
aI6
aI10
aI4
aI4
aI6
aa(lp3711
I6
aI6
aI6
aI10
aI4
aI4
aI6
aa(lp3712
I6
aI6
aI6
aI10
aI4
aI4
aI6
aa(lp3713
I6
aI6
aI6
aI10
aI4
aI4
aI6
aa(lp3714
I6
aI6
aI6
aI10
aI4
aI4
aI6
aa(lp3715
I6
aI6
aI6
aI10
aI4
aI4
aI6
aa(lp3716
I6
aI6
aI6
aI10
aI4
aI4
aI6
aa(lp3717
I6
aI6
aI6
aI10
aI4
aI4
aI6
aa(lp3718
I6
aI6
aI6
aI10
aI4
aI4
aI6
aa(lp3719
I6
aI6
aI6
aI10
aI4
aI4
aI6
aa(lp3720
I6
aI6
aI6
aI10
aI4
aI4
aI6
aa(lp3721
I6
aI6
aI6
aI10
aI4
aI4
aI6
aa(lp3722
I6
aI6
aI6
aI10
aI4
aI4
aI6
aa(lp3723
I6
aI6
aI6
aI10
aI4
aI4
aI6
aa(lp3724
I6
aI6
aI6
aI10
aI4
aI4
aI6
aa(lp3725
I6
aI6
aI6
aI10
aI4
aI4
aI6
aa(lp3726
I6
aI6
aI6
aI10
aI4
aI4
aI6
aa(lp3727
I6
aI6
aI6
aI10
aI4
aI4
aI6
aa(lp3728
I6
aI6
aI6
aI10
aI4
aI4
aI6
aa(lp3729
I6
aI6
aI6
aI10
aI4
aI4
aI6
aa(lp3730
I6
aI6
aI6
aI10
aI4
aI4
aI6
aa(lp3731
I6
aI6
aI6
aI10
aI4
aI4
aI6
aa(lp3732
I6
aI6
aI6
aI10
aI4
aI4
aI6
aa(lp3733
I6
aI6
aI6
aI10
aI4
aI4
aI6
aa(lp3734
I6
aI6
aI6
aI10
aI4
aI4
aI6
aa(lp3735
I6
aI6
aI6
aI10
aI4
aI4
aI6
aa(lp3736
I6
aI6
aI6
aI10
aI4
aI4
aI6
aa(lp3737
I6
aI6
aI6
aI10
aI4
aI4
aI6
aa(lp3738
I6
aI6
aI6
aI10
aI4
aI4
aI6
aa(lp3739
I6
aI6
aI6
aI10
aI4
aI4
aI6
aa(lp3740
I6
aI6
aI6
aI10
aI4
aI4
aI6
aa(lp3741
I6
aI6
aI6
aI10
aI4
aI4
aI6
aa(lp3742
I6
aI6
aI6
aI10
aI4
aI4
aI6
aa(lp3743
I6
aI6
aI6
aI10
aI4
aI4
aI6
aa(lp3744
I6
aI6
aI6
aI10
aI4
aI4
aI6
aa(lp3745
I6
aI6
aI6
aI10
aI4
aI4
aI6
aa(lp3746
I6
aI6
aI6
aI10
aI4
aI4
aI6
aa(lp3747
I6
aI6
aI6
aI10
aI4
aI4
aI6
aa(lp3748
I6
aI6
aI6
aI10
aI4
aI4
aI6
aa(lp3749
I6
aI6
aI6
aI10
aI4
aI4
aI6
aa(lp3750
I6
aI6
aI6
aI10
aI4
aI4
aI6
aa(lp3751
I6
aI6
aI6
aI10
aI4
aI4
aI6
aa(lp3752
I6
aI6
aI6
aI10
aI4
aI4
aI6
aa(lp3753
I6
aI6
aI6
aI10
aI4
aI4
aI6
aa(lp3754
I6
aI6
aI6
aI10
aI4
aI4
aI6
aa(lp3755
I6
aI6
aI6
aI10
aI4
aI4
aI6
aa(lp3756
I6
aI6
aI6
aI10
aI4
aI4
aI6
aa(lp3757
I6
aI6
aI6
aI10
aI4
aI4
aI6
aa(lp3758
I6
aI6
aI6
aI10
aI4
aI4
aI6
aa(lp3759
I6
aI6
aI6
aI10
aI4
aI4
aI6
aa(lp3760
I6
aI6
aI6
aI10
aI4
aI4
aI6
aa(lp3761
I6
aI6
aI6
aI10
aI4
aI4
aI6
aa(lp3762
I6
aI6
aI6
aI10
aI4
aI4
aI6
aa(lp3763
I6
aI6
aI6
aI10
aI4
aI4
aI6
aa(lp3764
I6
aI6
aI6
aI10
aI4
aI4
aI6
aa(lp3765
I6
aI6
aI6
aI10
aI4
aI4
aI6
aa(lp3766
I6
aI6
aI6
aI10
aI4
aI4
aI6
aa(lp3767
I6
aI6
aI6
aI10
aI4
aI4
aI6
aa(lp3768
I6
aI6
aI6
aI10
aI4
aI4
aI6
aa(lp3769
I6
aI6
aI6
aI10
aI4
aI4
aI6
aa(lp3770
I6
aI6
aI6
aI10
aI4
aI4
aI6
aa(lp3771
I6
aI6
aI6
aI10
aI4
aI4
aI6
aa(lp3772
I6
aI6
aI6
aI10
aI4
aI4
aI6
aa(lp3773
I6
aI6
aI6
aI10
aI4
aI4
aI6
aa(lp3774
I6
aI6
aI6
aI10
aI4
aI4
aI6
aa(lp3775
I6
aI6
aI6
aI10
aI4
aI4
aI6
aa(lp3776
I6
aI6
aI6
aI10
aI4
aI4
aI6
aa(lp3777
I6
aI6
aI6
aI10
aI4
aI4
aI6
aa(lp3778
I6
aI6
aI6
aI10
aI4
aI4
aI6
aa(lp3779
I6
aI6
aI6
aI10
aI4
aI4
aI6
aa(lp3780
I6
aI6
aI6
aI10
aI4
aI4
aI6
aa(lp3781
I6
aI6
aI6
aI10
aI4
aI4
aI6
aa(lp3782
I6
aI6
aI6
aI10
aI4
aI4
aI6
aa(lp3783
I6
aI6
aI6
aI10
aI4
aI4
aI6
aa(lp3784
I6
aI6
aI6
aI10
aI4
aI4
aI6
aa(lp3785
I6
aI6
aI6
aI10
aI4
aI4
aI6
aa(lp3786
I6
aI6
aI6
aI10
aI4
aI4
aI6
aa(lp3787
I6
aI6
aI6
aI10
aI4
aI4
aI6
aa(lp3788
I6
aI6
aI6
aI10
aI4
aI4
aI6
aa(lp3789
I6
aI6
aI6
aI10
aI4
aI4
aI6
aa(lp3790
I6
aI6
aI6
aI10
aI4
aI4
aI6
aa(lp3791
I6
aI6
aI6
aI10
aI4
aI4
aI6
aa(lp3792
I6
aI6
aI6
aI10
aI4
aI4
aI6
aa(lp3793
I6
aI6
aI6
aI10
aI4
aI4
aI6
aa(lp3794
I6
aI6
aI6
aI10
aI4
aI4
aI6
aa(lp3795
I6
aI6
aI6
aI10
aI4
aI4
aI6
aa(lp3796
I6
aI6
aI6
aI10
aI4
aI4
aI6
aa(lp3797
I6
aI6
aI6
aI10
aI4
aI4
aI6
aa(lp3798
I6
aI6
aI6
aI10
aI4
aI4
aI6
aa(lp3799
I6
aI6
aI6
aI10
aI4
aI4
aI6
aa(lp3800
I6
aI6
aI6
aI10
aI4
aI4
aI6
aa(lp3801
I6
aI6
aI6
aI10
aI4
aI4
aI6
aa(lp3802
I6
aI6
aI6
aI10
aI4
aI4
aI6
aa(lp3803
I6
aI6
aI6
aI10
aI4
aI4
aI6
aa(lp3804
I6
aI6
aI6
aI10
aI4
aI4
aI6
aa(lp3805
I6
aI6
aI6
aI10
aI4
aI4
aI6
aa(lp3806
I6
aI6
aI6
aI10
aI4
aI4
aI6
aa(lp3807
I6
aI6
aI6
aI10
aI4
aI4
aI6
aa(lp3808
I6
aI6
aI6
aI10
aI4
aI4
aI6
aa(lp3809
I6
aI6
aI6
aI10
aI4
aI4
aI6
aa(lp3810
I6
aI6
aI6
aI10
aI4
aI4
aI6
aa(lp3811
I6
aI6
aI6
aI10
aI4
aI4
aI6
aa(lp3812
I6
aI6
aI6
aI10
aI4
aI4
aI6
aa(lp3813
I6
aI6
aI6
aI10
aI4
aI4
aI6
aa(lp3814
I6
aI6
aI6
aI10
aI4
aI4
aI6
aa(lp3815
I6
aI6
aI6
aI10
aI4
aI4
aI6
aa(lp3816
I6
aI6
aI6
aI10
aI4
aI4
aI6
aa(lp3817
I6
aI6
aI6
aI10
aI4
aI4
aI6
aa(lp3818
I6
aI6
aI6
aI10
aI4
aI4
aI6
aa(lp3819
I6
aI6
aI6
aI10
aI4
aI4
aI6
aa(lp3820
I6
aI6
aI6
aI10
aI4
aI4
aI6
aa(lp3821
I6
aI6
aI6
aI10
aI4
aI4
aI6
aa(lp3822
I6
aI6
aI6
aI10
aI4
aI4
aI6
aa(lp3823
I6
aI6
aI6
aI10
aI4
aI4
aI6
aa(lp3824
I6
aI6
aI6
aI10
aI4
aI4
aI6
aa(lp3825
I6
aI6
aI6
aI10
aI4
aI4
aI6
aa(lp3826
I6
aI6
aI6
aI10
aI4
aI4
aI6
aa(lp3827
I6
aI6
aI6
aI10
aI4
aI4
aI6
aa(lp3828
I6
aI6
aI6
aI10
aI4
aI4
aI6
aa(lp3829
I6
aI6
aI6
aI10
aI4
aI4
aI6
aa(lp3830
I6
aI6
aI6
aI10
aI4
aI4
aI6
aa(lp3831
I6
aI6
aI6
aI10
aI4
aI4
aI6
aa(lp3832
I6
aI6
aI6
aI10
aI4
aI4
aI6
aa(lp3833
I6
aI6
aI6
aI10
aI4
aI4
aI6
aa(lp3834
I6
aI6
aI6
aI10
aI4
aI4
aI6
aa(lp3835
I6
aI6
aI6
aI10
aI4
aI4
aI6
aa(lp3836
I6
aI6
aI6
aI10
aI4
aI4
aI6
aa(lp3837
I6
aI6
aI6
aI10
aI4
aI4
aI6
aa(lp3838
I6
aI6
aI6
aI10
aI4
aI4
aI6
aa(lp3839
I6
aI6
aI6
aI10
aI4
aI4
aI6
aa(lp3840
I6
aI6
aI6
aI10
aI4
aI4
aI6
aa(lp3841
I6
aI6
aI6
aI10
aI4
aI4
aI6
aa(lp3842
I6
aI6
aI6
aI10
aI4
aI4
aI6
aa(lp3843
I6
aI6
aI6
aI10
aI4
aI4
aI6
aa(lp3844
I6
aI6
aI6
aI10
aI4
aI4
aI6
aa(lp3845
I6
aI6
aI6
aI10
aI4
aI4
aI6
aa(lp3846
I6
aI6
aI6
aI10
aI4
aI4
aI6
aa(lp3847
I6
aI6
aI6
aI10
aI4
aI4
aI6
aa(lp3848
I6
aI6
aI6
aI10
aI4
aI4
aI6
aa(lp3849
I6
aI6
aI6
aI10
aI4
aI4
aI6
aa(lp3850
I6
aI6
aI6
aI10
aI4
aI4
aI6
aa(lp3851
I6
aI6
aI6
aI10
aI4
aI4
aI6
aa(lp3852
I6
aI6
aI6
aI10
aI4
aI4
aI6
aa(lp3853
I6
aI6
aI6
aI10
aI4
aI4
aI6
aa(lp3854
I6
aI6
aI6
aI10
aI4
aI4
aI6
aa(lp3855
I6
aI6
aI6
aI10
aI4
aI4
aI6
aa(lp3856
I6
aI6
aI6
aI10
aI4
aI4
aI6
aa(lp3857
I6
aI6
aI6
aI10
aI4
aI4
aI6
aa(lp3858
I6
aI6
aI6
aI10
aI4
aI4
aI6
aa(lp3859
I6
aI6
aI6
aI10
aI4
aI4
aI6
aa(lp3860
I6
aI6
aI6
aI10
aI4
aI4
aI6
aa(lp3861
I6
aI6
aI6
aI10
aI4
aI4
aI6
aa(lp3862
I6
aI6
aI6
aI10
aI4
aI4
aI6
aa(lp3863
I6
aI6
aI6
aI10
aI4
aI4
aI6
aa(lp3864
I6
aI6
aI6
aI10
aI4
aI4
aI6
aa(lp3865
I6
aI6
aI6
aI10
aI4
aI4
aI6
aa(lp3866
I6
aI6
aI6
aI10
aI4
aI4
aI6
aa(lp3867
I6
aI6
aI6
aI10
aI4
aI4
aI6
aa(lp3868
I6
aI6
aI6
aI10
aI4
aI4
aI6
aa(lp3869
I6
aI6
aI6
aI10
aI4
aI4
aI6
aa(lp3870
I6
aI6
aI6
aI10
aI4
aI4
aI6
aa(lp3871
I6
aI6
aI6
aI10
aI4
aI4
aI6
aa(lp3872
I6
aI6
aI6
aI10
aI4
aI4
aI6
aa(lp3873
I6
aI6
aI6
aI10
aI4
aI4
aI6
aa(lp3874
I6
aI6
aI6
aI10
aI4
aI4
aI6
aa(lp3875
I6
aI6
aI6
aI10
aI4
aI4
aI6
aa(lp3876
I6
aI6
aI6
aI10
aI4
aI4
aI6
aa(lp3877
I6
aI6
aI6
aI10
aI4
aI4
aI6
aa(lp3878
I6
aI6
aI6
aI10
aI4
aI4
aI6
aa(lp3879
I6
aI6
aI6
aI10
aI4
aI4
aI6
aa(lp3880
I6
aI6
aI6
aI10
aI4
aI4
aI6
aa(lp3881
I6
aI6
aI6
aI10
aI4
aI4
aI6
aa(lp3882
I6
aI6
aI6
aI10
aI4
aI4
aI6
aa(lp3883
I6
aI6
aI6
aI10
aI4
aI4
aI6
aa(lp3884
I6
aI6
aI6
aI10
aI4
aI4
aI6
aa(lp3885
I6
aI6
aI6
aI10
aI4
aI4
aI6
aa(lp3886
I6
aI6
aI6
aI10
aI4
aI4
aI6
aa(lp3887
I6
aI6
aI6
aI10
aI4
aI4
aI6
aa(lp3888
I6
aI6
aI6
aI10
aI4
aI4
aI6
aa(lp3889
I6
aI6
aI6
aI10
aI4
aI4
aI6
aa(lp3890
I6
aI6
aI6
aI10
aI4
aI4
aI6
aa(lp3891
I6
aI6
aI6
aI10
aI4
aI4
aI6
aa(lp3892
I6
aI6
aI6
aI10
aI4
aI4
aI6
aa(lp3893
I6
aI6
aI6
aI10
aI4
aI4
aI6
aa(lp3894
I6
aI6
aI6
aI10
aI4
aI4
aI6
aa(lp3895
I6
aI6
aI6
aI10
aI4
aI4
aI6
aa(lp3896
I6
aI6
aI6
aI10
aI4
aI4
aI6
aa(lp3897
I6
aI6
aI6
aI10
aI4
aI4
aI6
aa(lp3898
I6
aI6
aI6
aI10
aI4
aI4
aI6
aa(lp3899
I6
aI6
aI6
aI10
aI4
aI4
aI6
aa(lp3900
I6
aI6
aI6
aI10
aI4
aI4
aI6
aa(lp3901
I6
aI6
aI6
aI10
aI4
aI4
aI6
aa(lp3902
I6
aI6
aI6
aI10
aI4
aI4
aI6
aa(lp3903
I6
aI6
aI6
aI10
aI4
aI4
aI6
aa(lp3904
I6
aI6
aI6
aI10
aI4
aI4
aI6
aa(lp3905
I6
aI6
aI6
aI10
aI4
aI4
aI6
aa(lp3906
I6
aI6
aI6
aI10
aI4
aI4
aI6
aa(lp3907
I6
aI6
aI6
aI10
aI4
aI4
aI6
aa(lp3908
I6
aI6
aI6
aI10
aI4
aI4
aI6
aa(lp3909
I6
aI6
aI6
aI10
aI4
aI4
aI6
aa(lp3910
I6
aI6
aI6
aI10
aI4
aI4
aI6
aa(lp3911
I6
aI6
aI6
aI10
aI4
aI4
aI6
aa(lp3912
I6
aI6
aI6
aI10
aI4
aI4
aI6
aa(lp3913
I6
aI6
aI6
aI10
aI4
aI4
aI6
aa(lp3914
I6
aI6
aI6
aI10
aI4
aI4
aI6
aa(lp3915
I6
aI6
aI6
aI10
aI4
aI4
aI6
aa(lp3916
I6
aI6
aI6
aI10
aI4
aI4
aI6
aa(lp3917
I6
aI6
aI6
aI10
aI4
aI4
aI6
aa(lp3918
I6
aI6
aI6
aI10
aI4
aI4
aI6
aa(lp3919
I6
aI6
aI6
aI10
aI4
aI4
aI6
aa(lp3920
I6
aI6
aI6
aI10
aI4
aI4
aI6
aa(lp3921
I6
aI6
aI6
aI10
aI4
aI4
aI6
aa(lp3922
I6
aI6
aI6
aI10
aI4
aI4
aI6
aa(lp3923
I6
aI6
aI6
aI10
aI4
aI4
aI6
aa(lp3924
I6
aI6
aI6
aI10
aI4
aI4
aI6
aa(lp3925
I6
aI6
aI6
aI10
aI4
aI4
aI6
aa(lp3926
I6
aI6
aI6
aI10
aI4
aI4
aI6
aa(lp3927
I6
aI6
aI6
aI10
aI4
aI4
aI6
aa(lp3928
I6
aI6
aI6
aI10
aI4
aI4
aI6
aa(lp3929
I6
aI6
aI6
aI10
aI4
aI4
aI6
aa(lp3930
I6
aI6
aI6
aI10
aI4
aI4
aI6
aa(lp3931
I6
aI6
aI6
aI10
aI4
aI4
aI6
aa(lp3932
I6
aI6
aI6
aI10
aI4
aI4
aI6
aa(lp3933
I6
aI6
aI6
aI10
aI4
aI4
aI6
aa(lp3934
I6
aI6
aI6
aI10
aI4
aI4
aI6
aa(lp3935
I6
aI6
aI6
aI10
aI4
aI4
aI6
aa(lp3936
I6
aI6
aI6
aI10
aI4
aI4
aI6
aa(lp3937
I6
aI6
aI6
aI10
aI4
aI4
aI6
aa(lp3938
I6
aI6
aI6
aI10
aI4
aI4
aI6
aa(lp3939
I6
aI6
aI6
aI10
aI4
aI4
aI6
aa(lp3940
I6
aI6
aI6
aI10
aI4
aI4
aI6
aa(lp3941
I6
aI6
aI6
aI10
aI4
aI4
aI6
aa(lp3942
I6
aI6
aI6
aI10
aI4
aI4
aI6
aa(lp3943
I6
aI6
aI6
aI10
aI4
aI4
aI6
aa(lp3944
I6
aI6
aI6
aI10
aI4
aI4
aI6
aa(lp3945
I6
aI6
aI6
aI10
aI4
aI4
aI6
aa(lp3946
I6
aI6
aI6
aI10
aI4
aI4
aI6
aa(lp3947
I6
aI6
aI6
aI10
aI4
aI4
aI6
aa(lp3948
I6
aI6
aI6
aI10
aI4
aI4
aI6
aa(lp3949
I6
aI6
aI6
aI10
aI4
aI4
aI6
aa(lp3950
I6
aI6
aI6
aI10
aI4
aI4
aI6
aa(lp3951
I6
aI6
aI6
aI10
aI4
aI4
aI6
aa(lp3952
I6
aI6
aI6
aI10
aI4
aI4
aI6
aa(lp3953
I6
aI6
aI6
aI10
aI4
aI4
aI6
aa(lp3954
I6
aI6
aI6
aI10
aI4
aI4
aI6
aa(lp3955
I6
aI6
aI6
aI10
aI4
aI4
aI6
aa(lp3956
I6
aI6
aI6
aI10
aI4
aI4
aI6
aa(lp3957
I6
aI6
aI6
aI10
aI4
aI4
aI6
aa(lp3958
I6
aI6
aI6
aI10
aI4
aI4
aI6
aa(lp3959
I6
aI6
aI6
aI10
aI4
aI4
aI6
aa(lp3960
I6
aI6
aI6
aI10
aI4
aI4
aI6
aa(lp3961
I6
aI6
aI6
aI10
aI4
aI4
aI6
aa(lp3962
I6
aI6
aI6
aI10
aI4
aI4
aI6
aa(lp3963
I6
aI6
aI6
aI10
aI4
aI4
aI6
aa(lp3964
I6
aI6
aI6
aI10
aI4
aI4
aI6
aa(lp3965
I6
aI6
aI6
aI10
aI4
aI4
aI6
aa(lp3966
I6
aI6
aI6
aI10
aI4
aI4
aI6
aa(lp3967
I6
aI6
aI6
aI10
aI4
aI4
aI6
aa(lp3968
I6
aI6
aI6
aI10
aI4
aI4
aI6
aa(lp3969
I6
aI6
aI6
aI10
aI4
aI4
aI6
aa(lp3970
I6
aI6
aI6
aI10
aI4
aI4
aI6
aa(lp3971
I6
aI6
aI6
aI10
aI4
aI4
aI6
aa(lp3972
I6
aI6
aI6
aI10
aI4
aI4
aI6
aa(lp3973
I6
aI6
aI6
aI10
aI4
aI4
aI6
aa(lp3974
I6
aI6
aI6
aI10
aI4
aI4
aI6
aa(lp3975
I6
aI6
aI6
aI10
aI4
aI4
aI6
aa(lp3976
I6
aI6
aI6
aI10
aI4
aI4
aI6
aa(lp3977
I6
aI6
aI6
aI10
aI4
aI4
aI6
aa(lp3978
I6
aI6
aI6
aI10
aI4
aI4
aI6
aa(lp3979
I6
aI6
aI6
aI10
aI4
aI4
aI6
aa(lp3980
I6
aI6
aI6
aI10
aI4
aI4
aI6
aa(lp3981
I6
aI6
aI6
aI10
aI4
aI4
aI6
aa(lp3982
I6
aI6
aI6
aI10
aI4
aI4
aI6
aa(lp3983
I6
aI6
aI6
aI10
aI4
aI4
aI6
aa(lp3984
I6
aI6
aI6
aI10
aI4
aI4
aI6
aa(lp3985
I6
aI6
aI6
aI10
aI4
aI4
aI6
aa(lp3986
I6
aI6
aI6
aI10
aI4
aI4
aI6
aa(lp3987
I6
aI6
aI6
aI10
aI4
aI4
aI6
aa(lp3988
I6
aI6
aI6
aI10
aI4
aI4
aI6
aa(lp3989
I6
aI6
aI6
aI10
aI4
aI4
aI6
aa(lp3990
I6
aI6
aI6
aI10
aI4
aI4
aI6
aa(lp3991
I6
aI6
aI6
aI10
aI4
aI4
aI6
aa(lp3992
I6
aI6
aI6
aI10
aI4
aI4
aI6
aa(lp3993
I6
aI6
aI6
aI10
aI4
aI4
aI6
aa(lp3994
I6
aI6
aI6
aI10
aI4
aI4
aI6
aa(lp3995
I6
aI6
aI6
aI10
aI4
aI4
aI6
aa(lp3996
I6
aI6
aI6
aI10
aI4
aI4
aI6
aa(lp3997
I6
aI6
aI6
aI10
aI4
aI4
aI6
aa(lp3998
I6
aI6
aI6
aI10
aI4
aI4
aI6
aa(lp3999
I6
aI6
aI6
aI10
aI4
aI4
aI6
aa(lp4000
I6
aI6
aI6
aI10
aI4
aI4
aI6
aa(lp4001
I6
aI6
aI6
aI10
aI4
aI4
aI6
aa(lp4002
I6
aI6
aI6
aI10
aI4
aI4
aI6
aa(lp4003
I6
aI6
aI6
aI10
aI4
aI4
aI6
aa(lp4004
I6
aI6
aI6
aI10
aI4
aI4
aI6
aa(lp4005
I6
aI6
aI6
aI10
aI4
aI4
aI6
aa(lp4006
I6
aI6
aI6
aI10
aI4
aI4
aI6
aa(lp4007
I6
aI6
aI6
aI10
aI4
aI4
aI6
aa(lp4008
I6
aI6
aI6
aI10
aI4
aI4
aI6
aa(lp4009
I6
aI6
aI6
aI10
aI4
aI4
aI6
aa(lp4010
I6
aI6
aI6
aI10
aI4
aI4
aI6
aa(lp4011
I6
aI6
aI6
aI10
aI4
aI4
aI6
aa(lp4012
I6
aI6
aI6
aI10
aI4
aI4
aI6
aa(lp4013
I6
aI6
aI6
aI10
aI4
aI4
aI6
aa(lp4014
I6
aI6
aI6
aI10
aI4
aI4
aI6
aa(lp4015
I6
aI6
aI6
aI10
aI4
aI4
aI6
aa(lp4016
I6
aI6
aI6
aI10
aI4
aI4
aI6
aa(lp4017
I6
aI6
aI6
aI10
aI4
aI4
aI6
aa(lp4018
I6
aI6
aI6
aI10
aI4
aI4
aI6
aa(lp4019
I6
aI6
aI6
aI10
aI4
aI4
aI6
aa(lp4020
I6
aI6
aI6
aI10
aI4
aI4
aI6
aa(lp4021
I6
aI6
aI6
aI10
aI4
aI4
aI6
aa(lp4022
I6
aI6
aI6
aI10
aI4
aI4
aI6
aa(lp4023
I6
aI6
aI6
aI10
aI4
aI4
aI6
aa(lp4024
I6
aI6
aI6
aI10
aI4
aI4
aI6
aa(lp4025
I6
aI6
aI6
aI10
aI4
aI4
aI6
aa(lp4026
I6
aI6
aI6
aI10
aI4
aI4
aI6
aa(lp4027
I6
aI6
aI6
aI10
aI4
aI4
aI6
aa(lp4028
I6
aI6
aI6
aI10
aI4
aI4
aI6
aa(lp4029
I6
aI6
aI6
aI10
aI4
aI4
aI6
aa(lp4030
I6
aI6
aI6
aI10
aI4
aI4
aI6
aa(lp4031
I6
aI6
aI6
aI10
aI4
aI4
aI6
aa(lp4032
I6
aI6
aI6
aI10
aI4
aI4
aI6
aa(lp4033
I6
aI6
aI6
aI10
aI4
aI4
aI6
aa(lp4034
I6
aI6
aI6
aI10
aI4
aI4
aI6
aa(lp4035
I6
aI6
aI6
aI10
aI4
aI4
aI6
aa(lp4036
I6
aI6
aI6
aI10
aI4
aI4
aI6
aa(lp4037
I6
aI6
aI6
aI10
aI4
aI4
aI6
aa(lp4038
I6
aI6
aI6
aI10
aI4
aI4
aI6
aa(lp4039
I6
aI6
aI6
aI10
aI4
aI4
aI6
aa(lp4040
I6
aI6
aI6
aI10
aI4
aI4
aI6
aa(lp4041
I6
aI6
aI6
aI10
aI4
aI4
aI6
aa(lp4042
I6
aI6
aI6
aI10
aI4
aI4
aI6
aa(lp4043
I6
aI6
aI6
aI10
aI4
aI4
aI6
aa(lp4044
I6
aI6
aI6
aI10
aI4
aI4
aI6
aa(lp4045
I6
aI6
aI6
aI10
aI4
aI4
aI6
aa(lp4046
I6
aI6
aI6
aI10
aI4
aI4
aI6
aa(lp4047
I6
aI6
aI6
aI10
aI4
aI4
aI6
aa(lp4048
I6
aI6
aI6
aI10
aI4
aI4
aI6
aa(lp4049
I6
aI6
aI6
aI10
aI4
aI4
aI6
aa(lp4050
I6
aI6
aI6
aI10
aI4
aI4
aI6
aa(lp4051
I6
aI6
aI6
aI10
aI4
aI4
aI6
aa(lp4052
I6
aI6
aI6
aI10
aI4
aI4
aI6
aa(lp4053
I6
aI6
aI6
aI10
aI4
aI4
aI6
aa(lp4054
I6
aI6
aI6
aI10
aI4
aI4
aI6
aa(lp4055
I6
aI6
aI6
aI10
aI4
aI4
aI6
aa(lp4056
I6
aI6
aI6
aI10
aI4
aI4
aI6
aa(lp4057
I6
aI6
aI6
aI10
aI4
aI4
aI6
aa(lp4058
I6
aI6
aI6
aI10
aI4
aI4
aI6
aa(lp4059
I6
aI6
aI6
aI10
aI4
aI4
aI6
aa(lp4060
I6
aI6
aI6
aI10
aI4
aI4
aI6
aa(lp4061
I6
aI6
aI6
aI10
aI4
aI4
aI6
aa(lp4062
I6
aI6
aI6
aI10
aI4
aI4
aI6
aa(lp4063
I6
aI6
aI6
aI10
aI4
aI4
aI6
aa(lp4064
I6
aI6
aI6
aI10
aI4
aI4
aI6
aa(lp4065
I6
aI6
aI6
aI10
aI4
aI4
aI6
aa(lp4066
I6
aI6
aI6
aI10
aI4
aI4
aI6
aa(lp4067
I6
aI6
aI6
aI10
aI4
aI4
aI6
aa(lp4068
I6
aI6
aI6
aI10
aI4
aI4
aI6
aa(lp4069
I6
aI6
aI6
aI10
aI4
aI4
aI6
aa(lp4070
I6
aI6
aI6
aI10
aI4
aI4
aI6
aa(lp4071
I6
aI6
aI6
aI10
aI4
aI4
aI6
aa(lp4072
I6
aI6
aI6
aI10
aI4
aI4
aI6
aa(lp4073
I6
aI6
aI6
aI10
aI4
aI4
aI6
aa(lp4074
I6
aI6
aI6
aI10
aI4
aI4
aI6
aa(lp4075
I6
aI6
aI6
aI10
aI4
aI4
aI6
aa(lp4076
I6
aI6
aI6
aI10
aI4
aI4
aI6
aa(lp4077
I6
aI6
aI6
aI10
aI4
aI4
aI6
aa(lp4078
I6
aI6
aI6
aI10
aI4
aI4
aI6
aa(lp4079
I6
aI6
aI6
aI10
aI4
aI4
aI6
aa(lp4080
I6
aI6
aI6
aI10
aI4
aI4
aI6
aa(lp4081
I6
aI6
aI6
aI10
aI4
aI4
aI6
aa(lp4082
I6
aI6
aI6
aI10
aI4
aI4
aI6
aa(lp4083
I6
aI6
aI6
aI10
aI4
aI4
aI6
aa(lp4084
I6
aI6
aI6
aI10
aI4
aI4
aI6
aa(lp4085
I6
aI6
aI6
aI10
aI4
aI4
aI6
aa(lp4086
I6
aI6
aI6
aI10
aI4
aI4
aI6
aa(lp4087
I6
aI6
aI6
aI10
aI4
aI4
aI6
aa(lp4088
I6
aI6
aI6
aI10
aI4
aI4
aI6
aa(lp4089
I6
aI6
aI6
aI10
aI4
aI4
aI6
aa(lp4090
I6
aI6
aI6
aI10
aI4
aI4
aI6
aa(lp4091
I6
aI6
aI6
aI10
aI4
aI4
aI6
aa(lp4092
I6
aI6
aI6
aI10
aI4
aI4
aI6
aa(lp4093
I6
aI6
aI6
aI10
aI4
aI4
aI6
aa(lp4094
I6
aI6
aI6
aI10
aI4
aI4
aI6
aa(lp4095
I6
aI6
aI6
aI10
aI4
aI4
aI6
aa(lp4096
I6
aI6
aI6
aI10
aI4
aI4
aI6
aa(lp4097
I6
aI6
aI6
aI10
aI4
aI4
aI6
aa(lp4098
I6
aI6
aI6
aI10
aI4
aI4
aI6
aa(lp4099
I6
aI6
aI6
aI10
aI4
aI4
aI6
aa(lp4100
I6
aI6
aI6
aI10
aI4
aI4
aI6
aa(lp4101
I6
aI6
aI6
aI10
aI4
aI4
aI6
aa(lp4102
I6
aI6
aI6
aI10
aI4
aI4
aI6
aa(lp4103
I6
aI6
aI6
aI10
aI4
aI4
aI6
aa(lp4104
I6
aI6
aI6
aI10
aI4
aI4
aI6
aa(lp4105
I6
aI6
aI6
aI10
aI4
aI4
aI6
aa(lp4106
I6
aI6
aI6
aI10
aI4
aI4
aI6
aa(lp4107
I6
aI6
aI6
aI10
aI4
aI4
aI6
aa(lp4108
I6
aI6
aI6
aI10
aI4
aI4
aI6
aa(lp4109
I6
aI6
aI6
aI10
aI4
aI4
aI6
aa(lp4110
I6
aI6
aI6
aI10
aI4
aI4
aI6
aa(lp4111
I6
aI6
aI6
aI10
aI4
aI4
aI6
aa(lp4112
I6
aI6
aI6
aI10
aI4
aI4
aI6
aa(lp4113
I6
aI6
aI6
aI10
aI4
aI4
aI6
aa(lp4114
I6
aI6
aI6
aI10
aI4
aI4
aI6
aa(lp4115
I6
aI6
aI6
aI10
aI4
aI4
aI6
aa(lp4116
I6
aI6
aI6
aI10
aI4
aI4
aI6
aa(lp4117
I6
aI6
aI6
aI10
aI4
aI4
aI6
aa(lp4118
I6
aI6
aI6
aI10
aI4
aI4
aI6
aa(lp4119
I6
aI6
aI6
aI10
aI4
aI4
aI6
aa(lp4120
I6
aI6
aI6
aI10
aI4
aI4
aI6
aa(lp4121
I6
aI6
aI6
aI10
aI4
aI4
aI6
aa(lp4122
I6
aI6
aI6
aI10
aI4
aI4
aI6
aa(lp4123
I6
aI6
aI6
aI10
aI4
aI4
aI6
aa(lp4124
I6
aI6
aI6
aI10
aI4
aI4
aI6
aa(lp4125
I6
aI6
aI6
aI10
aI4
aI4
aI6
aa(lp4126
I6
aI6
aI6
aI10
aI4
aI4
aI6
aa(lp4127
I6
aI6
aI6
aI10
aI4
aI4
aI6
aa(lp4128
I6
aI6
aI6
aI10
aI4
aI4
aI6
aa(lp4129
I6
aI6
aI6
aI10
aI4
aI4
aI6
aa(lp4130
I6
aI6
aI6
aI10
aI4
aI4
aI6
aa(lp4131
I6
aI6
aI6
aI10
aI4
aI4
aI6
aa(lp4132
I6
aI6
aI6
aI10
aI4
aI4
aI6
aa(lp4133
I6
aI6
aI6
aI10
aI4
aI4
aI6
aa(lp4134
I6
aI6
aI6
aI10
aI4
aI4
aI6
aa(lp4135
I6
aI6
aI6
aI10
aI4
aI4
aI6
aa(lp4136
I6
aI6
aI6
aI10
aI4
aI4
aI6
aa(lp4137
I6
aI6
aI6
aI10
aI4
aI4
aI6
aa(lp4138
I6
aI6
aI6
aI10
aI4
aI4
aI6
aa(lp4139
I6
aI6
aI6
aI10
aI4
aI4
aI6
aa(lp4140
I6
aI6
aI6
aI10
aI4
aI4
aI6
aa(lp4141
I6
aI6
aI6
aI10
aI4
aI4
aI6
aa(lp4142
I6
aI6
aI6
aI10
aI4
aI4
aI6
aa(lp4143
I6
aI6
aI6
aI10
aI4
aI4
aI6
aa(lp4144
I6
aI6
aI6
aI10
aI4
aI4
aI6
aa(lp4145
I6
aI6
aI6
aI10
aI4
aI4
aI6
aa(lp4146
I6
aI6
aI6
aI10
aI4
aI4
aI6
aa(lp4147
I6
aI6
aI6
aI10
aI4
aI4
aI6
aa(lp4148
I6
aI6
aI6
aI10
aI4
aI4
aI6
aa(lp4149
I6
aI6
aI6
aI10
aI4
aI4
aI6
aa(lp4150
I6
aI6
aI6
aI10
aI4
aI4
aI6
aa(lp4151
I6
aI6
aI6
aI10
aI4
aI4
aI6
aa(lp4152
I6
aI6
aI6
aI10
aI4
aI4
aI6
aa(lp4153
I6
aI6
aI6
aI10
aI4
aI4
aI6
aa(lp4154
I6
aI6
aI6
aI10
aI4
aI4
aI6
aa(lp4155
I6
aI6
aI6
aI10
aI4
aI4
aI6
aa(lp4156
I6
aI6
aI6
aI10
aI4
aI4
aI6
aa(lp4157
I6
aI6
aI6
aI10
aI4
aI4
aI6
aa(lp4158
I6
aI6
aI6
aI10
aI4
aI4
aI6
aa(lp4159
I6
aI6
aI6
aI10
aI4
aI4
aI6
aa(lp4160
I6
aI6
aI6
aI10
aI4
aI4
aI6
aa(lp4161
I6
aI6
aI6
aI10
aI4
aI4
aI6
aa(lp4162
I6
aI6
aI6
aI10
aI4
aI4
aI6
aa(lp4163
I6
aI6
aI6
aI10
aI4
aI4
aI6
aa(lp4164
I6
aI6
aI6
aI10
aI4
aI4
aI6
aa(lp4165
I6
aI6
aI6
aI10
aI4
aI4
aI6
aa(lp4166
I6
aI6
aI6
aI10
aI4
aI4
aI6
aa(lp4167
I6
aI6
aI6
aI10
aI4
aI4
aI6
aa(lp4168
I6
aI6
aI6
aI10
aI4
aI4
aI6
aa(lp4169
I6
aI6
aI6
aI10
aI4
aI4
aI6
aa(lp4170
I6
aI6
aI6
aI10
aI4
aI4
aI6
aa(lp4171
I6
aI6
aI6
aI10
aI4
aI4
aI6
aa(lp4172
I6
aI6
aI6
aI10
aI4
aI4
aI6
aa(lp4173
I6
aI6
aI6
aI10
aI4
aI4
aI6
aa(lp4174
I6
aI6
aI6
aI10
aI4
aI4
aI6
aa(lp4175
I6
aI6
aI6
aI10
aI4
aI4
aI6
aa(lp4176
I6
aI6
aI6
aI10
aI4
aI4
aI6
aa(lp4177
I6
aI6
aI6
aI10
aI4
aI4
aI6
aa(lp4178
I6
aI6
aI6
aI10
aI4
aI4
aI6
aa(lp4179
I6
aI6
aI6
aI10
aI4
aI4
aI6
aa(lp4180
I6
aI6
aI6
aI10
aI4
aI4
aI6
aa(lp4181
I6
aI6
aI6
aI10
aI4
aI4
aI6
aa(lp4182
I6
aI6
aI6
aI10
aI4
aI4
aI6
aa(lp4183
I6
aI6
aI6
aI10
aI4
aI4
aI6
aa(lp4184
I6
aI6
aI6
aI10
aI4
aI4
aI6
aa(lp4185
I6
aI6
aI6
aI10
aI4
aI4
aI6
aa(lp4186
I6
aI6
aI6
aI10
aI4
aI4
aI6
aa(lp4187
I6
aI6
aI6
aI10
aI4
aI4
aI6
aa(lp4188
I6
aI6
aI6
aI10
aI4
aI4
aI6
aa(lp4189
I6
aI6
aI6
aI10
aI4
aI4
aI6
aa(lp4190
I6
aI6
aI6
aI10
aI4
aI4
aI6
aa(lp4191
I6
aI6
aI6
aI10
aI4
aI4
aI6
aa(lp4192
I6
aI6
aI6
aI10
aI4
aI4
aI6
aa(lp4193
I6
aI6
aI6
aI10
aI4
aI4
aI6
aa(lp4194
I6
aI6
aI6
aI10
aI4
aI4
aI6
aa(lp4195
I6
aI6
aI6
aI10
aI4
aI4
aI6
aa(lp4196
I6
aI6
aI6
aI10
aI4
aI4
aI6
aa(lp4197
I6
aI6
aI6
aI10
aI4
aI4
aI6
aa(lp4198
I6
aI6
aI6
aI10
aI4
aI4
aI6
aa(lp4199
I6
aI6
aI6
aI10
aI4
aI4
aI6
aa(lp4200
I6
aI6
aI6
aI10
aI4
aI4
aI6
aa(lp4201
I6
aI6
aI6
aI10
aI4
aI4
aI6
aa(lp4202
I6
aI6
aI6
aI10
aI4
aI4
aI6
aa(lp4203
I6
aI6
aI6
aI10
aI4
aI4
aI6
aa(lp4204
I6
aI6
aI6
aI10
aI4
aI4
aI6
aa(lp4205
I6
aI6
aI6
aI10
aI4
aI4
aI6
aa(lp4206
I6
aI6
aI6
aI10
aI4
aI4
aI6
aa(lp4207
I6
aI6
aI6
aI10
aI4
aI4
aI6
aa(lp4208
I6
aI6
aI6
aI10
aI4
aI4
aI6
aa(lp4209
I6
aI6
aI6
aI10
aI4
aI4
aI6
aa(lp4210
I6
aI6
aI6
aI10
aI4
aI4
aI6
aa(lp4211
I6
aI6
aI6
aI10
aI4
aI4
aI6
aa(lp4212
I6
aI6
aI6
aI10
aI4
aI4
aI6
aa(lp4213
I6
aI6
aI6
aI10
aI4
aI4
aI6
aa(lp4214
I6
aI6
aI6
aI10
aI4
aI4
aI6
aa(lp4215
I6
aI6
aI6
aI10
aI4
aI4
aI6
aa(lp4216
I6
aI6
aI6
aI10
aI4
aI4
aI6
aa(lp4217
I6
aI6
aI6
aI10
aI4
aI4
aI6
aa(lp4218
I6
aI6
aI6
aI10
aI4
aI4
aI6
aa(lp4219
I6
aI6
aI6
aI10
aI4
aI4
aI6
aa(lp4220
I6
aI6
aI6
aI10
aI4
aI4
aI6
aa(lp4221
I6
aI6
aI6
aI10
aI4
aI4
aI6
aa(lp4222
I6
aI6
aI6
aI10
aI4
aI4
aI6
aa(lp4223
I6
aI6
aI6
aI10
aI4
aI4
aI6
aa(lp4224
I6
aI6
aI6
aI10
aI4
aI4
aI6
aa(lp4225
I6
aI6
aI6
aI10
aI4
aI4
aI6
aa(lp4226
I6
aI6
aI6
aI10
aI4
aI4
aI6
aa(lp4227
I6
aI6
aI6
aI10
aI4
aI4
aI6
aa(lp4228
I6
aI6
aI6
aI10
aI4
aI4
aI6
aa(lp4229
I6
aI6
aI6
aI10
aI4
aI4
aI6
aa(lp4230
I6
aI6
aI6
aI10
aI4
aI4
aI6
aa(lp4231
I6
aI6
aI6
aI10
aI4
aI4
aI6
aa(lp4232
I6
aI6
aI6
aI10
aI4
aI4
aI6
aa(lp4233
I6
aI6
aI6
aI10
aI4
aI4
aI6
aa(lp4234
I6
aI6
aI6
aI10
aI4
aI4
aI6
aa(lp4235
I6
aI6
aI6
aI10
aI4
aI4
aI6
aa(lp4236
I6
aI6
aI6
aI10
aI4
aI4
aI6
aa(lp4237
I6
aI6
aI6
aI10
aI4
aI4
aI6
aa(lp4238
I6
aI6
aI6
aI10
aI4
aI4
aI6
aa(lp4239
I6
aI6
aI6
aI10
aI4
aI4
aI6
aa(lp4240
I6
aI6
aI6
aI10
aI4
aI4
aI6
aa(lp4241
I6
aI6
aI6
aI10
aI4
aI4
aI6
aa(lp4242
I6
aI6
aI6
aI10
aI4
aI4
aI6
aa(lp4243
I6
aI6
aI6
aI10
aI4
aI4
aI6
aa(lp4244
I6
aI6
aI6
aI10
aI4
aI4
aI6
aa(lp4245
I6
aI6
aI6
aI10
aI4
aI4
aI6
aa(lp4246
I6
aI6
aI6
aI10
aI4
aI4
aI6
aa(lp4247
I6
aI6
aI6
aI10
aI4
aI4
aI6
aa(lp4248
I6
aI6
aI6
aI10
aI4
aI4
aI6
aa(lp4249
I6
aI6
aI6
aI10
aI4
aI4
aI6
aa(lp4250
I6
aI6
aI6
aI10
aI4
aI4
aI6
aa(lp4251
I6
aI6
aI6
aI10
aI4
aI4
aI6
aa(lp4252
I6
aI6
aI6
aI10
aI4
aI4
aI6
aa(lp4253
I6
aI6
aI6
aI10
aI4
aI4
aI6
aa(lp4254
I6
aI6
aI6
aI10
aI4
aI4
aI6
aa(lp4255
I6
aI6
aI6
aI10
aI4
aI4
aI6
aa(lp4256
I6
aI6
aI6
aI10
aI4
aI4
aI6
aa(lp4257
I6
aI6
aI6
aI10
aI4
aI4
aI6
aa(lp4258
I6
aI6
aI6
aI10
aI4
aI4
aI6
aa(lp4259
I6
aI6
aI6
aI10
aI4
aI4
aI6
aa(lp4260
I6
aI6
aI6
aI10
aI4
aI4
aI6
aa(lp4261
I6
aI6
aI6
aI10
aI4
aI4
aI6
aa(lp4262
I6
aI6
aI6
aI10
aI4
aI4
aI6
aa(lp4263
I6
aI6
aI6
aI10
aI4
aI4
aI6
aa(lp4264
I6
aI6
aI6
aI10
aI4
aI4
aI6
aa(lp4265
I6
aI6
aI6
aI10
aI4
aI4
aI6
aa(lp4266
I6
aI6
aI6
aI10
aI4
aI4
aI6
aa(lp4267
I6
aI6
aI6
aI10
aI4
aI4
aI6
aa(lp4268
I6
aI6
aI6
aI10
aI4
aI4
aI6
aa(lp4269
I6
aI6
aI6
aI10
aI4
aI4
aI6
aa(lp4270
I6
aI6
aI6
aI10
aI4
aI4
aI6
aa(lp4271
I6
aI6
aI6
aI10
aI4
aI4
aI6
aa(lp4272
I6
aI6
aI6
aI10
aI4
aI4
aI6
aa(lp4273
I6
aI6
aI6
aI10
aI4
aI4
aI6
aa(lp4274
I6
aI6
aI6
aI10
aI4
aI4
aI6
aa(lp4275
I6
aI6
aI6
aI10
aI4
aI4
aI6
aa(lp4276
I6
aI6
aI6
aI10
aI4
aI4
aI6
aa(lp4277
I6
aI6
aI6
aI10
aI4
aI4
aI6
aa(lp4278
I6
aI6
aI6
aI10
aI4
aI4
aI6
aa(lp4279
I6
aI6
aI6
aI10
aI4
aI4
aI6
aa(lp4280
I6
aI6
aI6
aI10
aI4
aI4
aI6
aa(lp4281
I6
aI6
aI6
aI10
aI4
aI4
aI6
aa(lp4282
I6
aI6
aI6
aI10
aI4
aI4
aI6
aa(lp4283
I6
aI6
aI6
aI10
aI4
aI4
aI6
aa(lp4284
I6
aI6
aI6
aI10
aI4
aI4
aI6
aa(lp4285
I6
aI6
aI6
aI10
aI4
aI4
aI6
aa(lp4286
I6
aI6
aI6
aI10
aI4
aI4
aI6
aa(lp4287
I6
aI6
aI6
aI10
aI4
aI4
aI6
aa(lp4288
I6
aI6
aI6
aI10
aI4
aI4
aI6
aa(lp4289
I6
aI6
aI6
aI10
aI4
aI4
aI6
aa(lp4290
I6
aI6
aI6
aI10
aI4
aI4
aI6
aa(lp4291
I6
aI6
aI6
aI10
aI4
aI4
aI6
aa(lp4292
I6
aI6
aI6
aI10
aI4
aI4
aI6
aa(lp4293
I6
aI6
aI6
aI10
aI4
aI4
aI6
aa(lp4294
I6
aI6
aI6
aI10
aI4
aI4
aI6
aa(lp4295
I6
aI6
aI6
aI10
aI4
aI4
aI6
aa(lp4296
I6
aI6
aI6
aI10
aI4
aI4
aI6
aa(lp4297
I6
aI6
aI6
aI10
aI4
aI4
aI6
aa(lp4298
I6
aI6
aI6
aI10
aI4
aI4
aI6
aa(lp4299
I6
aI6
aI6
aI10
aI4
aI4
aI6
aa(lp4300
I6
aI6
aI6
aI10
aI4
aI4
aI6
aa(lp4301
I6
aI6
aI6
aI10
aI4
aI4
aI6
aa(lp4302
I6
aI6
aI6
aI10
aI4
aI4
aI6
aa(lp4303
I6
aI6
aI6
aI10
aI4
aI4
aI6
aa(lp4304
I6
aI6
aI6
aI10
aI4
aI4
aI6
aa(lp4305
I6
aI6
aI6
aI10
aI4
aI4
aI6
aa(lp4306
I6
aI6
aI6
aI10
aI4
aI4
aI6
aa(lp4307
I6
aI6
aI6
aI10
aI4
aI4
aI6
aa(lp4308
I6
aI6
aI6
aI10
aI4
aI4
aI6
aa(lp4309
I6
aI6
aI6
aI10
aI4
aI4
aI6
aa(lp4310
I6
aI6
aI6
aI10
aI4
aI4
aI6
aa(lp4311
I6
aI6
aI6
aI10
aI4
aI4
aI6
aa(lp4312
I6
aI6
aI6
aI10
aI4
aI4
aI6
aa(lp4313
I6
aI6
aI6
aI10
aI4
aI4
aI6
aa(lp4314
I6
aI6
aI6
aI10
aI4
aI4
aI6
aa(lp4315
I6
aI6
aI6
aI10
aI4
aI4
aI6
aa(lp4316
I6
aI6
aI6
aI10
aI4
aI4
aI6
aa(lp4317
I6
aI6
aI6
aI10
aI4
aI4
aI6
aa(lp4318
I6
aI6
aI6
aI10
aI4
aI4
aI6
aa(lp4319
I6
aI6
aI6
aI10
aI4
aI4
aI6
aa(lp4320
I6
aI6
aI6
aI10
aI4
aI4
aI6
aa(lp4321
I6
aI6
aI6
aI10
aI4
aI4
aI6
aa(lp4322
I6
aI6
aI6
aI10
aI4
aI4
aI6
aa(lp4323
I6
aI6
aI6
aI10
aI4
aI4
aI6
aa(lp4324
I6
aI6
aI6
aI10
aI4
aI4
aI6
aa(lp4325
I6
aI6
aI6
aI10
aI4
aI4
aI6
aa(lp4326
I6
aI6
aI6
aI10
aI4
aI4
aI6
aa(lp4327
I6
aI6
aI6
aI10
aI4
aI4
aI6
aa(lp4328
I6
aI6
aI6
aI10
aI4
aI4
aI6
aa(lp4329
I6
aI6
aI6
aI10
aI4
aI4
aI6
aa(lp4330
I6
aI6
aI6
aI10
aI4
aI4
aI6
aa(lp4331
I6
aI6
aI6
aI10
aI4
aI4
aI6
aa(lp4332
I6
aI6
aI6
aI10
aI4
aI4
aI6
aa(lp4333
I6
aI6
aI6
aI10
aI4
aI4
aI6
aa(lp4334
I6
aI6
aI6
aI10
aI4
aI4
aI6
aa(lp4335
I6
aI6
aI6
aI10
aI4
aI4
aI6
aa(lp4336
I6
aI6
aI6
aI10
aI4
aI4
aI6
aa(lp4337
I6
aI6
aI6
aI10
aI4
aI4
aI6
aa(lp4338
I6
aI6
aI6
aI10
aI4
aI4
aI6
aa(lp4339
I6
aI6
aI6
aI10
aI4
aI4
aI6
aa(lp4340
I6
aI6
aI6
aI10
aI4
aI4
aI6
aa(lp4341
I6
aI6
aI6
aI10
aI4
aI4
aI6
aa(lp4342
I6
aI6
aI6
aI10
aI4
aI4
aI6
aa(lp4343
I6
aI6
aI6
aI10
aI4
aI4
aI6
aa(lp4344
I6
aI6
aI6
aI10
aI4
aI4
aI6
aa(lp4345
I6
aI6
aI6
aI10
aI4
aI4
aI6
aa(lp4346
I6
aI6
aI6
aI10
aI4
aI4
aI6
aa(lp4347
I6
aI6
aI6
aI10
aI4
aI4
aI6
aa(lp4348
I6
aI6
aI6
aI10
aI4
aI4
aI6
aa(lp4349
I6
aI6
aI6
aI10
aI4
aI4
aI6
aa(lp4350
I6
aI6
aI6
aI10
aI4
aI4
aI6
aa(lp4351
I6
aI6
aI6
aI10
aI4
aI4
aI6
aa(lp4352
I6
aI6
aI6
aI10
aI4
aI4
aI6
aa(lp4353
I6
aI6
aI6
aI10
aI4
aI4
aI6
aa(lp4354
I6
aI6
aI6
aI10
aI4
aI4
aI6
aa(lp4355
I6
aI6
aI6
aI10
aI4
aI4
aI6
aa(lp4356
I6
aI6
aI6
aI10
aI4
aI4
aI6
aa(lp4357
I6
aI6
aI6
aI10
aI4
aI4
aI6
aa(lp4358
I6
aI6
aI6
aI10
aI4
aI4
aI6
aa(lp4359
I6
aI6
aI6
aI10
aI4
aI4
aI6
aa(lp4360
I6
aI6
aI6
aI10
aI4
aI4
aI6
aa(lp4361
I6
aI6
aI6
aI10
aI4
aI4
aI6
aa(lp4362
I6
aI6
aI6
aI10
aI4
aI4
aI6
aa(lp4363
I6
aI6
aI6
aI10
aI4
aI4
aI6
aa(lp4364
I6
aI6
aI6
aI10
aI4
aI4
aI6
aa(lp4365
I6
aI6
aI6
aI10
aI4
aI4
aI6
aa(lp4366
I6
aI6
aI6
aI10
aI4
aI4
aI6
aa(lp4367
I6
aI6
aI6
aI10
aI4
aI4
aI6
aa(lp4368
I6
aI6
aI6
aI10
aI4
aI4
aI6
aa(lp4369
I6
aI6
aI6
aI10
aI4
aI4
aI6
aa(lp4370
I6
aI6
aI6
aI10
aI4
aI4
aI6
aa(lp4371
I6
aI6
aI6
aI10
aI4
aI4
aI6
aa(lp4372
I6
aI6
aI6
aI10
aI4
aI4
aI6
aa(lp4373
I6
aI6
aI6
aI10
aI4
aI4
aI6
aa(lp4374
I6
aI6
aI6
aI10
aI4
aI4
aI6
aa(lp4375
I6
aI6
aI6
aI10
aI4
aI4
aI6
aa(lp4376
I6
aI6
aI6
aI10
aI4
aI4
aI6
aa(lp4377
I6
aI6
aI6
aI10
aI4
aI4
aI6
aa(lp4378
I6
aI6
aI6
aI10
aI4
aI4
aI6
aa(lp4379
I6
aI6
aI6
aI10
aI4
aI4
aI6
aa(lp4380
I6
aI6
aI6
aI10
aI4
aI4
aI6
aa(lp4381
I6
aI6
aI6
aI10
aI4
aI4
aI6
aa(lp4382
I6
aI6
aI6
aI10
aI4
aI4
aI6
aa(lp4383
I6
aI6
aI6
aI10
aI4
aI4
aI6
aa(lp4384
I6
aI6
aI6
aI10
aI4
aI4
aI6
aa(lp4385
I6
aI6
aI6
aI10
aI4
aI4
aI6
aa(lp4386
I6
aI6
aI6
aI10
aI4
aI4
aI6
aa(lp4387
I6
aI6
aI6
aI10
aI4
aI4
aI6
aa(lp4388
I6
aI6
aI6
aI10
aI4
aI4
aI6
aa(lp4389
I6
aI6
aI6
aI10
aI4
aI4
aI6
aa(lp4390
I6
aI6
aI6
aI10
aI4
aI4
aI6
aa(lp4391
I6
aI6
aI6
aI10
aI4
aI4
aI6
aa(lp4392
I6
aI6
aI6
aI10
aI4
aI4
aI6
aa(lp4393
I6
aI6
aI6
aI10
aI4
aI4
aI6
aa(lp4394
I6
aI6
aI6
aI10
aI4
aI4
aI6
aa(lp4395
I6
aI6
aI6
aI10
aI4
aI4
aI6
aa(lp4396
I6
aI6
aI6
aI10
aI4
aI4
aI6
aa(lp4397
I6
aI6
aI6
aI10
aI4
aI4
aI6
aa(lp4398
I6
aI6
aI6
aI10
aI4
aI4
aI6
aa(lp4399
I6
aI6
aI6
aI10
aI4
aI4
aI6
aa(lp4400
I6
aI6
aI6
aI10
aI4
aI4
aI6
aa(lp4401
I6
aI6
aI6
aI10
aI4
aI4
aI6
aa(lp4402
I6
aI6
aI6
aI10
aI4
aI4
aI6
aa(lp4403
I6
aI6
aI6
aI10
aI4
aI4
aI6
aa(lp4404
I6
aI6
aI6
aI10
aI4
aI4
aI6
aa(lp4405
I6
aI6
aI6
aI10
aI4
aI4
aI6
aa(lp4406
I6
aI6
aI6
aI10
aI4
aI4
aI6
aa(lp4407
I6
aI6
aI6
aI10
aI4
aI4
aI6
aa(lp4408
I6
aI6
aI6
aI10
aI4
aI4
aI6
aa(lp4409
I6
aI6
aI6
aI10
aI4
aI4
aI6
aa(lp4410
I6
aI6
aI6
aI10
aI4
aI4
aI6
aa(lp4411
I6
aI6
aI6
aI10
aI4
aI4
aI6
aa(lp4412
I6
aI6
aI6
aI10
aI4
aI4
aI6
aa(lp4413
I6
aI6
aI6
aI10
aI4
aI4
aI6
aa(lp4414
I6
aI6
aI6
aI10
aI4
aI4
aI6
aa(lp4415
I6
aI6
aI6
aI10
aI4
aI4
aI6
aa(lp4416
I6
aI6
aI6
aI10
aI4
aI4
aI6
aa(lp4417
I6
aI6
aI6
aI10
aI4
aI4
aI6
aa(lp4418
I6
aI6
aI6
aI10
aI4
aI4
aI6
aa(lp4419
I6
aI6
aI6
aI10
aI4
aI4
aI6
aa(lp4420
I6
aI6
aI6
aI10
aI4
aI4
aI6
aa(lp4421
I6
aI6
aI6
aI10
aI4
aI4
aI6
aa(lp4422
I6
aI6
aI6
aI10
aI4
aI4
aI6
aa(lp4423
I6
aI6
aI6
aI10
aI4
aI4
aI6
aa(lp4424
I6
aI6
aI6
aI10
aI4
aI4
aI6
aa(lp4425
I6
aI6
aI6
aI10
aI4
aI4
aI6
aa(lp4426
I6
aI6
aI6
aI10
aI4
aI4
aI6
aa(lp4427
I6
aI6
aI6
aI10
aI4
aI4
aI6
aa(lp4428
I6
aI6
aI6
aI10
aI4
aI4
aI6
aa(lp4429
I6
aI6
aI6
aI10
aI4
aI4
aI6
aa(lp4430
I6
aI6
aI6
aI10
aI4
aI4
aI6
aa(lp4431
I6
aI6
aI6
aI10
aI4
aI4
aI6
aa(lp4432
I6
aI6
aI6
aI10
aI4
aI4
aI6
aa(lp4433
I6
aI6
aI6
aI10
aI4
aI4
aI6
aa(lp4434
I6
aI6
aI6
aI10
aI4
aI4
aI6
aa(lp4435
I6
aI6
aI6
aI10
aI4
aI4
aI6
aa(lp4436
I6
aI6
aI6
aI10
aI4
aI4
aI6
aa(lp4437
I6
aI6
aI6
aI10
aI4
aI4
aI6
aa(lp4438
I6
aI6
aI6
aI10
aI4
aI4
aI6
aa(lp4439
I6
aI6
aI6
aI10
aI4
aI4
aI6
aa(lp4440
I6
aI6
aI6
aI10
aI4
aI4
aI6
aa(lp4441
I6
aI6
aI6
aI10
aI4
aI4
aI6
aa(lp4442
I6
aI6
aI6
aI10
aI4
aI4
aI6
aa(lp4443
I6
aI6
aI6
aI10
aI4
aI4
aI6
aa(lp4444
I6
aI6
aI6
aI10
aI4
aI4
aI6
aa(lp4445
I6
aI6
aI6
aI10
aI4
aI4
aI6
aa(lp4446
I6
aI6
aI6
aI10
aI4
aI4
aI6
aa(lp4447
I6
aI6
aI6
aI10
aI4
aI4
aI6
aa(lp4448
I6
aI6
aI6
aI10
aI4
aI4
aI6
aa(lp4449
I6
aI6
aI6
aI10
aI4
aI4
aI6
aa(lp4450
I6
aI6
aI6
aI10
aI4
aI4
aI6
aa(lp4451
I6
aI6
aI6
aI10
aI4
aI4
aI6
aa(lp4452
I6
aI6
aI6
aI10
aI4
aI4
aI6
aa(lp4453
I6
aI6
aI6
aI10
aI4
aI4
aI6
aa(lp4454
I6
aI6
aI6
aI10
aI4
aI4
aI6
aa(lp4455
I6
aI6
aI6
aI10
aI4
aI4
aI6
aa(lp4456
I6
aI6
aI6
aI10
aI4
aI4
aI6
aa(lp4457
I6
aI6
aI6
aI10
aI4
aI4
aI6
aa(lp4458
I6
aI6
aI6
aI10
aI4
aI4
aI6
aa(lp4459
I6
aI6
aI6
aI10
aI4
aI4
aI6
aa(lp4460
I6
aI6
aI6
aI10
aI4
aI4
aI6
aa(lp4461
I6
aI6
aI6
aI10
aI4
aI4
aI6
aa(lp4462
I6
aI6
aI6
aI10
aI4
aI4
aI6
aa(lp4463
I6
aI6
aI6
aI10
aI4
aI4
aI6
aa(lp4464
I6
aI6
aI6
aI10
aI4
aI4
aI6
aa(lp4465
I6
aI6
aI6
aI10
aI4
aI4
aI6
aa(lp4466
I6
aI6
aI6
aI10
aI4
aI4
aI6
aa(lp4467
I6
aI6
aI6
aI10
aI4
aI4
aI6
aa(lp4468
I6
aI6
aI6
aI10
aI4
aI4
aI6
aa(lp4469
I6
aI6
aI6
aI10
aI4
aI4
aI6
aa(lp4470
I6
aI6
aI6
aI10
aI4
aI4
aI6
aa(lp4471
I6
aI6
aI6
aI10
aI4
aI4
aI6
aa(lp4472
I6
aI6
aI6
aI10
aI4
aI4
aI6
aa(lp4473
I6
aI6
aI6
aI10
aI4
aI4
aI6
aa(lp4474
I6
aI6
aI6
aI10
aI4
aI4
aI6
aa(lp4475
I6
aI6
aI6
aI10
aI4
aI4
aI6
aa(lp4476
I6
aI6
aI6
aI10
aI4
aI4
aI6
aa(lp4477
I6
aI6
aI6
aI10
aI4
aI4
aI6
aa(lp4478
I6
aI6
aI6
aI10
aI4
aI4
aI6
aa(lp4479
I6
aI6
aI6
aI10
aI4
aI4
aI6
aa(lp4480
I6
aI6
aI6
aI10
aI4
aI4
aI6
aa(lp4481
I6
aI6
aI6
aI10
aI4
aI4
aI6
aa(lp4482
I6
aI6
aI6
aI10
aI4
aI4
aI6
aa(lp4483
I6
aI6
aI6
aI10
aI4
aI4
aI6
aa(lp4484
I6
aI6
aI6
aI10
aI4
aI4
aI6
aa(lp4485
I6
aI6
aI6
aI10
aI4
aI4
aI6
aa(lp4486
I6
aI6
aI6
aI10
aI4
aI4
aI6
aa(lp4487
I6
aI6
aI6
aI10
aI4
aI4
aI6
aa(lp4488
I6
aI6
aI6
aI10
aI4
aI4
aI6
aa(lp4489
I6
aI6
aI6
aI10
aI4
aI4
aI6
aa(lp4490
I6
aI6
aI6
aI10
aI4
aI4
aI6
aa(lp4491
I6
aI6
aI6
aI10
aI4
aI4
aI6
aa(lp4492
I6
aI6
aI6
aI10
aI4
aI4
aI6
aa(lp4493
I6
aI6
aI6
aI10
aI4
aI4
aI6
aa(lp4494
I6
aI6
aI6
aI10
aI4
aI4
aI6
aa(lp4495
I6
aI6
aI6
aI10
aI4
aI4
aI6
aa(lp4496
I6
aI6
aI6
aI10
aI4
aI4
aI6
aa(lp4497
I6
aI6
aI6
aI10
aI4
aI4
aI6
aa(lp4498
I6
aI6
aI6
aI10
aI4
aI4
aI6
aa(lp4499
I6
aI6
aI6
aI10
aI4
aI4
aI6
aa(lp4500
I6
aI6
aI6
aI10
aI4
aI4
aI6
aa(lp4501
I6
aI6
aI6
aI10
aI4
aI4
aI6
aa(lp4502
I6
aI6
aI6
aI10
aI4
aI4
aI6
aa(lp4503
I6
aI6
aI6
aI10
aI4
aI4
aI6
aa(lp4504
I6
aI6
aI6
aI10
aI4
aI4
aI6
aa(lp4505
I6
aI6
aI6
aI10
aI4
aI4
aI6
aa(lp4506
I6
aI6
aI6
aI10
aI4
aI4
aI6
aa(lp4507
I6
aI6
aI6
aI10
aI4
aI4
aI6
aa(lp4508
I6
aI6
aI6
aI10
aI4
aI4
aI6
aa(lp4509
I6
aI6
aI6
aI10
aI4
aI4
aI6
aa(lp4510
I6
aI6
aI6
aI10
aI4
aI4
aI6
aa(lp4511
I6
aI6
aI6
aI10
aI4
aI4
aI6
aa(lp4512
I6
aI6
aI6
aI10
aI4
aI4
aI6
aa(lp4513
I6
aI6
aI6
aI10
aI4
aI4
aI6
aa(lp4514
I6
aI6
aI6
aI10
aI4
aI4
aI6
aa(lp4515
I6
aI6
aI6
aI10
aI4
aI4
aI6
aa(lp4516
I6
aI6
aI6
aI10
aI4
aI4
aI6
aa(lp4517
I6
aI6
aI6
aI10
aI4
aI4
aI6
aa(lp4518
I6
aI6
aI6
aI10
aI4
aI4
aI6
aa(lp4519
I6
aI6
aI6
aI10
aI4
aI4
aI6
aa(lp4520
I6
aI6
aI6
aI10
aI4
aI4
aI6
aa(lp4521
I6
aI6
aI6
aI10
aI4
aI4
aI6
aa(lp4522
I6
aI6
aI6
aI10
aI4
aI4
aI6
aa(lp4523
I6
aI6
aI6
aI10
aI4
aI4
aI6
aa(lp4524
I6
aI6
aI6
aI10
aI4
aI4
aI6
aa(lp4525
I6
aI6
aI6
aI10
aI4
aI4
aI6
aa(lp4526
I6
aI6
aI6
aI10
aI4
aI4
aI6
aa(lp4527
I6
aI6
aI6
aI10
aI4
aI4
aI6
aa(lp4528
I6
aI6
aI6
aI10
aI4
aI4
aI6
aa(lp4529
I6
aI6
aI6
aI10
aI4
aI4
aI6
aa(lp4530
I6
aI6
aI6
aI10
aI4
aI4
aI6
aa(lp4531
I6
aI6
aI6
aI10
aI4
aI4
aI6
aa(lp4532
I6
aI6
aI6
aI10
aI4
aI4
aI6
aa(lp4533
I6
aI6
aI6
aI10
aI4
aI4
aI6
aa(lp4534
I6
aI6
aI6
aI10
aI4
aI4
aI6
aa(lp4535
I6
aI6
aI6
aI10
aI4
aI4
aI6
aa(lp4536
I6
aI6
aI6
aI10
aI4
aI4
aI6
aa(lp4537
I6
aI6
aI6
aI10
aI4
aI4
aI6
aa(lp4538
I6
aI6
aI6
aI10
aI4
aI4
aI6
aa(lp4539
I6
aI6
aI6
aI10
aI4
aI4
aI6
aa(lp4540
I6
aI6
aI6
aI10
aI4
aI4
aI6
aa(lp4541
I6
aI6
aI6
aI10
aI4
aI4
aI6
aa(lp4542
I6
aI6
aI6
aI10
aI4
aI4
aI6
aa(lp4543
I6
aI6
aI6
aI10
aI4
aI4
aI6
aa(lp4544
I6
aI6
aI6
aI10
aI4
aI4
aI6
aa(lp4545
I6
aI6
aI6
aI10
aI4
aI4
aI6
aa(lp4546
I6
aI6
aI6
aI10
aI4
aI4
aI6
aa(lp4547
I6
aI6
aI6
aI10
aI4
aI4
aI6
aa(lp4548
I6
aI6
aI6
aI10
aI4
aI4
aI6
aa(lp4549
I6
aI6
aI6
aI10
aI4
aI4
aI6
aa(lp4550
I6
aI6
aI6
aI10
aI4
aI4
aI6
aa(lp4551
I6
aI6
aI6
aI10
aI4
aI4
aI6
aa(lp4552
I6
aI6
aI6
aI10
aI4
aI4
aI6
aa(lp4553
I6
aI6
aI6
aI10
aI4
aI4
aI6
aa(lp4554
I6
aI6
aI6
aI10
aI4
aI4
aI6
aa(lp4555
I6
aI6
aI6
aI10
aI4
aI4
aI6
aa(lp4556
I6
aI6
aI6
aI10
aI4
aI4
aI6
aa(lp4557
I6
aI6
aI6
aI10
aI4
aI4
aI6
aa(lp4558
I6
aI6
aI6
aI10
aI4
aI4
aI6
aa(lp4559
I6
aI6
aI6
aI10
aI4
aI4
aI6
aa(lp4560
I6
aI6
aI6
aI10
aI4
aI4
aI6
aa(lp4561
I6
aI6
aI6
aI10
aI4
aI4
aI6
aa(lp4562
I6
aI6
aI6
aI10
aI4
aI4
aI6
aa(lp4563
I6
aI6
aI6
aI10
aI4
aI4
aI6
aa(lp4564
I6
aI6
aI6
aI10
aI4
aI4
aI6
aa(lp4565
I6
aI6
aI6
aI10
aI4
aI4
aI6
aa(lp4566
I6
aI6
aI6
aI10
aI4
aI4
aI6
aa(lp4567
I6
aI6
aI6
aI10
aI4
aI4
aI6
aa(lp4568
I6
aI6
aI6
aI10
aI4
aI4
aI6
aa(lp4569
I6
aI6
aI6
aI10
aI4
aI4
aI6
aa(lp4570
I6
aI6
aI6
aI10
aI4
aI4
aI6
aa(lp4571
I6
aI6
aI6
aI10
aI4
aI4
aI6
aa(lp4572
I6
aI6
aI6
aI10
aI4
aI4
aI6
aa(lp4573
I6
aI6
aI6
aI10
aI4
aI4
aI6
aa(lp4574
I6
aI6
aI6
aI10
aI4
aI4
aI6
aa(lp4575
I6
aI6
aI6
aI10
aI4
aI4
aI6
aa(lp4576
I6
aI6
aI6
aI10
aI4
aI4
aI6
aa(lp4577
I6
aI6
aI6
aI10
aI4
aI4
aI6
aa(lp4578
I6
aI6
aI6
aI10
aI4
aI4
aI6
aa(lp4579
I6
aI6
aI6
aI10
aI4
aI4
aI6
aa(lp4580
I6
aI6
aI6
aI10
aI4
aI4
aI6
aa(lp4581
I6
aI6
aI6
aI10
aI4
aI4
aI6
aa(lp4582
I6
aI6
aI6
aI10
aI4
aI4
aI6
aa(lp4583
I6
aI6
aI6
aI10
aI4
aI4
aI6
aa(lp4584
I6
aI6
aI6
aI10
aI4
aI4
aI6
aa(lp4585
I6
aI6
aI6
aI10
aI4
aI4
aI6
aa(lp4586
I6
aI6
aI6
aI10
aI4
aI4
aI6
aa(lp4587
I6
aI6
aI6
aI10
aI4
aI4
aI6
aa(lp4588
I6
aI6
aI6
aI10
aI4
aI4
aI6
aa(lp4589
I6
aI6
aI6
aI10
aI4
aI4
aI6
aa(lp4590
I6
aI6
aI6
aI10
aI4
aI4
aI6
aa(lp4591
I6
aI6
aI6
aI10
aI4
aI4
aI6
aa(lp4592
I6
aI6
aI6
aI10
aI4
aI4
aI6
aa(lp4593
I6
aI6
aI6
aI10
aI4
aI4
aI6
aa(lp4594
I6
aI6
aI6
aI10
aI4
aI4
aI6
aa(lp4595
I6
aI6
aI6
aI10
aI4
aI4
aI6
aa(lp4596
I6
aI6
aI6
aI10
aI4
aI4
aI6
aa(lp4597
I6
aI6
aI6
aI10
aI4
aI4
aI6
aa(lp4598
I6
aI6
aI6
aI10
aI4
aI4
aI6
aa(lp4599
I6
aI6
aI6
aI10
aI4
aI4
aI6
aa(lp4600
I6
aI6
aI6
aI10
aI4
aI4
aI6
aa(lp4601
I6
aI6
aI6
aI10
aI4
aI4
aI6
aa(lp4602
I6
aI6
aI6
aI10
aI4
aI4
aI6
aa(lp4603
I6
aI6
aI6
aI10
aI4
aI4
aI6
aa(lp4604
I6
aI6
aI6
aI10
aI4
aI4
aI6
aa(lp4605
I6
aI6
aI6
aI10
aI4
aI4
aI6
aa(lp4606
I6
aI6
aI6
aI10
aI4
aI4
aI6
aa(lp4607
I6
aI6
aI6
aI10
aI4
aI4
aI6
aa(lp4608
I6
aI6
aI6
aI10
aI4
aI4
aI6
aa(lp4609
I6
aI6
aI6
aI10
aI4
aI4
aI6
aa(lp4610
I6
aI6
aI6
aI10
aI4
aI4
aI6
aa(lp4611
I6
aI6
aI6
aI10
aI4
aI4
aI6
aa(lp4612
I6
aI6
aI6
aI10
aI4
aI4
aI6
aa(lp4613
I6
aI6
aI6
aI10
aI4
aI4
aI6
aa(lp4614
I6
aI6
aI6
aI10
aI4
aI4
aI6
aa(lp4615
I6
aI6
aI6
aI10
aI4
aI4
aI6
aa(lp4616
I6
aI6
aI6
aI10
aI4
aI4
aI6
aa(lp4617
I6
aI6
aI6
aI10
aI4
aI4
aI6
aa(lp4618
I6
aI6
aI6
aI10
aI4
aI4
aI6
aa(lp4619
I6
aI6
aI6
aI10
aI4
aI4
aI6
aa(lp4620
I6
aI6
aI6
aI10
aI4
aI4
aI6
aa(lp4621
I6
aI6
aI6
aI10
aI4
aI4
aI6
aa(lp4622
I6
aI6
aI6
aI10
aI4
aI4
aI6
aa(lp4623
I6
aI6
aI6
aI10
aI4
aI4
aI6
aa(lp4624
I6
aI6
aI6
aI10
aI4
aI4
aI6
aa(lp4625
I6
aI6
aI6
aI10
aI4
aI4
aI6
aa(lp4626
I6
aI6
aI6
aI10
aI4
aI4
aI6
aa(lp4627
I6
aI6
aI6
aI10
aI4
aI4
aI6
aa(lp4628
I6
aI6
aI6
aI10
aI4
aI4
aI6
aa(lp4629
I6
aI6
aI6
aI10
aI4
aI4
aI6
aa(lp4630
I6
aI6
aI6
aI10
aI4
aI4
aI6
aa(lp4631
I6
aI6
aI6
aI10
aI4
aI4
aI6
aa(lp4632
I6
aI6
aI6
aI10
aI4
aI4
aI6
aa(lp4633
I6
aI6
aI6
aI10
aI4
aI4
aI6
aa(lp4634
I6
aI6
aI6
aI10
aI4
aI4
aI6
aa(lp4635
I6
aI6
aI6
aI10
aI4
aI4
aI6
aa(lp4636
I6
aI6
aI6
aI10
aI4
aI4
aI6
aa(lp4637
I6
aI6
aI6
aI10
aI4
aI4
aI6
aa(lp4638
I6
aI6
aI6
aI10
aI4
aI4
aI6
aa(lp4639
I6
aI6
aI6
aI10
aI4
aI4
aI6
aa(lp4640
I6
aI6
aI6
aI10
aI4
aI4
aI6
aa(lp4641
I6
aI6
aI6
aI10
aI4
aI4
aI6
aa(lp4642
I6
aI6
aI6
aI10
aI4
aI4
aI6
aa(lp4643
I6
aI6
aI6
aI10
aI4
aI4
aI6
aa(lp4644
I6
aI6
aI6
aI10
aI4
aI4
aI6
aa(lp4645
I6
aI6
aI6
aI10
aI4
aI4
aI6
aa(lp4646
I6
aI6
aI6
aI10
aI4
aI4
aI6
aa(lp4647
I6
aI6
aI6
aI10
aI4
aI4
aI6
aa(lp4648
I6
aI6
aI6
aI10
aI4
aI4
aI6
aa(lp4649
I6
aI6
aI6
aI10
aI4
aI4
aI6
aa(lp4650
I6
aI6
aI6
aI10
aI4
aI4
aI6
aa(lp4651
I6
aI6
aI6
aI10
aI4
aI4
aI6
aa(lp4652
I6
aI6
aI6
aI10
aI4
aI4
aI6
aa(lp4653
I6
aI6
aI6
aI10
aI4
aI4
aI6
aa(lp4654
I6
aI6
aI6
aI10
aI4
aI4
aI6
aa(lp4655
I6
aI6
aI6
aI10
aI4
aI4
aI6
aa(lp4656
I6
aI6
aI6
aI10
aI4
aI4
aI6
aa(lp4657
I6
aI6
aI6
aI10
aI4
aI4
aI6
aa(lp4658
I6
aI6
aI6
aI10
aI4
aI4
aI6
aa(lp4659
I6
aI6
aI6
aI10
aI4
aI4
aI6
aa(lp4660
I6
aI6
aI6
aI10
aI4
aI4
aI6
aa(lp4661
I6
aI6
aI6
aI10
aI4
aI4
aI6
aa(lp4662
I6
aI6
aI6
aI10
aI4
aI4
aI6
aa(lp4663
I6
aI6
aI6
aI10
aI4
aI4
aI6
aa(lp4664
I6
aI6
aI6
aI10
aI4
aI4
aI6
aa(lp4665
I6
aI6
aI6
aI10
aI4
aI4
aI6
aa(lp4666
I6
aI6
aI6
aI10
aI4
aI4
aI6
aa(lp4667
I6
aI6
aI6
aI10
aI4
aI4
aI6
aa(lp4668
I6
aI6
aI6
aI10
aI4
aI4
aI6
aa(lp4669
I6
aI6
aI6
aI10
aI4
aI4
aI6
aa(lp4670
I6
aI6
aI6
aI10
aI4
aI4
aI6
aa(lp4671
I6
aI6
aI6
aI10
aI4
aI4
aI6
aa(lp4672
I6
aI6
aI6
aI10
aI4
aI4
aI6
aa(lp4673
I6
aI6
aI6
aI10
aI4
aI4
aI6
aa(lp4674
I6
aI6
aI6
aI10
aI4
aI4
aI6
aa(lp4675
I6
aI6
aI6
aI10
aI4
aI4
aI6
aa(lp4676
I6
aI6
aI6
aI10
aI4
aI4
aI6
aa(lp4677
I6
aI6
aI6
aI10
aI4
aI4
aI6
aa(lp4678
I6
aI6
aI6
aI10
aI4
aI4
aI6
aa(lp4679
I6
aI6
aI6
aI10
aI4
aI4
aI6
aa(lp4680
I6
aI6
aI6
aI10
aI4
aI4
aI6
aa(lp4681
I6
aI6
aI6
aI10
aI4
aI4
aI6
aa(lp4682
I6
aI6
aI6
aI10
aI4
aI4
aI6
aa(lp4683
I6
aI6
aI6
aI10
aI4
aI4
aI6
aa(lp4684
I6
aI6
aI6
aI10
aI4
aI4
aI6
aa(lp4685
I6
aI6
aI6
aI10
aI4
aI4
aI6
aa(lp4686
I6
aI6
aI6
aI10
aI4
aI4
aI6
aa(lp4687
I6
aI6
aI6
aI10
aI4
aI4
aI6
aa(lp4688
I6
aI6
aI6
aI10
aI4
aI4
aI6
aa(lp4689
I6
aI6
aI6
aI10
aI4
aI4
aI6
aa(lp4690
I6
aI6
aI6
aI10
aI4
aI4
aI6
aa(lp4691
I6
aI6
aI6
aI10
aI4
aI4
aI6
aa(lp4692
I6
aI6
aI6
aI10
aI4
aI4
aI6
aa(lp4693
I6
aI6
aI6
aI10
aI4
aI4
aI6
aa(lp4694
I6
aI6
aI6
aI10
aI4
aI4
aI6
aa(lp4695
I6
aI6
aI6
aI10
aI4
aI4
aI6
aa(lp4696
I6
aI6
aI6
aI10
aI4
aI4
aI6
aa(lp4697
I6
aI6
aI6
aI10
aI4
aI4
aI6
aa(lp4698
I6
aI6
aI6
aI10
aI4
aI4
aI6
aa(lp4699
I6
aI6
aI6
aI10
aI4
aI4
aI6
aa(lp4700
I6
aI6
aI6
aI10
aI4
aI4
aI6
aa(lp4701
I6
aI6
aI6
aI10
aI4
aI4
aI6
aa(lp4702
I6
aI6
aI6
aI10
aI4
aI4
aI6
aa(lp4703
I6
aI6
aI6
aI10
aI4
aI4
aI6
aa(lp4704
I6
aI6
aI6
aI10
aI4
aI4
aI6
aa(lp4705
I6
aI6
aI6
aI10
aI4
aI4
aI6
aa(lp4706
I6
aI6
aI6
aI10
aI4
aI4
aI6
aa(lp4707
I6
aI6
aI6
aI10
aI4
aI4
aI6
aa(lp4708
I6
aI6
aI6
aI10
aI4
aI4
aI6
aa(lp4709
I6
aI6
aI6
aI10
aI4
aI4
aI6
aa(lp4710
I6
aI6
aI6
aI10
aI4
aI4
aI6
aa(lp4711
I6
aI6
aI6
aI10
aI4
aI4
aI6
aa(lp4712
I6
aI6
aI6
aI10
aI4
aI4
aI6
aa(lp4713
I6
aI6
aI6
aI10
aI4
aI4
aI6
aa(lp4714
I6
aI6
aI6
aI10
aI4
aI4
aI6
aa(lp4715
I6
aI6
aI6
aI10
aI4
aI4
aI6
aa(lp4716
I6
aI6
aI6
aI10
aI4
aI4
aI6
aa(lp4717
I6
aI6
aI6
aI10
aI4
aI4
aI6
aa(lp4718
I6
aI6
aI6
aI10
aI4
aI4
aI6
aa(lp4719
I6
aI6
aI6
aI10
aI4
aI4
aI6
aa(lp4720
I6
aI6
aI6
aI10
aI4
aI4
aI6
aa(lp4721
I6
aI6
aI6
aI10
aI4
aI4
aI6
aa(lp4722
I6
aI6
aI6
aI10
aI4
aI4
aI6
aa(lp4723
I6
aI6
aI6
aI10
aI4
aI4
aI6
aa(lp4724
I6
aI6
aI6
aI10
aI4
aI4
aI6
aa(lp4725
I6
aI6
aI6
aI10
aI4
aI4
aI6
aa(lp4726
I6
aI6
aI6
aI10
aI4
aI4
aI6
aa(lp4727
I6
aI6
aI6
aI10
aI4
aI4
aI6
aa(lp4728
I6
aI6
aI6
aI10
aI4
aI4
aI6
aa(lp4729
I6
aI6
aI6
aI10
aI4
aI4
aI6
aa(lp4730
I6
aI6
aI6
aI10
aI4
aI4
aI6
aa(lp4731
I6
aI6
aI6
aI10
aI4
aI4
aI6
aa(lp4732
I6
aI6
aI6
aI10
aI4
aI4
aI6
aa(lp4733
I6
aI6
aI6
aI10
aI4
aI4
aI6
aa(lp4734
I6
aI6
aI6
aI10
aI4
aI4
aI6
aa(lp4735
I6
aI6
aI6
aI10
aI4
aI4
aI6
aa(lp4736
I6
aI6
aI6
aI10
aI4
aI4
aI6
aa(lp4737
I6
aI6
aI6
aI10
aI4
aI4
aI6
aa(lp4738
I6
aI6
aI6
aI10
aI4
aI4
aI6
aa(lp4739
I6
aI6
aI6
aI10
aI4
aI4
aI6
aa(lp4740
I6
aI6
aI6
aI10
aI4
aI4
aI6
aa(lp4741
I6
aI6
aI6
aI10
aI4
aI4
aI6
aa(lp4742
I6
aI6
aI6
aI10
aI4
aI4
aI6
aa(lp4743
I6
aI6
aI6
aI10
aI4
aI4
aI6
aa(lp4744
I6
aI6
aI6
aI10
aI4
aI4
aI6
aa(lp4745
I6
aI6
aI6
aI10
aI4
aI4
aI6
aa(lp4746
I6
aI6
aI6
aI10
aI4
aI4
aI6
aa(lp4747
I6
aI6
aI6
aI10
aI4
aI4
aI6
aa(lp4748
I6
aI6
aI6
aI10
aI4
aI4
aI6
aa(lp4749
I6
aI6
aI6
aI10
aI4
aI4
aI6
aa(lp4750
I6
aI6
aI6
aI10
aI4
aI4
aI6
aa(lp4751
I6
aI6
aI6
aI10
aI4
aI4
aI6
aa(lp4752
I6
aI6
aI6
aI10
aI4
aI4
aI6
aa(lp4753
I6
aI6
aI6
aI10
aI4
aI4
aI6
aa(lp4754
I6
aI6
aI6
aI10
aI4
aI4
aI6
aa(lp4755
I6
aI6
aI6
aI10
aI4
aI4
aI6
aa(lp4756
I6
aI6
aI6
aI10
aI4
aI4
aI6
aa(lp4757
I6
aI6
aI6
aI10
aI4
aI4
aI6
aa(lp4758
I6
aI6
aI6
aI10
aI4
aI4
aI6
aa(lp4759
I6
aI6
aI6
aI10
aI4
aI4
aI6
aa(lp4760
I6
aI6
aI6
aI10
aI4
aI4
aI6
aa(lp4761
I6
aI6
aI6
aI10
aI4
aI4
aI6
aa(lp4762
I6
aI6
aI6
aI10
aI4
aI4
aI6
aa(lp4763
I6
aI6
aI6
aI10
aI4
aI4
aI6
aa(lp4764
I6
aI6
aI6
aI10
aI4
aI4
aI6
aa(lp4765
I6
aI6
aI6
aI10
aI4
aI4
aI6
aa(lp4766
I6
aI6
aI6
aI10
aI4
aI4
aI6
aa(lp4767
I6
aI6
aI6
aI10
aI4
aI4
aI6
aa(lp4768
I6
aI6
aI6
aI10
aI4
aI4
aI6
aa(lp4769
I6
aI6
aI6
aI10
aI4
aI4
aI6
aa(lp4770
I6
aI6
aI6
aI10
aI4
aI4
aI6
aa(lp4771
I6
aI6
aI6
aI10
aI4
aI4
aI6
aa(lp4772
I6
aI6
aI6
aI10
aI4
aI4
aI6
aa(lp4773
I6
aI6
aI6
aI10
aI4
aI4
aI6
aa(lp4774
I6
aI6
aI6
aI10
aI4
aI4
aI6
aa(lp4775
I6
aI6
aI6
aI10
aI4
aI4
aI6
aa(lp4776
I6
aI6
aI6
aI10
aI4
aI4
aI6
aa(lp4777
I6
aI6
aI6
aI10
aI4
aI4
aI6
aa(lp4778
I6
aI6
aI6
aI10
aI4
aI4
aI6
aa(lp4779
I6
aI6
aI6
aI10
aI4
aI4
aI6
aa(lp4780
I6
aI6
aI6
aI10
aI4
aI4
aI6
aa(lp4781
I6
aI6
aI6
aI10
aI4
aI4
aI6
aa(lp4782
I6
aI6
aI6
aI10
aI4
aI4
aI6
aa(lp4783
I6
aI6
aI6
aI10
aI4
aI4
aI6
aa(lp4784
I6
aI6
aI6
aI10
aI4
aI4
aI6
aa(lp4785
I6
aI6
aI6
aI10
aI4
aI4
aI6
aa(lp4786
I6
aI6
aI6
aI10
aI4
aI4
aI6
aa(lp4787
I6
aI6
aI6
aI10
aI4
aI4
aI6
aa(lp4788
I6
aI6
aI6
aI10
aI4
aI4
aI6
aa(lp4789
I6
aI6
aI6
aI10
aI4
aI4
aI6
aa(lp4790
I6
aI6
aI6
aI10
aI4
aI4
aI6
aa(lp4791
I6
aI6
aI6
aI10
aI4
aI4
aI6
aa(lp4792
I6
aI6
aI6
aI10
aI4
aI4
aI6
aa(lp4793
I6
aI6
aI6
aI10
aI4
aI4
aI6
aa(lp4794
I6
aI6
aI6
aI10
aI4
aI4
aI6
aa(lp4795
I6
aI6
aI6
aI10
aI4
aI4
aI6
aa(lp4796
I6
aI6
aI6
aI10
aI4
aI4
aI6
aa(lp4797
I6
aI6
aI6
aI10
aI4
aI4
aI6
aa(lp4798
I6
aI6
aI6
aI10
aI4
aI4
aI6
aa(lp4799
I6
aI6
aI6
aI10
aI4
aI4
aI6
aa(lp4800
I6
aI6
aI6
aI10
aI4
aI4
aI6
aa(lp4801
I6
aI6
aI6
aI10
aI4
aI4
aI6
aa(lp4802
I6
aI6
aI6
aI10
aI4
aI4
aI6
aa(lp4803
I6
aI6
aI6
aI10
aI4
aI4
aI6
aa(lp4804
I6
aI6
aI6
aI10
aI4
aI4
aI6
aa(lp4805
I6
aI6
aI6
aI10
aI4
aI4
aI6
aa(lp4806
I6
aI6
aI6
aI10
aI4
aI4
aI6
aa(lp4807
I6
aI6
aI6
aI10
aI4
aI4
aI6
aa(lp4808
I6
aI6
aI6
aI10
aI4
aI4
aI6
aa(lp4809
I6
aI6
aI6
aI10
aI4
aI4
aI6
aa(lp4810
I6
aI6
aI6
aI10
aI4
aI4
aI6
aa(lp4811
I6
aI6
aI6
aI10
aI4
aI4
aI6
aa(lp4812
I6
aI6
aI6
aI10
aI4
aI4
aI6
aa(lp4813
I6
aI6
aI6
aI10
aI4
aI4
aI6
aa(lp4814
I6
aI6
aI6
aI10
aI4
aI4
aI6
aa(lp4815
I6
aI6
aI6
aI10
aI4
aI4
aI6
aa(lp4816
I6
aI6
aI6
aI10
aI4
aI4
aI6
aa(lp4817
I6
aI6
aI6
aI10
aI4
aI4
aI6
aa(lp4818
I6
aI6
aI6
aI10
aI4
aI4
aI6
aa(lp4819
I6
aI6
aI6
aI10
aI4
aI4
aI6
aa(lp4820
I6
aI6
aI6
aI10
aI4
aI4
aI6
aa(lp4821
I6
aI6
aI6
aI10
aI4
aI4
aI6
aa(lp4822
I6
aI6
aI6
aI10
aI4
aI4
aI6
aa(lp4823
I6
aI6
aI6
aI10
aI4
aI4
aI6
aa(lp4824
I6
aI6
aI6
aI10
aI4
aI4
aI6
aa(lp4825
I6
aI6
aI6
aI10
aI4
aI4
aI6
aa(lp4826
I6
aI6
aI6
aI10
aI4
aI4
aI6
aa(lp4827
I6
aI6
aI6
aI10
aI4
aI4
aI6
aa(lp4828
I6
aI6
aI6
aI10
aI4
aI4
aI6
aa(lp4829
I6
aI6
aI6
aI10
aI4
aI4
aI6
aa(lp4830
I6
aI6
aI6
aI10
aI4
aI4
aI6
aa(lp4831
I6
aI6
aI6
aI10
aI4
aI4
aI6
aa(lp4832
I6
aI6
aI6
aI10
aI4
aI4
aI6
aa(lp4833
I6
aI6
aI6
aI10
aI4
aI4
aI6
aa(lp4834
I6
aI6
aI6
aI10
aI4
aI4
aI6
aa(lp4835
I6
aI6
aI6
aI10
aI4
aI4
aI6
aa(lp4836
I6
aI6
aI6
aI10
aI4
aI4
aI6
aa(lp4837
I6
aI6
aI6
aI10
aI4
aI4
aI6
aa(lp4838
I6
aI6
aI6
aI10
aI4
aI4
aI6
aa(lp4839
I6
aI6
aI6
aI10
aI4
aI4
aI6
aa(lp4840
I6
aI6
aI6
aI10
aI4
aI4
aI6
aa(lp4841
I6
aI6
aI6
aI10
aI4
aI4
aI6
aa(lp4842
I6
aI6
aI6
aI10
aI4
aI4
aI6
aa(lp4843
I6
aI6
aI6
aI10
aI4
aI4
aI6
aa(lp4844
I6
aI6
aI6
aI10
aI4
aI4
aI6
aa(lp4845
I6
aI6
aI6
aI10
aI4
aI4
aI6
aa(lp4846
I6
aI6
aI6
aI10
aI4
aI4
aI6
aa(lp4847
I6
aI6
aI6
aI10
aI4
aI4
aI6
aa(lp4848
I6
aI6
aI6
aI10
aI4
aI4
aI6
aa(lp4849
I6
aI6
aI6
aI10
aI4
aI4
aI6
aa(lp4850
I6
aI6
aI6
aI10
aI4
aI4
aI6
aa(lp4851
I6
aI6
aI6
aI10
aI4
aI4
aI6
aa(lp4852
I6
aI6
aI6
aI10
aI4
aI4
aI6
aa(lp4853
I6
aI6
aI6
aI10
aI4
aI4
aI6
aa(lp4854
I6
aI6
aI6
aI10
aI4
aI4
aI6
aa(lp4855
I6
aI6
aI6
aI10
aI4
aI4
aI6
aa(lp4856
I6
aI6
aI6
aI10
aI4
aI4
aI6
aa(lp4857
I6
aI6
aI6
aI10
aI4
aI4
aI6
aa(lp4858
I6
aI6
aI6
aI10
aI4
aI4
aI6
aa(lp4859
I6
aI6
aI6
aI10
aI4
aI4
aI6
aa(lp4860
I6
aI6
aI6
aI10
aI4
aI4
aI6
aa(lp4861
I6
aI6
aI6
aI10
aI4
aI4
aI6
aa(lp4862
I6
aI6
aI6
aI10
aI4
aI4
aI6
aa(lp4863
I6
aI6
aI6
aI10
aI4
aI4
aI6
aa(lp4864
I6
aI6
aI6
aI10
aI4
aI4
aI6
aa(lp4865
I6
aI6
aI6
aI10
aI4
aI4
aI6
aa(lp4866
I6
aI6
aI6
aI10
aI4
aI4
aI6
aa(lp4867
I6
aI6
aI6
aI10
aI4
aI4
aI6
aa(lp4868
I6
aI6
aI6
aI10
aI4
aI4
aI6
aa(lp4869
I6
aI6
aI6
aI10
aI4
aI4
aI6
aa(lp4870
I6
aI6
aI6
aI10
aI4
aI4
aI6
aa(lp4871
I6
aI6
aI6
aI10
aI4
aI4
aI6
aa(lp4872
I6
aI6
aI6
aI10
aI4
aI4
aI6
aa(lp4873
I6
aI6
aI6
aI10
aI4
aI4
aI6
aa(lp4874
I6
aI6
aI6
aI10
aI4
aI4
aI6
aa(lp4875
I6
aI6
aI6
aI10
aI4
aI4
aI6
aa(lp4876
I6
aI6
aI6
aI10
aI4
aI4
aI6
aa(lp4877
I6
aI6
aI6
aI10
aI4
aI4
aI6
aa(lp4878
I6
aI6
aI6
aI10
aI4
aI4
aI6
aa(lp4879
I6
aI6
aI6
aI10
aI4
aI4
aI6
aa(lp4880
I6
aI6
aI6
aI10
aI4
aI4
aI6
aa(lp4881
I6
aI6
aI6
aI10
aI4
aI4
aI6
aa(lp4882
I6
aI6
aI6
aI10
aI4
aI4
aI6
aa(lp4883
I6
aI6
aI6
aI10
aI4
aI4
aI6
aa(lp4884
I6
aI6
aI6
aI10
aI4
aI4
aI6
aa(lp4885
I6
aI6
aI6
aI10
aI4
aI4
aI6
aa(lp4886
I6
aI6
aI6
aI10
aI4
aI4
aI6
aa(lp4887
I6
aI6
aI6
aI10
aI4
aI4
aI6
aa(lp4888
I6
aI6
aI6
aI10
aI4
aI4
aI6
aa(lp4889
I6
aI6
aI6
aI10
aI4
aI4
aI6
aa(lp4890
I6
aI6
aI6
aI10
aI4
aI4
aI6
aa(lp4891
I6
aI6
aI6
aI10
aI4
aI4
aI6
aa(lp4892
I6
aI6
aI6
aI10
aI4
aI4
aI6
aa(lp4893
I6
aI6
aI6
aI10
aI4
aI4
aI6
aa(lp4894
I6
aI6
aI6
aI10
aI4
aI4
aI6
aa(lp4895
I6
aI6
aI6
aI10
aI4
aI4
aI6
aa(lp4896
I6
aI6
aI6
aI10
aI4
aI4
aI6
aa(lp4897
I6
aI6
aI6
aI10
aI4
aI4
aI6
aa(lp4898
I6
aI6
aI6
aI10
aI4
aI4
aI6
aa(lp4899
I6
aI6
aI6
aI10
aI4
aI4
aI6
aa(lp4900
I6
aI6
aI6
aI10
aI4
aI4
aI6
aa(lp4901
I6
aI6
aI6
aI10
aI4
aI4
aI6
aa(lp4902
I6
aI6
aI6
aI10
aI4
aI4
aI6
aa(lp4903
I6
aI6
aI6
aI10
aI4
aI4
aI6
aa(lp4904
I6
aI6
aI6
aI10
aI4
aI4
aI6
aa(lp4905
I6
aI6
aI6
aI10
aI4
aI4
aI6
aa(lp4906
I6
aI6
aI6
aI10
aI4
aI4
aI6
aa(lp4907
I6
aI6
aI6
aI10
aI4
aI4
aI6
aa(lp4908
I6
aI6
aI6
aI10
aI4
aI4
aI6
aa(lp4909
I6
aI6
aI6
aI10
aI4
aI4
aI6
aa(lp4910
I6
aI6
aI6
aI10
aI4
aI4
aI6
aa(lp4911
I6
aI6
aI6
aI10
aI4
aI4
aI6
aa(lp4912
I6
aI6
aI6
aI10
aI4
aI4
aI6
aa(lp4913
I6
aI6
aI6
aI10
aI4
aI4
aI6
aa(lp4914
I6
aI6
aI6
aI10
aI4
aI4
aI6
aa(lp4915
I6
aI6
aI6
aI10
aI4
aI4
aI6
aa(lp4916
I6
aI6
aI6
aI10
aI4
aI4
aI6
aa(lp4917
I6
aI6
aI6
aI10
aI4
aI4
aI6
aa(lp4918
I6
aI6
aI6
aI10
aI4
aI4
aI6
aa(lp4919
I6
aI6
aI6
aI10
aI4
aI4
aI6
aa(lp4920
I6
aI6
aI6
aI10
aI4
aI4
aI6
aa(lp4921
I6
aI6
aI6
aI10
aI4
aI4
aI6
aa(lp4922
I6
aI6
aI6
aI10
aI4
aI4
aI6
aa(lp4923
I6
aI6
aI6
aI10
aI4
aI4
aI6
aa(lp4924
I6
aI6
aI6
aI10
aI4
aI4
aI6
aa(lp4925
I6
aI6
aI6
aI10
aI4
aI4
aI6
aa(lp4926
I6
aI6
aI6
aI10
aI4
aI4
aI6
aa(lp4927
I6
aI6
aI6
aI10
aI4
aI4
aI6
aa(lp4928
I6
aI6
aI6
aI10
aI4
aI4
aI6
aa(lp4929
I6
aI6
aI6
aI10
aI4
aI4
aI6
aa(lp4930
I6
aI6
aI6
aI10
aI4
aI4
aI6
aa(lp4931
I6
aI6
aI6
aI10
aI4
aI4
aI6
aa(lp4932
I6
aI6
aI6
aI10
aI4
aI4
aI6
aa(lp4933
I6
aI6
aI6
aI10
aI4
aI4
aI6
aa(lp4934
I6
aI6
aI6
aI10
aI4
aI4
aI6
aa(lp4935
I6
aI6
aI6
aI10
aI4
aI4
aI6
aa(lp4936
I6
aI6
aI6
aI10
aI4
aI4
aI6
aa(lp4937
I6
aI6
aI6
aI10
aI4
aI4
aI6
aa(lp4938
I6
aI6
aI6
aI10
aI4
aI4
aI6
aa(lp4939
I6
aI6
aI6
aI10
aI4
aI4
aI6
aa(lp4940
I6
aI6
aI6
aI10
aI4
aI4
aI6
aa(lp4941
I6
aI6
aI6
aI10
aI4
aI4
aI6
aa(lp4942
I6
aI6
aI6
aI10
aI4
aI4
aI6
aa(lp4943
I6
aI6
aI6
aI10
aI4
aI4
aI6
aa(lp4944
I6
aI6
aI6
aI10
aI4
aI4
aI6
aa(lp4945
I6
aI6
aI6
aI10
aI4
aI4
aI6
aa(lp4946
I6
aI6
aI6
aI10
aI4
aI4
aI6
aa(lp4947
I6
aI6
aI6
aI10
aI4
aI4
aI6
aa(lp4948
I6
aI6
aI6
aI10
aI4
aI4
aI6
aa(lp4949
I6
aI6
aI6
aI10
aI4
aI4
aI6
aa(lp4950
I6
aI6
aI6
aI10
aI4
aI4
aI6
aa(lp4951
I6
aI6
aI6
aI10
aI4
aI4
aI6
aa(lp4952
I6
aI6
aI6
aI10
aI4
aI4
aI6
aa(lp4953
I6
aI6
aI6
aI10
aI4
aI4
aI6
aa(lp4954
I6
aI6
aI6
aI10
aI4
aI4
aI6
aa(lp4955
I6
aI6
aI6
aI10
aI4
aI4
aI6
aa(lp4956
I6
aI6
aI6
aI10
aI4
aI4
aI6
aa(lp4957
I6
aI6
aI6
aI10
aI4
aI4
aI6
aa(lp4958
I6
aI6
aI6
aI10
aI4
aI4
aI6
aa(lp4959
I6
aI6
aI6
aI10
aI4
aI4
aI6
aa(lp4960
I6
aI6
aI6
aI10
aI4
aI4
aI6
aa(lp4961
I6
aI6
aI6
aI10
aI4
aI4
aI6
aa(lp4962
I6
aI6
aI6
aI10
aI4
aI4
aI6
aa(lp4963
I6
aI6
aI6
aI10
aI4
aI4
aI6
aa(lp4964
I6
aI6
aI6
aI10
aI4
aI4
aI6
aa(lp4965
I6
aI6
aI6
aI10
aI4
aI4
aI6
aa(lp4966
I6
aI6
aI6
aI10
aI4
aI4
aI6
aa(lp4967
I6
aI6
aI6
aI10
aI4
aI4
aI6
aa(lp4968
I6
aI6
aI6
aI10
aI4
aI4
aI6
aa(lp4969
I6
aI6
aI6
aI10
aI4
aI4
aI6
aa(lp4970
I6
aI6
aI6
aI10
aI4
aI4
aI6
aa(lp4971
I6
aI6
aI6
aI10
aI4
aI4
aI6
aa(lp4972
I6
aI6
aI6
aI10
aI4
aI4
aI6
aa(lp4973
I6
aI6
aI6
aI10
aI4
aI4
aI6
aa(lp4974
I6
aI6
aI6
aI10
aI4
aI4
aI6
aa(lp4975
I6
aI6
aI6
aI10
aI4
aI4
aI6
aa(lp4976
I6
aI6
aI6
aI10
aI4
aI4
aI6
aa(lp4977
I6
aI6
aI6
aI10
aI4
aI4
aI6
aa(lp4978
I6
aI6
aI6
aI10
aI4
aI4
aI6
aa(lp4979
I6
aI6
aI6
aI10
aI4
aI4
aI6
aa(lp4980
I6
aI6
aI6
aI10
aI4
aI4
aI6
aa(lp4981
I6
aI6
aI6
aI10
aI4
aI4
aI6
aa(lp4982
I6
aI6
aI6
aI10
aI4
aI4
aI6
aa(lp4983
I6
aI6
aI6
aI10
aI4
aI4
aI6
aa(lp4984
I6
aI6
aI6
aI10
aI4
aI4
aI6
aa(lp4985
I6
aI6
aI6
aI10
aI4
aI4
aI6
aa(lp4986
I6
aI6
aI6
aI10
aI4
aI4
aI6
aa(lp4987
I6
aI6
aI6
aI10
aI4
aI4
aI6
aa(lp4988
I6
aI6
aI6
aI10
aI4
aI4
aI6
aa(lp4989
I6
aI6
aI6
aI10
aI4
aI4
aI6
aa(lp4990
I6
aI6
aI6
aI10
aI4
aI4
aI6
aa(lp4991
I6
aI6
aI6
aI10
aI4
aI4
aI6
aa(lp4992
I6
aI6
aI6
aI10
aI4
aI4
aI6
aa(lp4993
I6
aI6
aI6
aI10
aI4
aI4
aI6
aa(lp4994
I6
aI6
aI6
aI10
aI4
aI4
aI6
aa(lp4995
I6
aI6
aI6
aI10
aI4
aI4
aI6
aa(lp4996
I6
aI6
aI6
aI10
aI4
aI4
aI6
aa(lp4997
I6
aI6
aI6
aI10
aI4
aI4
aI6
aa(lp4998
I6
aI6
aI6
aI10
aI4
aI4
aI6
aa(lp4999
I6
aI6
aI6
aI10
aI4
aI4
aI6
aa(lp5000
I6
aI6
aI6
aI10
aI4
aI4
aI6
aa(lp5001
I6
aI6
aI6
aI10
aI4
aI4
aI6
aa(lp5002
I6
aI6
aI6
aI10
aI4
aI4
aI6
aa.