(lp1
(lp2
a(lp3
a(lp4
a(lp5
a(lp6
a(lp7
a(lp8
a(lp9
a(lp10
a(lp11
a(lp12
I6
aa(lp13
I6
aa(lp14
I6
aa(lp15
I6
aa(lp16
I6
aa(lp17
I6
aa(lp18
I6
aa(lp19
I6
aa(lp20
I6
aa(lp21
I6
aa(lp22
I6
aa(lp23
I6
aa(lp24
I6
aa(lp25
I6
aa(lp26
I6
aa(lp27
I6
aa(lp28
I6
aa(lp29
I6
aa(lp30
I6
aa(lp31
I6
aa(lp32
I6
aa(lp33
I6
aa(lp34
I6
aa(lp35
I6
aa(lp36
I6
aa(lp37
I6
aa(lp38
I6
aa(lp39
I6
aa(lp40
I6
aa(lp41
I6
aI6
aa(lp42
I6
aI6
aa(lp43
I6
aI6
aa(lp44
I6
aI6
aa(lp45
I6
aI6
aa(lp46
I6
aI6
aa(lp47
I6
aI6
aa(lp48
I6
aI6
aa(lp49
I6
aI8
aI6
aa(lp50
I6
aI8
aI6
aa(lp51
I6
aI8
aI6
aa(lp52
I6
aI8
aI6
aa(lp53
I6
aI8
aI6
aa(lp54
I6
aI8
aI6
aa(lp55
I6
aI8
aI6
aa(lp56
I6
aI8
aI6
aa(lp57
I10
aI6
aI8
aI6
aa(lp58
I10
aI6
aI8
aI6
aa(lp59
I10
aI6
aI8
aI6
aa(lp60
I10
aI6
aI8
aI6
aa(lp61
I10
aI6
aI8
aI6
aa(lp62
I10
aI6
aI8
aI6
aa(lp63
I10
aI6
aI8
aI6
aa(lp64
I10
aI6
aI8
aI6
aa(lp65
I10
aI6
aI8
aI6
aa(lp66
I10
aI6
aI8
aI6
aa(lp67
I10
aI6
aI6
aa(lp68
I6
aI6
aI6
aa(lp69
I6
aI6
aI6
aa(lp70
I6
aI6
aI6
aa(lp71
I6
aI6
aI6
aa(lp72
I6
aI6
aI6
aa(lp73
I6
aI6
aI6
aa(lp74
I6
aI6
aI6
aa(lp75
I6
aI6
aI6
aa(lp76
I6
aI6
aI6
aa(lp77
I6
aI6
aI6
aa(lp78
I6
aI6
aI6
aa(lp79
I6
aI6
aI6
aa(lp80
I6
aI6
aI6
aa(lp81
I6
aI6
aI6
aa(lp82
I6
aI6
aI6
aa(lp83
I6
aI6
aI6
aa(lp84
I6
aI6
aI6
aa(lp85
I6
aI6
aI6
aa(lp86
I6
aI6
aI6
aa(lp87
I6
aI6
aI6
aa(lp88
I6
aI6
aI6
aa(lp89
I6
aI6
aI6
aa(lp90
I6
aI6
aI6
aa(lp91
I6
aI6
aI6
aa(lp92
I6
aI6
aI6
aa(lp93
I6
aI6
aI6
aa(lp94
I6
aI6
aI6
aa(lp95
I6
aI6
aI6
aa(lp96
I6
aI6
aI6
aa(lp97
I6
aI6
aI6
aa(lp98
I6
aI6
aI6
aa(lp99
I6
aI6
aI6
aa(lp100
I6
aI6
aI6
aa(lp101
I6
aI6
aI6
aa(lp102
I6
aI6
aI6
aa(lp103
I6
aI6
aI6
aa(lp104
I6
aI6
aI6
aa(lp105
I6
aI6
aI6
aa(lp106
I6
aI6
aI6
aa(lp107
I6
aI6
aI6
aa(lp108
I6
aI6
aI6
aa(lp109
I6
aI6
aI6
aa(lp110
I6
aI6
aI6
aa(lp111
I6
aI6
aI6
aa(lp112
I6
aI6
aI6
aa(lp113
I6
aI6
aI6
aa(lp114
I6
aI6
aI6
aa(lp115
I6
aI6
aI6
aa(lp116
I6
aI6
aI6
aa(lp117
I6
aI6
aI6
aa(lp118
I6
aI6
aI6
aa(lp119
I6
aI6
aI6
aa(lp120
I6
aI6
aI6
aa(lp121
I6
aI6
aI6
aa(lp122
I6
aI6
aI6
aa(lp123
I6
aI6
aa(lp124
I6
aI6
aa(lp125
I6
aI6
aa(lp126
I6
aI6
aa(lp127
I6
aI6
aa(lp128
I6
aI6
aa(lp129
I6
aI6
aa(lp130
I6
aI6
aa(lp131
I6
aI6
aa(lp132
I6
aI6
aa(lp133
I6
aI6
aa(lp134
I6
aI6
aI6
aa(lp135
I6
aI6
aI6
aa(lp136
I6
aI6
aI6
aa(lp137
I6
aI6
aI6
aa(lp138
I6
aI6
aI6
aa(lp139
I6
aI6
aI6
aa(lp140
I6
aI6
aI6
aa(lp141
I6
aI6
aI6
aa(lp142
I6
aI6
aI6
aa(lp143
I6
aI6
aI6
aa(lp144
I6
aI6
aI6
aa(lp145
I6
aI6
aI6
aa(lp146
I6
aI6
aI6
aa(lp147
I6
aI6
aI6
aa(lp148
I6
aI6
aI6
aa(lp149
I6
aI6
aI6
aa(lp150
I6
aI6
aI6
aa(lp151
I6
aI6
aI6
aa(lp152
I6
aI6
aI6
aa(lp153
I6
aI6
aI6
aa(lp154
I6
aI6
aI6
aa(lp155
I6
aI6
aI6
aI6
aa(lp156
I6
aI6
aI6
aI6
aa(lp157
I6
aI6
aI6
aI6
aa(lp158
I6
aI6
aI6
aI6
aa(lp159
I6
aI6
aI6
aI6
aa(lp160
I6
aI6
aI6
aI6
aa(lp161
I6
aI6
aI6
aI6
aa(lp162
I6
aI6
aI6
aI6
aa(lp163
I6
aI6
aI6
aI6
aa(lp164
I6
aI6
aI6
aI6
aa(lp165
I6
aI6
aI6
aI6
aa(lp166
I6
aI6
aI6
aI6
aa(lp167
I6
aI6
aI6
aI6
aa(lp168
I6
aI6
aI6
aI6
aa(lp169
I6
aI6
aI6
aI6
aa(lp170
I6
aI6
aI6
aI6
aa(lp171
I6
aI6
aI6
aI6
aa(lp172
I6
aI6
aI6
aI6
aa(lp173
I6
aI6
aI6
aI6
aa(lp174
I6
aI6
aI6
aI6
aa(lp175
I6
aI6
aI6
aI6
aa(lp176
I6
aI6
aI6
aI6
aa(lp177
I6
aI6
aI6
aI6
aa(lp178
I6
aI6
aI6
aI6
aa(lp179
I6
aI6
aI6
aI6
aa(lp180
I6
aI6
aI6
aI6
aa(lp181
I6
aI6
aI6
aI6
aa(lp182
I6
aI6
aI6
aI6
aa(lp183
I6
aI6
aI6
aI6
aa(lp184
I6
aI6
aI6
aI6
aa(lp185
I6
aI6
aI6
aI6
aa(lp186
I6
aI6
aI6
aI6
aa(lp187
I6
aI6
aI6
aI6
aa(lp188
I6
aI6
aI6
aI6
aa(lp189
I6
aI6
aI6
aI6
aa(lp190
I6
aI6
aI6
aI6
aa(lp191
I6
aI6
aI6
aI6
aa(lp192
I6
aI6
aI6
aI6
aa(lp193
I6
aI6
aI6
aI6
aa(lp194
I6
aI6
aI6
aI6
aa(lp195
I6
aI6
aI6
aI6
aa(lp196
I6
aI6
aI6
aI6
aa(lp197
I6
aI6
aI6
aI6
aa(lp198
I6
aI6
aI6
aI6
aa(lp199
I6
aI6
aI6
aI6
aa(lp200
I6
aI6
aI6
aI6
aI8
aa(lp201
I6
aI6
aI6
aI6
aI8
aa(lp202
I6
aI6
aI6
aI6
aI8
aa(lp203
I6
aI6
aI6
aI6
aI8
aa(lp204
I6
aI6
aI6
aI6
aI8
aa(lp205
I6
aI6
aI6
aI6
aI8
aa(lp206
I6
aI6
aI6
aI6
aI8
aa(lp207
I6
aI6
aI6
aI6
aI8
aa(lp208
I6
aI6
aI6
aI6
aI8
aa(lp209
I6
aI6
aI6
aI6
aI8
aa(lp210
I6
aI6
aI6
aI6
aI8
aa(lp211
I6
aI6
aI6
aI6
aI8
aa(lp212
I6
aI6
aI6
aI6
aI8
aa(lp213
I6
aI6
aI6
aI6
aI8
aa(lp214
I6
aI6
aI6
aI6
aI8
aa(lp215
I6
aI6
aI6
aI6
aI8
aa(lp216
I6
aI6
aI6
aI6
aI8
aa(lp217
I6
aI6
aI6
aI6
aI8
aa(lp218
I6
aI6
aI6
aI6
aI8
aa(lp219
I6
aI6
aI6
aI6
aI8
aa(lp220
I6
aI6
aI6
aI6
aI8
aa(lp221
I6
aI6
aI6
aI6
aI8
aa(lp222
I6
aI6
aI6
aI6
aa(lp223
I6
aI6
aI6
aI6
aa(lp224
I6
aI6
aI6
aI6
aa(lp225
I6
aI6
aI6
aI6
aa.