(lp1
(lp2
a(lp3
a(lp4
a(lp5
a(lp6
a(lp7
a(lp8
a(lp9
I6
aa(lp10
I6
aa(lp11
I6
aa(lp12
I6
aa(lp13
I6
aa(lp14
I6
aa(lp15
I6
aa(lp16
I6
aa(lp17
I6
aa(lp18
I6
aa(lp19
I6
aa(lp20
I6
aa(lp21
I6
aa(lp22
I6
aa(lp23
I6
aa(lp24
I6
aa(lp25
I6
aa(lp26
I6
aa(lp27
I6
aa(lp28
I6
aa(lp29
I6
aa(lp30
I6
aa(lp31
I6
aa(lp32
I6
aa(lp33
I6
aa(lp34
I6
aa(lp35
I6
aa(lp36
I6
aa(lp37
I6
aa(lp38
I6
aa(lp39
I6
aa(lp40
I6
aa(lp41
I6
aa(lp42
I6
aI4
aa(lp43
I6
aI4
aa(lp44
I6
aI4
aa(lp45
I6
aI4
aa(lp46
I6
aI4
aa(lp47
I6
aI4
aa(lp48
I6
aI4
aa(lp49
I6
aI4
aa(lp50
I6
aI4
aa(lp51
I6
aI4
aa(lp52
I6
aI4
aa(lp53
I6
aI4
aa(lp54
I6
aI4
aa(lp55
I6
aI4
aa(lp56
I6
aI4
aa(lp57
I6
aI4
aI4
aa(lp58
I6
aI4
aI4
aa(lp59
I6
aI4
aI4
aa(lp60
I6
aI4
aI4
aa(lp61
I6
aI4
aI4
aa(lp62
I6
aI4
aI4
aa(lp63
I6
aI4
aI4
aa(lp64
I6
aI4
aI4
aa(lp65
I6
aI4
aI4
aa(lp66
I6
aI4
aI4
aa(lp67
I6
aI4
aI4
aa(lp68
I6
aI4
aI4
aa(lp69
I6
aI4
aI4
aa(lp70
I6
aI4
aI4
aa(lp71
I6
aI4
aI4
aa(lp72
I6
aI4
aI4
aa(lp73
I6
aI4
aI4
aa(lp74
I6
aI4
aI4
aa(lp75
I6
aI4
aI4
aa(lp76
I6
aI4
aI4
aa(lp77
I6
aI4
aI4
aa(lp78
I6
aI4
aI4
aa(lp79
I6
aI4
aI4
aa(lp80
I6
aI4
aI4
aa(lp81
I6
aI4
aI4
aa(lp82
I6
aI4
aI4
aa(lp83
I6
aI4
aI4
aa(lp84
I6
aI4
aI4
aa(lp85
I6
aI4
aI4
aa(lp86
I6
aI4
aI4
aa(lp87
I6
aI4
aI4
aa(lp88
I6
aI4
aI4
aa(lp89
I6
aI4
aI4
aa(lp90
I6
aI4
aI4
aa(lp91
I6
aI4
aI4
aa(lp92
I6
aI4
aI4
aa(lp93
I6
aI4
aI4
aa(lp94
I6
aI4
aI4
aa(lp95
I6
aI4
aI4
aa(lp96
I6
aI4
aI4
aa(lp97
I6
aI10
aI4
aI4
aa(lp98
I6
aI10
aI4
aI4
aa(lp99
I6
aI10
aI4
aI4
aa(lp100
I6
aI10
aI4
aI4
aa(lp101
I6
aI10
aI4
aI4
aa(lp102
I6
aI10
aI4
aI4
aa(lp103
I6
aI10
aI4
aI4
aa(lp104
I6
aI10
aI4
aI4
aa(lp105
I6
aI10
aI4
aI4
aa(lp106
I6
aI10
aI4
aI4
aa(lp107
I6
aI10
aI4
aI4
aa(lp108
I6
aI10
aI4
aI4
aa(lp109
I6
aI10
aI4
aI4
aa(lp110
I6
aI10
aI4
aI4
aa(lp111
I6
aI10
aI4
aI4
aa(lp112
I6
aI10
aI4
aI4
aa(lp113
I6
aI10
aI4
aI4
aa(lp114
I6
aI10
aI4
aI4
aa(lp115
I6
aI10
aI4
aI4
aa(lp116
I6
aI10
aI4
aI4
aa(lp117
I6
aI10
aI4
aI4
aa(lp118
I6
aI10
aI4
aI4
aa(lp119
I6
aI10
aI4
aI4
aa(lp120
I6
aI10
aI4
aI4
aa(lp121
I6
aI10
aI4
aI4
aa(lp122
I6
aI10
aI4
aI4
aa(lp123
I6
aI10
aI4
aI4
aa(lp124
I6
aI10
aI4
aI4
aa(lp125
I6
aI10
aI4
aI4
aa(lp126
I6
aI10
aI4
aI4
aa(lp127
I6
aI10
aI4
aI4
aa(lp128
I6
aI10
aI4
aI4
aa(lp129
I6
aI10
aI4
aI4
aa(lp130
I6
aI10
aI4
aI4
aa(lp131
I6
aI10
aI4
aI4
aa(lp132
I6
aI10
aI4
aI4
aa(lp133
I6
aI10
aI4
aI4
aa(lp134
I6
aI10
aI4
aI4
aa(lp135
I6
aI10
aI4
aI4
aa(lp136
I6
aI10
aI4
aI4
aa(lp137
I6
aI10
aI4
aI4
aa(lp138
I6
aI10
aI4
aI4
aa(lp139
I6
aI10
aI6
aI4
aI4
aa(lp140
I6
aI10
aI6
aI4
aI4
aa(lp141
I6
aI10
aI6
aI4
aI4
aa(lp142
I6
aI10
aI6
aI4
aI4
aa(lp143
I6
aI10
aI6
aI4
aI4
aa(lp144
I6
aI10
aI6
aI4
aI4
aa(lp145
I6
aI10
aI6
aI4
aI4
aa(lp146
I6
aI10
aI6
aI4
aI4
aa(lp147
I6
aI10
aI6
aI4
aI4
aa(lp148
I6
aI10
aI6
aI4
aI4
aa(lp149
I6
aI10
aI6
aI4
aI4
aa(lp150
I6
aI10
aI6
aI4
aI4
aa(lp151
I6
aI10
aI6
aI4
aI4
aa(lp152
I6
aI10
aI6
aI4
aI4
aa(lp153
I6
aI10
aI6
aI4
aI4
aa(lp154
I6
aI10
aI6
aI4
aI4
aa(lp155
I6
aI10
aI6
aI4
aI4
aa(lp156
I6
aI10
aI6
aI4
aI4
aa(lp157
I6
aI10
aI6
aI4
aI4
aa(lp158
I6
aI10
aI6
aI4
aI4
aa(lp159
I6
aI10
aI6
aI4
aI4
aa(lp160
I6
aI10
aI6
aI4
aI4
aa(lp161
I6
aI10
aI6
aI4
aI4
aa(lp162
I6
aI10
aI6
aI4
aI4
aa(lp163
I6
aI10
aI6
aI4
aI4
aa(lp164
I6
aI10
aI6
aI4
aI4
aa(lp165
I6
aI10
aI6
aI4
aI4
aa(lp166
I6
aI10
aI6
aI4
aI4
aa(lp167
I6
aI10
aI6
aI4
aI4
aa(lp168
I6
aI10
aI6
aI4
aI4
aa(lp169
I6
aI10
aI6
aI4
aI4
aa(lp170
I6
aI10
aI6
aI4
aI4
aa(lp171
I6
aI10
aI6
aI4
aI4
aa(lp172
I6
aI10
aI6
aI4
aI4
aa(lp173
I6
aI10
aI6
aI4
aI4
aa(lp174
I6
aI10
aI6
aI4
aI4
aa(lp175
I6
aI10
aI6
aI4
aI4
aa(lp176
I6
aI10
aI6
aI4
aI4
aa(lp177
I6
aI10
aI6
aI4
aI4
aa(lp178
I6
aI10
aI6
aI4
aI4
aa(lp179
I6
aI10
aI6
aI4
aI4
aa(lp180
I6
aI10
aI6
aI4
aI4
aa(lp181
I6
aI10
aI6
aI4
aI4
aa(lp182
I6
aI10
aI6
aI4
aI4
aa(lp183
I6
aI10
aI6
aI4
aI4
aa(lp184
I6
aI10
aI6
aI4
aI4
aa(lp185
I6
aI10
aI6
aI4
aI4
aa(lp186
I6
aI10
aI6
aI4
aI4
aa(lp187
I6
aI10
aI6
aI4
aI4
aa(lp188
I6
aI10
aI6
aI4
aI4
aa(lp189
I6
aI10
aI6
aI4
aI4
aa(lp190
I6
aI10
aI6
aI4
aI4
aa(lp191
I6
aI10
aI6
aI4
aI4
aa(lp192
I6
aI10
aI6
aI4
aI4
aa(lp193
I6
aI10
aI6
aI4
aI4
aa(lp194
I6
aI10
aI6
aI4
aI4
aa(lp195
I6
aI10
aI6
aI4
aI4
aa(lp196
I6
aI10
aI6
aI4
aI4
aa(lp197
I6
aI10
aI6
aI4
aI4
aa(lp198
I6
aI10
aI6
aI4
aI4
aa(lp199
I6
aI10
aI6
aI4
aI4
aa(lp200
I6
aI10
aI6
aI4
aI4
aa(lp201
I6
aI10
aI6
aI4
aI4
aa(lp202
I6
aI10
aI6
aI4
aI4
aa(lp203
I6
aI10
aI6
aI4
aI4
aa(lp204
I6
aI10
aI6
aI4
aI4
aa(lp205
I6
aI10
aI6
aI4
aI4
aa(lp206
I6
aI10
aI6
aI4
aI4
aa(lp207
I6
aI10
aI6
aI4
aI4
aa(lp208
I6
aI10
aI6
aI4
aI4
aa(lp209
I6
aI10
aI6
aI4
aI4
aa(lp210
I6
aI10
aI6
aI4
aI4
aa(lp211
I6
aI10
aI6
aI4
aI4
aa(lp212
I6
aI10
aI6
aI4
aI4
aa(lp213
I6
aI10
aI6
aI4
aI4
aa(lp214
I6
aI10
aI6
aI4
aI4
aa(lp215
I6
aI10
aI6
aI4
aI4
aa(lp216
I6
aI6
aI4
aI4
aa(lp217
I6
aI6
aI4
aI4
aa(lp218
I6
aI6
aI4
aI4
aa(lp219
I6
aI6
aI4
aI4
aa(lp220
I6
aI6
aI4
aI4
aa(lp221
I6
aI4
aI4
aa(lp222
I6
aI4
aI4
aa(lp223
I6
aI4
aI4
aa(lp224
I6
aI4
aI4
aa(lp225
I6
aI4
aI4
aa(lp226
I6
aI4
aI4
aa(lp227
I6
aI6
aI4
aI4
aa(lp228
I6
aI6
aI4
aI4
aa(lp229
I6
aI6
aI4
aI4
aa(lp230
I6
aI6
aI4
aI4
aa(lp231
I6
aI6
aI4
aI4
aa(lp232
I6
aI6
aI4
aI4
aa(lp233
I6
aI6
aI4
aI4
aa(lp234
I6
aI6
aI4
aI4
aa(lp235
I6
aI6
aI4
aI4
aa(lp236
I6
aI6
aI4
aI4
aa(lp237
I6
aI6
aI4
aI4
aa(lp238
I6
aI6
aI4
aI4
aa(lp239
I6
aI6
aI4
aI4
aa(lp240
I6
aI6
aI4
aI4
aa(lp241
I6
aI6
aI4
aI4
aa(lp242
I6
aI6
aI4
aI4
aa(lp243
I6
aI6
aI4
aI4
aa(lp244
I6
aI6
aI4
aI4
aa(lp245
I6
aI6
aI4
aI4
aa(lp246
I6
aI6
aI4
aI4
aa(lp247
I6
aI6
aI4
aI4
aa(lp248
I6
aI6
aI4
aI4
aa(lp249
I6
aI6
aI4
aI4
aa(lp250
I6
aI6
aI4
aI4
aa(lp251
I6
aI6
aI4
aI4
aa(lp252
I6
aI6
aI4
aI4
aa(lp253
I6
aI6
aI4
aI4
aa(lp254
I6
aI6
aI4
aI4
aa(lp255
I6
aI6
aI4
aI4
aa(lp256
I6
aI6
aI4
aI4
aa(lp257
I6
aI6
aI4
aI4
aa(lp258
I6
aI6
aI4
aI4
aa(lp259
I6
aI6
aI4
aI4
aa(lp260
I6
aI6
aI4
aI4
aa(lp261
I6
aI6
aI4
aI4
aa(lp262
I6
aI6
aI6
aI4
aI4
aa(lp263
I6
aI6
aI6
aI4
aI4
aa(lp264
I6
aI6
aI6
aI4
aI4
aa(lp265
I6
aI6
aI4
aI4
aa(lp266
I6
aI6
aI6
aI4
aI4
aa(lp267
I6
aI6
aI6
aI4
aI4
aa(lp268
I6
aI6
aI6
aI4
aI4
aa(lp269
I6
aI6
aI6
aI4
aI4
aa(lp270
I6
aI6
aI6
aI4
aI4
aa(lp271
I6
aI6
aI6
aI4
aI4
aa(lp272
I6
aI6
aI6
aI4
aI4
aa(lp273
I6
aI6
aI6
aI4
aI4
aa(lp274
I6
aI6
aI6
aI4
aI4
aa(lp275
I6
aI6
aI6
aI4
aI4
aa(lp276
I6
aI6
aI6
aI4
aI4
aa(lp277
I6
aI6
aI6
aI4
aI4
aa(lp278
I6
aI6
aI6
aI4
aI4
aa(lp279
I6
aI6
aI6
aI4
aI4
aa(lp280
I6
aI6
aI6
aI4
aI4
aa(lp281
I6
aI6
aI6
aI4
aI4
aa(lp282
I6
aI6
aI6
aI4
aI4
aa(lp283
I6
aI6
aI6
aI4
aI4
aa(lp284
I6
aI6
aI6
aI4
aI4
aa(lp285
I6
aI6
aI6
aI4
aI4
aa(lp286
I6
aI6
aI6
aI4
aI4
aa(lp287
I6
aI6
aI6
aI4
aI4
aa(lp288
I6
aI6
aI6
aI4
aI4
aa(lp289
I6
aI6
aI6
aI4
aI4
aa(lp290
I6
aI6
aI6
aI4
aI4
aa(lp291
I6
aI6
aI6
aI4
aI4
aa(lp292
I6
aI6
aI6
aI4
aI4
aa(lp293
I6
aI6
aI6
aI4
aI4
aa(lp294
I6
aI6
aI6
aI4
aI4
aa.