(lp1
(lp2
a(lp3
a(lp4
a(lp5
a(lp6
a(lp7
a(lp8
a(lp9
a(lp10
a(lp11
a(lp12
a(lp13
a(lp14
a(lp15
a(lp16
a(lp17
a(lp18
a(lp19
a(lp20
a(lp21
a(lp22
a(lp23
a(lp24
a(lp25
a(lp26
a(lp27
a(lp28
a(lp29
a(lp30
a(lp31
a(lp32
a(lp33
a(lp34
a(lp35
a(lp36
a(lp37
a(lp38
a(lp39
a(lp40
a(lp41
a(lp42
a(lp43
a(lp44
a(lp45
a(lp46
a(lp47
a(lp48
a(lp49
a(lp50
a(lp51
a(lp52
a(lp53
a(lp54
a(lp55
a(lp56
a(lp57
a(lp58
a(lp59
a(lp60
a(lp61
a(lp62
a(lp63
a(lp64
a(lp65
a(lp66
a(lp67
a(lp68
a(lp69
a(lp70
a(lp71
a(lp72
a(lp73
a(lp74
a(lp75
a(lp76
a(lp77
a(lp78
a(lp79
a(lp80
a(lp81
a(lp82
a(lp83
a(lp84
a(lp85
a(lp86
a(lp87
a(lp88
a(lp89
a(lp90
a(lp91
a(lp92
a(lp93
a(lp94
a(lp95
a(lp96
a(lp97
a(lp98
a(lp99
a(lp100
a(lp101
a(lp102
a(lp103
a(lp104
a(lp105
a(lp106
a(lp107
a(lp108
a(lp109
a(lp110
a(lp111
a(lp112
a(lp113
a(lp114
a(lp115
a(lp116
a(lp117
a(lp118
a(lp119
a(lp120
a(lp121
a(lp122
a(lp123
a(lp124
a(lp125
a(lp126
a(lp127
a(lp128
a(lp129
a(lp130
a(lp131
a(lp132
a(lp133
a(lp134
a(lp135
a(lp136
a(lp137
a(lp138
a(lp139
a(lp140
a(lp141
a(lp142
a(lp143
a(lp144
a(lp145
a(lp146
a(lp147
a(lp148
a(lp149
a(lp150
a(lp151
a(lp152
a(lp153
a(lp154
a(lp155
a(lp156
a(lp157
a(lp158
a(lp159
a(lp160
a(lp161
a(lp162
a(lp163
a(lp164
a(lp165
a(lp166
a(lp167
a(lp168
a(lp169
a(lp170
a(lp171
a(lp172
a(lp173
a(lp174
a(lp175
a(lp176
a(lp177
a(lp178
a(lp179
a(lp180
a(lp181
a(lp182
a(lp183
a(lp184
a(lp185
a(lp186
a(lp187
a(lp188
a(lp189
a(lp190
a(lp191
a(lp192
a(lp193
a(lp194
a(lp195
a(lp196
a(lp197
a(lp198
a(lp199
a(lp200
a(lp201
a(lp202
a(lp203
a(lp204
a(lp205
a(lp206
a(lp207
a(lp208
a(lp209
a(lp210
a(lp211
a(lp212
a(lp213
a(lp214
a(lp215
a(lp216
a(lp217
a(lp218
a(lp219
a(lp220
a(lp221
a(lp222
a(lp223
a(lp224
a(lp225
a(lp226
a(lp227
a(lp228
a(lp229
a(lp230
a(lp231
I6
aa(lp232
I6
aa(lp233
I6
aa(lp234
a(lp235
a(lp236
a(lp237
a(lp238
a(lp239
a(lp240
a(lp241
a(lp242
a(lp243
a(lp244
a(lp245
a(lp246
a(lp247
a(lp248
a(lp249
a(lp250
a(lp251
a(lp252
a(lp253
a(lp254
a(lp255
a(lp256
a(lp257
a(lp258
a(lp259
a(lp260
a(lp261
a(lp262
a(lp263
a(lp264
a(lp265
a(lp266
a(lp267
a(lp268
a(lp269
a(lp270
a(lp271
a(lp272
a(lp273
a(lp274
a(lp275
a(lp276
a(lp277
a(lp278
a(lp279
a(lp280
a(lp281
a(lp282
a(lp283
a(lp284
a(lp285
a(lp286
a(lp287
a(lp288
a(lp289
a(lp290
a(lp291
a(lp292
a(lp293
a(lp294
a(lp295
a(lp296
a(lp297
a(lp298
a(lp299
a(lp300
a(lp301
a(lp302
a(lp303
a(lp304
a(lp305
a(lp306
a(lp307
a(lp308
a(lp309
a(lp310
a(lp311
a(lp312
a(lp313
a(lp314
a(lp315
a(lp316
a(lp317
a(lp318
a(lp319
a(lp320
a(lp321
a(lp322
a(lp323
a(lp324
a(lp325
a(lp326
a(lp327
a(lp328
a(lp329
a(lp330
a(lp331
a(lp332
a(lp333
a(lp334
a(lp335
a(lp336
a(lp337
a(lp338
a(lp339
a(lp340
a(lp341
a(lp342
a(lp343
a(lp344
a(lp345
a(lp346
a(lp347
a(lp348
a(lp349
a(lp350
a(lp351
a(lp352
a(lp353
a(lp354
a(lp355
a(lp356
a(lp357
a(lp358
a(lp359
a(lp360
a(lp361
a(lp362
a(lp363
a(lp364
a(lp365
a(lp366
a(lp367
a(lp368
a(lp369
a(lp370
a(lp371
a(lp372
a(lp373
a(lp374
a(lp375
a(lp376
a(lp377
a(lp378
a(lp379
a(lp380
a(lp381
a(lp382
a(lp383
a(lp384
a(lp385
a(lp386
a(lp387
a(lp388
a(lp389
a(lp390
a(lp391
a(lp392
a(lp393
a(lp394
a(lp395
a(lp396
a(lp397
a(lp398
a(lp399
a(lp400
a(lp401
a(lp402
a(lp403
a(lp404
a(lp405
a(lp406
a(lp407
a(lp408
a(lp409
a(lp410
a(lp411
a(lp412
a(lp413
a(lp414
a(lp415
a(lp416
a(lp417
a(lp418
a(lp419
a(lp420
a(lp421
a(lp422
a(lp423
a(lp424
a(lp425
a(lp426
a(lp427
a(lp428
a(lp429
a(lp430
a(lp431
a(lp432
a(lp433
a(lp434
a(lp435
a(lp436
a(lp437
a(lp438
a(lp439
a(lp440
a(lp441
a(lp442
a(lp443
a(lp444
a(lp445
a(lp446
a(lp447
a(lp448
a(lp449
a(lp450
a(lp451
a(lp452
a(lp453
a(lp454
a(lp455
a(lp456
a(lp457
a(lp458
a(lp459
a(lp460
a(lp461
a(lp462
a(lp463
a(lp464
a(lp465
a(lp466
a(lp467
a(lp468
a(lp469
a(lp470
a(lp471
a(lp472
a(lp473
a(lp474
a(lp475
a(lp476
a(lp477
a(lp478
a(lp479
a(lp480
a(lp481
a(lp482
a(lp483
a(lp484
a(lp485
a(lp486
a(lp487
a(lp488
a(lp489
a(lp490
a(lp491
a(lp492
a(lp493
a(lp494
a(lp495
a(lp496
a(lp497
a(lp498
a(lp499
a(lp500
a(lp501
a(lp502
a(lp503
a(lp504
a(lp505
a(lp506
a(lp507
a(lp508
a(lp509
a(lp510
a(lp511
a(lp512
a(lp513
a(lp514
a(lp515
a(lp516
a(lp517
a(lp518
a(lp519
a(lp520
a(lp521
a(lp522
a(lp523
a(lp524
a(lp525
a(lp526
a(lp527
a(lp528
a(lp529
a(lp530
a(lp531
a(lp532
a(lp533
a(lp534
a(lp535
a(lp536
a(lp537
a(lp538
a(lp539
a(lp540
a(lp541
a(lp542
a(lp543
a(lp544
a(lp545
a(lp546
a(lp547
a(lp548
a(lp549
a(lp550
a(lp551
I6
aa(lp552
a(lp553
a(lp554
a(lp555
a(lp556
a(lp557
a(lp558
a(lp559
a(lp560
a(lp561
a(lp562
a(lp563
a(lp564
a(lp565
a(lp566
a(lp567
a(lp568
a(lp569
a(lp570
a(lp571
a(lp572
a(lp573
a(lp574
a(lp575
a(lp576
a(lp577
a(lp578
a(lp579
a(lp580
a(lp581
a(lp582
a(lp583
a(lp584
a(lp585
a(lp586
a(lp587
a(lp588
a(lp589
a(lp590
a(lp591
a(lp592
a(lp593
a(lp594
a(lp595
a(lp596
a(lp597
a(lp598
a(lp599
a(lp600
a(lp601
a(lp602
a(lp603
a(lp604
a(lp605
a(lp606
a(lp607
a(lp608
a(lp609
a(lp610
a(lp611
a(lp612
a(lp613
a(lp614
a(lp615
a(lp616
a(lp617
a(lp618
a(lp619
a(lp620
a(lp621
a(lp622
a(lp623
a(lp624
a(lp625
a(lp626
a(lp627
a(lp628
a(lp629
a(lp630
a(lp631
a(lp632
a(lp633
a(lp634
a(lp635
a(lp636
a(lp637
a(lp638
a(lp639
a(lp640
a(lp641
a(lp642
a(lp643
a(lp644
a(lp645
a(lp646
a(lp647
a(lp648
a(lp649
a(lp650
a(lp651
a(lp652
a(lp653
a(lp654
a(lp655
a(lp656
a(lp657
a(lp658
a(lp659
a(lp660
a(lp661
a(lp662
a(lp663
a(lp664
a(lp665
a(lp666
a(lp667
a(lp668
a(lp669
a(lp670
a(lp671
a(lp672
a(lp673
a(lp674
a(lp675
a(lp676
a(lp677
a(lp678
a(lp679
a(lp680
a(lp681
a(lp682
a(lp683
a(lp684
a(lp685
a(lp686
a(lp687
a(lp688
a(lp689
a(lp690
a(lp691
a(lp692
a(lp693
a(lp694
a(lp695
a(lp696
a(lp697
a(lp698
a(lp699
a(lp700
a(lp701
a(lp702
a(lp703
a(lp704
a(lp705
a(lp706
a(lp707
a(lp708
a(lp709
a(lp710
a(lp711
a(lp712
a(lp713
a(lp714
a(lp715
a(lp716
a(lp717
a(lp718
a(lp719
a(lp720
a(lp721
a(lp722
a(lp723
a(lp724
a(lp725
a(lp726
a(lp727
a(lp728
a(lp729
a(lp730
a(lp731
a(lp732
a(lp733
a(lp734
a(lp735
a(lp736
a(lp737
a(lp738
a(lp739
a(lp740
a(lp741
a(lp742
a(lp743
a(lp744
a(lp745
a(lp746
a(lp747
a(lp748
a(lp749
a(lp750
a(lp751
a(lp752
a(lp753
a(lp754
a(lp755
a(lp756
a(lp757
a(lp758
a(lp759
a(lp760
a(lp761
a(lp762
a(lp763
a(lp764
a(lp765
a(lp766
a(lp767
a(lp768
a(lp769
a(lp770
a(lp771
I6
aa(lp772
I6
aa(lp773
I6
aa(lp774
I6
aa(lp775
I6
aa(lp776
I6
aa(lp777
I6
aa(lp778
I6
aa(lp779
I6
aa(lp780
I6
aa(lp781
I6
aa(lp782
I6
aa(lp783
I6
aa(lp784
I6
aa(lp785
I6
aa(lp786
I6
aa(lp787
I6
aa(lp788
I6
aa(lp789
I6
aa(lp790
I6
aa(lp791
I6
aa(lp792
I6
aa(lp793
I6
aa(lp794
I6
aa(lp795
I6
aa(lp796
I6
aa(lp797
I6
aa(lp798
I6
aa(lp799
I6
aa(lp800
I6
aa(lp801
I6
aa(lp802
I6
aa(lp803
I6
aa(lp804
I6
aa(lp805
I6
aa(lp806
I6
aa(lp807
I6
aa(lp808
I6
aa(lp809
I6
aa(lp810
I6
aa(lp811
I6
aa(lp812
I6
aa(lp813
I6
aa(lp814
I6
aa(lp815
I6
aa(lp816
I6
aa(lp817
I6
aa(lp818
I6
aa(lp819
I6
aa(lp820
I6
aa(lp821
I6
aa(lp822
I6
aa(lp823
I6
aa(lp824
I6
aa(lp825
I6
aa(lp826
I6
aa(lp827
I6
aa(lp828
I6
aa(lp829
I6
aa(lp830
I6
aa(lp831
I6
aa(lp832
I6
aa(lp833
I6
aa(lp834
I6
aa(lp835
I6
aa(lp836
I6
aa(lp837
I6
aa(lp838
I6
aa(lp839
I6
aa(lp840
I6
aa(lp841
I6
aa(lp842
I6
aa(lp843
I6
aa(lp844
I6
aa(lp845
I6
aa(lp846
I6
aa(lp847
I6
aa(lp848
I6
aa(lp849
I6
aa(lp850
I6
aa(lp851
I6
aa(lp852
I6
aa(lp853
I6
aa(lp854
I6
aa(lp855
I6
aa(lp856
a(lp857
a(lp858
I6
aa(lp859
a(lp860
a(lp861
a(lp862
a(lp863
a(lp864
a(lp865
a(lp866
a(lp867
a(lp868
a(lp869
a(lp870
a(lp871
a(lp872
a(lp873
a(lp874
a(lp875
a(lp876
a(lp877
a(lp878
a(lp879
a(lp880
a(lp881
I4
aa(lp882
I4
aa(lp883
I4
aa(lp884
I4
aa(lp885
I4
aa(lp886
I4
aa(lp887
I4
aa(lp888
I4
aa(lp889
I4
aa(lp890
I4
aa(lp891
I4
aa(lp892
I4
aa(lp893
I4
aa(lp894
I4
aa(lp895
I4
aa(lp896
I4
aa(lp897
I4
aa(lp898
I4
aa(lp899
I4
aa(lp900
I4
aa(lp901
I4
aa(lp902
I4
aa(lp903
I4
aa(lp904
I4
aa(lp905
I4
aa(lp906
I4
aa(lp907
I4
aa(lp908
I4
aa(lp909
I4
aa(lp910
I4
aa(lp911
I4
aa(lp912
I4
aa(lp913
I4
aa(lp914
I4
aa(lp915
I4
aa(lp916
a(lp917
a(lp918
a(lp919
a(lp920
a(lp921
a(lp922
a(lp923
a(lp924
a(lp925
a(lp926
a(lp927
a(lp928
a(lp929
a(lp930
a(lp931
a(lp932
a(lp933
a(lp934
a(lp935
a(lp936
a(lp937
a(lp938
a(lp939
a(lp940
a(lp941
a(lp942
a(lp943
a(lp944
a(lp945
a(lp946
a(lp947
a(lp948
a(lp949
a(lp950
a(lp951
a(lp952
a(lp953
a(lp954
a(lp955
a(lp956
a(lp957
a(lp958
a(lp959
a(lp960
a(lp961
a(lp962
a(lp963
a(lp964
a(lp965
a(lp966
a(lp967
a(lp968
a(lp969
a(lp970
a(lp971
a(lp972
a(lp973
a(lp974
a(lp975
a(lp976
a(lp977
a(lp978
a(lp979
a(lp980
a(lp981
a(lp982
a(lp983
a(lp984
a(lp985
a(lp986
a(lp987
a(lp988
a(lp989
a(lp990
a(lp991
a(lp992
a(lp993
a(lp994
a(lp995
a(lp996
a(lp997
a(lp998
a(lp999
a(lp1000
a(lp1001
a(lp1002
a(lp1003
a(lp1004
a(lp1005
a(lp1006
a(lp1007
a(lp1008
a(lp1009
a(lp1010
a(lp1011
a(lp1012
a(lp1013
a(lp1014
a(lp1015
a(lp1016
a(lp1017
a(lp1018
a(lp1019
a(lp1020
a(lp1021
a(lp1022
a(lp1023
a(lp1024
a(lp1025
a(lp1026
a(lp1027
a(lp1028
a(lp1029
I4
aa(lp1030
I4
aa(lp1031
I4
aa(lp1032
I4
aa(lp1033
I4
aa(lp1034
I4
aa(lp1035
I4
aa(lp1036
I4
aa(lp1037
I4
aa(lp1038
I4
aa(lp1039
I4
aa(lp1040
I4
aa(lp1041
I4
aa(lp1042
I4
aa(lp1043
I4
aa(lp1044
I4
aa(lp1045
I4
aa(lp1046
I4
aa(lp1047
I4
aa(lp1048
I4
aa(lp1049
I4
aa(lp1050
I4
aa(lp1051
I4
aa(lp1052
I4
aa(lp1053
I4
aa(lp1054
I4
aI8
aa(lp1055
I4
aI8
aa(lp1056
I4
aI8
aa(lp1057
I4
aI8
aa(lp1058
I4
aa(lp1059
I4
aa(lp1060
I4
aa(lp1061
I4
aa(lp1062
I4
aa(lp1063
I4
aa(lp1064
I4
aa(lp1065
a(lp1066
a(lp1067
a(lp1068
a(lp1069
a(lp1070
a(lp1071
a(lp1072
a(lp1073
a(lp1074
a(lp1075
a(lp1076
a(lp1077
a(lp1078
a(lp1079
a(lp1080
a(lp1081
a(lp1082
a(lp1083
a(lp1084
a(lp1085
a(lp1086
a(lp1087
a(lp1088
a(lp1089
a(lp1090
a(lp1091
a(lp1092
a(lp1093
I4
aa(lp1094
I4
aa(lp1095
I4
aa(lp1096
I4
aa(lp1097
I4
aa(lp1098
I4
aa(lp1099
I4
aa(lp1100
I4
aa(lp1101
I4
aa(lp1102
I4
aa(lp1103
I4
aa(lp1104
I4
aa(lp1105
I4
aa(lp1106
I4
aa(lp1107
I4
aa(lp1108
I4
aa(lp1109
I4
aa(lp1110
I4
aa(lp1111
I4
aa(lp1112
I4
aa(lp1113
I4
aa(lp1114
I4
aa(lp1115
I4
aa(lp1116
I4
aa(lp1117
I4
aa(lp1118
I4
aa(lp1119
I4
aa(lp1120
I4
aa(lp1121
I4
aa(lp1122
I4
aa(lp1123
I4
aa(lp1124
I4
aa(lp1125
I4
aa(lp1126
I4
aa(lp1127
I4
aa(lp1128
I4
aI4
aa(lp1129
I4
aa(lp1130
I4
aa(lp1131
I4
aa(lp1132
I4
aa(lp1133
I4
aa(lp1134
I4
aa(lp1135
I4
aa(lp1136
I4
aa(lp1137
I4
aa(lp1138
I4
aa(lp1139
I4
aa(lp1140
a(lp1141
a(lp1142
a(lp1143
a(lp1144
a(lp1145
a(lp1146
a(lp1147
a(lp1148
a(lp1149
a(lp1150
a(lp1151
a(lp1152
a(lp1153
a(lp1154
a(lp1155
a(lp1156
a(lp1157
a(lp1158
a(lp1159
a(lp1160
a(lp1161
a(lp1162
a(lp1163
a(lp1164
a(lp1165
a(lp1166
a(lp1167
a(lp1168
a(lp1169
a(lp1170
a(lp1171
a(lp1172
a(lp1173
a(lp1174
a(lp1175
a(lp1176
a(lp1177
a(lp1178
a(lp1179
a(lp1180
a(lp1181
a(lp1182
a(lp1183
a(lp1184
a(lp1185
a(lp1186
a(lp1187
a(lp1188
a(lp1189
a(lp1190
a(lp1191
a(lp1192
a(lp1193
a(lp1194
a(lp1195
a(lp1196
a(lp1197
a(lp1198
a(lp1199
a(lp1200
a(lp1201
a(lp1202
a(lp1203
a(lp1204
a(lp1205
a(lp1206
a(lp1207
a(lp1208
a(lp1209
a(lp1210
a(lp1211
a(lp1212
a(lp1213
a(lp1214
a(lp1215
a(lp1216
a(lp1217
a(lp1218
a(lp1219
a(lp1220
a(lp1221
a(lp1222
a(lp1223
a(lp1224
a(lp1225
a(lp1226
a(lp1227
I6
aa(lp1228
I6
aa(lp1229
I6
aa(lp1230
I6
aa(lp1231
I6
aa(lp1232
I6
aa(lp1233
I6
aa(lp1234
I6
aa(lp1235
I6
aa(lp1236
I6
aa(lp1237
I6
aa(lp1238
I6
aa(lp1239
I6
aa(lp1240
I6
aa(lp1241
I6
aa(lp1242
I6
aa(lp1243
I6
aa(lp1244
I6
aa(lp1245
I6
aa(lp1246
I6
aa(lp1247
I6
aa(lp1248
I6
aa(lp1249
I6
aa(lp1250
I6
aa(lp1251
I6
aa(lp1252
I6
aa(lp1253
I6
aa(lp1254
I6
aa(lp1255
I6
aa(lp1256
I6
aa(lp1257
I6
aa(lp1258
I6
aa(lp1259
I6
aa(lp1260
I6
aa(lp1261
I6
aI6
aa(lp1262
I6
aI6
aa(lp1263
I6
aI6
aa(lp1264
I6
aI6
aa(lp1265
I6
aI6
aa(lp1266
I6
aI6
aa(lp1267
I6
aI6
aa(lp1268
I6
aI6
aa(lp1269
I6
aI6
aa(lp1270
I6
aI6
aa(lp1271
I6
aI6
aa(lp1272
I6
aI6
aa(lp1273
I6
aI6
aa(lp1274
I6
aI6
aa(lp1275
I6
aI6
aa(lp1276
I6
aI6
aa(lp1277
I6
aI6
aa(lp1278
I6
aI6
aa(lp1279
I6
aI6
aa(lp1280
I6
aI6
aa(lp1281
I6
aI6
aa(lp1282
I6
aI6
aa(lp1283
I6
aI6
aa(lp1284
I6
aI6
aa(lp1285
I6
aI6
aa(lp1286
I6
aI6
aa(lp1287
I6
aI6
aa(lp1288
I6
aI6
aa(lp1289
I6
aa(lp1290
I6
aa(lp1291
I6
aa(lp1292
I6
aa(lp1293
I6
aa(lp1294
I6
aa(lp1295
I6
aa(lp1296
I6
aa(lp1297
I6
aI6
aa(lp1298
I6
aI6
aa(lp1299
I6
aI6
aa(lp1300
I6
aI6
aa(lp1301
I6
aI6
aa(lp1302
I6
aI6
aa(lp1303
I6
aI6
aa(lp1304
I6
aI6
aa(lp1305
I6
aI6
aa(lp1306
I6
aI6
aI6
aa(lp1307
I6
aI6
aI6
aa(lp1308
I6
aI6
aI6
aa(lp1309
I6
aI6
aI6
aa(lp1310
I6
aI6
aI6
aa(lp1311
I6
aI6
aI6
aa(lp1312
I6
aI6
aI6
aa(lp1313
I6
aI6
aI6
aa(lp1314
I6
aI6
aI6
aa(lp1315
I6
aI6
aI6
aa(lp1316
I6
aI6
aI6
aa(lp1317
I6
aI6
aI6
aa(lp1318
I6
aI6
aI6
aa(lp1319
I6
aI6
aI6
aa(lp1320
I6
aI6
aI6
aa(lp1321
I6
aI6
aI6
aa(lp1322
I6
aI6
aI6
aa(lp1323
I6
aI6
aa(lp1324
I6
aI6
aa(lp1325
I6
aI6
aa(lp1326
I6
aa(lp1327
I6
aa(lp1328
I8
aI6
aa(lp1329
I8
aI6
aa(lp1330
I8
aI6
aa(lp1331
I8
aI6
aa(lp1332
I8
aI6
aa(lp1333
I8
aI6
aa(lp1334
I8
aI6
aa(lp1335
I8
aI6
aa(lp1336
I8
aI6
aa(lp1337
I8
aI6
aI6
aa(lp1338
I8
aI6
aI6
aa(lp1339
I8
aI6
aI6
aa(lp1340
I8
aI6
aI6
aa(lp1341
I8
aI6
aI6
aa(lp1342
I8
aI6
aI6
aa(lp1343
I6
aI6
aa(lp1344
I6
aI6
aa(lp1345
I6
aI6
aa(lp1346
I6
aI6
aa(lp1347
I6
aI6
aa(lp1348
I6
aI6
aa(lp1349
I6
aa(lp1350
I6
aa(lp1351
I4
aI6
aa(lp1352
I4
aI6
aa(lp1353
I4
aI6
aa(lp1354
I6
aa(lp1355
I6
aa(lp1356
I6
aa(lp1357
I8
aI6
aa(lp1358
I8
aI6
aa(lp1359
I8
aI6
aa(lp1360
I8
aI6
aa(lp1361
I8
aI6
aa(lp1362
I8
aa(lp1363
I8
aa(lp1364
I8
aa(lp1365
I8
aa(lp1366
I8
aa(lp1367
I8
aa(lp1368
I8
aa(lp1369
I8
aa(lp1370
I8
aa(lp1371
I8
aa(lp1372
I8
aa(lp1373
I8
aa(lp1374
I8
aa(lp1375
I8
aa(lp1376
I8
aa(lp1377
I8
aa(lp1378
I8
aa(lp1379
I8
aa(lp1380
I8
aa(lp1381
I8
aa(lp1382
I8
aa.