(lp1
(lp2
a(lp3
a(lp4
a(lp5
a(lp6
a(lp7
a(lp8
I6
aa(lp9
I6
aa(lp10
I6
aa(lp11
I6
aa(lp12
I6
aa(lp13
I6
aa(lp14
I6
aa(lp15
I6
aa(lp16
I6
aa(lp17
I6
aa(lp18
I6
aa(lp19
I6
aa(lp20
I6
aa(lp21
I6
aa(lp22
I6
aa(lp23
I6
aa(lp24
I6
aa(lp25
I6
aa(lp26
I6
aa(lp27
I6
aa(lp28
I6
aa(lp29
I6
aa(lp30
I6
aa(lp31
I6
aa(lp32
I6
aa(lp33
I6
aa(lp34
I6
aa(lp35
I6
aa(lp36
I6
aa(lp37
I4
aI6
aa(lp38
I4
aI6
aa(lp39
I4
aI6
aa(lp40
I4
aI6
aa(lp41
I4
aI6
aa(lp42
I4
aI6
aa(lp43
I4
aI6
aa(lp44
I4
aI6
aa(lp45
I4
aI6
aa(lp46
I4
aI6
aa(lp47
I4
aI6
aa(lp48
I4
aI6
aa(lp49
I4
aI6
aa(lp50
I4
aI6
aa(lp51
I4
aI6
aa(lp52
I4
aI6
aa(lp53
I4
aI6
aa(lp54
I4
aI6
aa(lp55
I4
aI6
aa(lp56
I4
aI6
aa(lp57
I4
aI6
aa(lp58
I4
aI6
aa(lp59
I4
aI6
aa(lp60
I4
aI6
aa(lp61
I4
aI6
aa(lp62
I4
aI6
aa(lp63
I4
aI6
aa(lp64
I4
aI6
aa(lp65
I4
aI6
aa(lp66
I4
aI6
aa(lp67
I4
aI6
aa(lp68
I4
aI6
aa(lp69
I4
aI6
aa(lp70
I4
aI6
aa(lp71
I4
aI6
aa(lp72
I4
aI6
aa(lp73
I4
aI6
aa(lp74
I4
aI6
aa(lp75
I4
aI6
aa(lp76
I4
aI6
aa(lp77
I4
aI6
aa(lp78
I4
aI6
aa(lp79
I4
aI6
aa(lp80
I4
aI6
aa(lp81
I4
aI6
aa(lp82
I4
aI6
aa(lp83
I4
aI6
aa(lp84
I4
aI6
aa(lp85
I4
aI6
aa(lp86
I4
aI6
aa(lp87
I4
aI6
aa(lp88
I4
aI6
aa(lp89
I4
aI6
aa(lp90
I4
aI6
aa(lp91
I4
aI6
aa(lp92
I4
aI6
aa(lp93
I4
aI6
aI6
aa(lp94
I4
aI6
aI6
aa(lp95
I4
aI6
aI6
aa(lp96
I4
aI6
aI6
aa(lp97
I4
aI6
aI6
aa(lp98
I4
aI6
aI6
aa(lp99
I4
aI6
aI6
aa(lp100
I4
aI6
aI6
aa(lp101
I4
aI6
aI6
aa(lp102
I4
aI6
aI6
aa(lp103
I4
aI6
aI6
aa(lp104
I8
aI4
aI6
aI6
aa(lp105
I8
aI4
aI6
aI6
aa(lp106
I8
aI4
aI6
aI6
aa(lp107
I8
aI4
aI6
aI6
aa(lp108
I8
aI4
aI6
aI6
aa(lp109
I8
aI4
aI6
aI6
aa(lp110
I8
aI4
aI6
aI6
aa(lp111
I8
aI4
aI6
aI6
aa(lp112
I8
aI4
aI6
aI6
aa(lp113
I8
aI4
aI6
aI6
aa(lp114
I8
aI4
aI6
aI6
aa(lp115
I8
aI4
aI6
aI6
aa(lp116
I8
aI4
aI6
aI6
aa(lp117
I8
aI4
aI6
aI6
aa(lp118
I8
aI4
aI6
aI6
aa(lp119
I8
aI4
aI6
aI6
aa(lp120
I8
aI4
aI6
aI6
aa(lp121
I8
aI4
aI6
aI6
aI8
aa(lp122
I8
aI4
aI6
aI6
aI8
aa(lp123
I8
aI4
aI6
aI6
aI8
aa(lp124
I8
aI4
aI6
aI6
aI8
aa(lp125
I8
aI4
aI6
aI6
aI8
aa(lp126
I8
aI4
aI6
aI6
aI8
aa(lp127
I8
aI4
aI6
aI6
aI8
aa(lp128
I8
aI4
aI6
aI6
aI8
aa(lp129
I8
aI4
aI6
aI6
aI8
aa(lp130
I8
aI4
aI6
aI6
aI8
aa(lp131
I8
aI4
aI6
aI6
aI8
aa(lp132
I8
aI4
aI6
aI6
aI8
aa(lp133
I8
aI4
aI6
aI6
aI8
aa(lp134
I8
aI4
aI6
aI6
aI8
aa(lp135
I8
aI4
aI6
aI6
aI6
aI8
aa(lp136
I8
aI4
aI6
aI6
aI6
aI8
aa(lp137
I8
aI4
aI6
aI6
aI6
aI8
aa(lp138
I8
aI4
aI6
aI6
aI6
aI8
aa(lp139
I8
aI4
aI6
aI6
aI6
aI8
aa(lp140
I8
aI4
aI6
aI6
aI6
aI8
aa(lp141
I8
aI4
aI6
aI6
aI6
aI8
aa(lp142
I8
aI4
aI6
aI6
aI6
aI8
aa(lp143
I8
aI4
aI6
aI6
aI6
aI6
aI8
aa(lp144
I8
aI4
aI6
aI6
aI6
aI6
aI8
aI8
aa(lp145
I8
aI4
aI6
aI6
aI6
aI6
aI8
aI8
aa(lp146
I8
aI4
aI6
aI6
aI6
aI6
aI8
aI8
aa(lp147
I8
aI4
aI6
aI6
aI6
aI6
aI8
aI8
aa(lp148
I8
aI4
aI6
aI6
aI6
aI6
aI8
aI8
aa(lp149
I8
aI4
aI6
aI6
aI6
aI6
aI8
aI8
aa(lp150
I8
aI4
aI6
aI6
aI6
aI6
aI8
aI8
aa(lp151
I8
aI4
aI6
aI6
aI6
aI6
aI8
aI8
aa(lp152
I8
aI4
aI6
aI6
aI6
aI6
aI8
aI8
aa(lp153
I8
aI4
aI6
aI6
aI6
aI6
aI8
aI8
aa(lp154
I8
aI4
aI6
aI6
aI6
aI6
aI8
aI8
aa(lp155
I8
aI4
aI6
aI6
aI6
aI6
aI8
aI8
aa(lp156
I8
aI4
aI6
aI6
aI6
aI6
aI8
aI8
aa(lp157
I8
aI4
aI6
aI6
aI6
aI6
aI8
aI8
aa(lp158
I8
aI4
aI6
aI6
aI6
aI6
aI8
aI8
aa(lp159
I8
aI4
aI6
aI6
aI6
aI6
aI8
aI8
aa(lp160
I8
aI4
aI6
aI6
aI6
aI6
aI8
aI8
aa(lp161
I8
aI4
aI6
aI6
aI6
aI6
aI8
aI8
aa(lp162
I8
aI4
aI6
aI6
aI6
aI6
aI8
aI8
aa(lp163
I8
aI4
aI6
aI6
aI6
aI6
aI8
aI8
aa(lp164
I8
aI4
aI6
aI6
aI6
aI6
aI8
aI8
aa(lp165
I8
aI4
aI6
aI6
aI6
aI6
aI8
aI8
aa(lp166
I8
aI4
aI6
aI6
aI6
aI6
aI8
aI8
aa(lp167
I8
aI4
aI6
aI6
aI6
aI6
aI8
aI8
aa(lp168
I8
aI4
aI6
aI6
aI6
aI6
aI8
aI8
aa(lp169
I8
aI4
aI6
aI6
aI6
aI6
aI8
aI8
aa(lp170
I8
aI4
aI6
aI6
aI6
aI6
aI8
aI8
aa(lp171
I8
aI4
aI6
aI6
aI6
aI6
aI8
aI8
aa(lp172
I8
aI4
aI6
aI6
aI6
aI6
aI8
aI8
aa(lp173
I8
aI4
aI6
aI6
aI6
aI6
aI8
aI8
aa(lp174
I8
aI4
aI6
aI6
aI6
aI6
aI8
aI8
aa(lp175
I8
aI4
aI6
aI6
aI6
aI6
aI8
aI8
aa(lp176
I8
aI4
aI6
aI6
aI6
aI6
aI8
aI8
aa(lp177
I8
aI4
aI6
aI6
aI6
aI6
aI8
aI8
aa(lp178
I8
aI4
aI6
aI6
aI6
aI6
aI8
aI8
aa(lp179
I8
aI4
aI6
aI6
aI6
aI6
aI8
aI8
aa(lp180
I8
aI4
aI6
aI6
aI6
aI6
aI8
aI8
aa(lp181
I8
aI10
aI4
aI6
aI6
aI6
aI6
aI8
aI8
aa(lp182
I8
aI10
aI4
aI6
aI6
aI6
aI6
aI8
aI8
aa(lp183
I8
aI10
aI4
aI6
aI6
aI6
aI6
aI8
aI8
aa(lp184
I8
aI10
aI4
aI6
aI6
aI6
aI6
aI8
aI8
aa(lp185
I8
aI10
aI4
aI6
aI6
aI6
aI6
aI8
aa(lp186
I8
aI10
aI4
aI6
aI6
aI6
aI6
aI8
aa(lp187
I8
aI10
aI4
aI6
aI6
aI6
aI6
aI8
aa(lp188
I8
aI10
aI4
aI6
aI6
aI6
aI6
aI8
aa(lp189
I8
aI10
aI4
aI6
aI6
aI6
aI6
aI8
aa(lp190
I8
aI10
aI4
aI6
aI6
aI6
aI6
aI8
aa(lp191
I8
aI10
aI4
aI6
aI6
aI6
aI6
aI8
aa(lp192
I8
aI10
aI4
aI6
aI6
aI6
aI6
aI8
aa(lp193
I8
aI10
aI4
aI6
aI6
aI6
aI6
aI8
aa(lp194
I8
aI10
aI4
aI6
aI6
aI6
aI6
aI8
aa(lp195
I8
aI10
aI4
aI6
aI6
aI6
aI6
aI8
aa(lp196
I10
aI4
aI6
aI6
aI6
aI6
aI8
aa(lp197
I10
aI4
aI6
aI6
aI6
aI6
aI8
aa(lp198
I10
aI4
aI6
aI6
aI6
aI6
aI8
aa(lp199
I10
aI4
aI6
aI6
aI6
aI6
aI8
aa(lp200
I10
aI4
aI6
aI6
aI6
aI6
aI8
aa(lp201
I10
aI4
aI6
aI6
aI6
aI6
aI8
aa(lp202
I10
aI4
aI6
aI6
aI6
aI6
aI8
aa(lp203
I10
aI4
aI6
aI6
aI6
aI6
aI8
aa(lp204
I10
aI4
aI6
aI6
aI6
aI6
aI8
aa(lp205
I10
aI4
aI6
aI6
aI6
aI6
aI8
aI6
aa(lp206
I8
aI10
aI4
aI6
aI6
aI6
aI6
aI8
aI6
aa(lp207
I8
aI10
aI4
aI6
aI6
aI6
aI6
aI8
aI6
aa(lp208
I8
aI10
aI4
aI6
aI6
aI6
aI6
aI8
aI6
aa(lp209
I8
aI10
aI4
aI6
aI6
aI6
aI6
aI8
aI6
aa(lp210
I8
aI10
aI4
aI6
aI6
aI6
aI6
aI8
aI6
aa(lp211
I8
aI10
aI4
aI6
aI6
aI6
aI6
aI8
aI6
aa(lp212
I8
aI10
aI4
aI6
aI6
aI6
aI6
aI8
aI6
aa(lp213
I8
aI10
aI4
aI6
aI6
aI6
aI6
aI8
aI6
aa(lp214
I8
aI10
aI4
aI6
aI6
aI6
aI6
aI8
aI6
aa(lp215
I8
aI10
aI4
aI6
aI6
aI6
aI6
aI8
aI6
aa(lp216
I8
aI10
aI4
aI6
aI6
aI6
aI6
aI8
aI6
aa(lp217
I8
aI10
aI4
aI6
aI6
aI6
aI6
aI8
aI6
aa(lp218
I8
aI10
aI4
aI6
aI6
aI6
aI6
aI8
aI6
aa(lp219
I8
aI10
aI4
aI6
aI6
aI6
aI6
aI8
aI6
aa(lp220
I8
aI10
aI4
aI6
aI6
aI6
aI6
aI8
aI6
aa(lp221
I8
aI10
aI4
aI6
aI6
aI6
aI6
aI8
aI6
aa(lp222
I8
aI10
aI4
aI6
aI6
aI6
aI6
aI8
aI6
aa(lp223
I8
aI10
aI4
aI6
aI6
aI6
aI6
aI8
aI6
aa(lp224
I8
aI10
aI4
aI6
aI6
aI6
aI6
aI8
aI6
aa(lp225
I8
aI10
aI4
aI6
aI6
aI6
aI6
aI8
aI6
aa(lp226
I8
aI10
aI4
aI6
aI6
aI6
aI6
aI8
aI6
aa(lp227
I8
aI10
aI4
aI6
aI6
aI6
aI6
aI8
aI6
aa(lp228
I8
aI10
aI4
aI6
aI6
aI6
aI6
aI8
aI6
aa(lp229
I8
aI10
aI4
aI6
aI6
aI6
aI6
aI8
aI6
aa(lp230
I8
aI4
aI6
aI6
aI6
aI6
aI8
aI6
aa(lp231
I8
aI4
aI6
aI6
aI6
aI6
aI8
aI6
aa(lp232
I8
aI4
aI6
aI6
aI6
aI6
aI8
aI6
aa(lp233
I8
aI4
aI6
aI6
aI6
aI6
aI8
aI6
aa(lp234
I8
aI4
aI6
aI6
aI6
aI6
aI8
aI6
aa(lp235
I8
aI4
aI6
aI6
aI6
aI6
aI8
aI6
aa(lp236
I8
aI4
aI6
aI6
aI6
aI6
aI8
aI6
aa(lp237
I8
aI10
aI4
aI6
aI6
aI6
aI6
aI8
aI6
aa(lp238
I8
aI10
aI4
aI6
aI6
aI6
aI6
aI8
aI6
aa(lp239
I8
aI10
aI4
aI6
aI6
aI6
aI6
aI8
aI6
aa(lp240
I8
aI10
aI4
aI6
aI6
aI6
aI6
aI8
aI6
aa(lp241
I8
aI10
aI4
aI6
aI6
aI6
aI6
aI8
aI6
aa(lp242
I8
aI10
aI4
aI6
aI6
aI6
aI6
aI8
aI6
aa(lp243
I8
aI10
aI4
aI6
aI6
aI6
aI6
aI8
aI6
aa(lp244
I8
aI10
aI4
aI6
aI6
aI6
aI6
aI8
aI6
aa(lp245
I8
aI10
aI4
aI6
aI6
aI6
aI6
aI8
aI6
aa(lp246
I8
aI10
aI4
aI6
aI6
aI6
aI6
aI8
aI6
aa(lp247
I8
aI10
aI4
aI6
aI6
aI6
aI6
aI8
aI6
aa(lp248
I8
aI10
aI4
aI6
aI6
aI6
aI6
aI8
aI6
aa(lp249
I8
aI10
aI4
aI6
aI6
aI6
aI6
aI8
aI6
aa(lp250
I8
aI10
aI4
aI6
aI6
aI6
aI6
aI8
aI6
aa(lp251
I8
aI10
aI4
aI6
aI6
aI6
aI6
aI8
aI6
aa(lp252
I8
aI10
aI4
aI6
aI6
aI6
aI6
aI8
aI6
aa(lp253
I8
aI10
aI4
aI6
aI6
aI6
aI6
aI8
aI6
aa(lp254
I8
aI10
aI4
aI6
aI6
aI6
aI6
aI8
aI6
aa(lp255
I8
aI10
aI4
aI6
aI6
aI6
aI6
aI8
aI6
aa.