(lp1
(lp2
a(lp3
a(lp4
a(lp5
a(lp6
a(lp7
a(lp8
a(lp9
a(lp10
a(lp11
a(lp12
a(lp13
a(lp14
a(lp15
a(lp16
a(lp17
a(lp18
a(lp19
a(lp20
a(lp21
a(lp22
a(lp23
I6
aa(lp24
I6
aa(lp25
I6
aa(lp26
I6
aa(lp27
I6
aa(lp28
I6
aI4
aa(lp29
I8
aI6
aI4
aa(lp30
I8
aI6
aI4
aa(lp31
I8
aI6
aI4
aa(lp32
I8
aI6
aI4
aa(lp33
I8
aI6
aI4
aa(lp34
I8
aI6
aI4
aa(lp35
I8
aI6
aI4
aa(lp36
I8
aI6
aI4
aa(lp37
I8
aI6
aI4
aa(lp38
I8
aI6
aI4
aI6
aa(lp39
I8
aI6
aI4
aI6
aI4
aa(lp40
I8
aI6
aI4
aI6
aI4
aa(lp41
I8
aI6
aI4
aI6
aI4
aa(lp42
I8
aI6
aI4
aI6
aI4
aa(lp43
I8
aI6
aI4
aI6
aI4
aa(lp44
I8
aI6
aI4
aI6
aI4
aa(lp45
I8
aI6
aI4
aI6
aI4
aa(lp46
I8
aI6
aI4
aI6
aI4
aa(lp47
I8
aI6
aI4
aI6
aI4
aa(lp48
I8
aI6
aI4
aI6
aI4
aa(lp49
I8
aI6
aI4
aI6
aI4
aa(lp50
I8
aI6
aI4
aI6
aI4
aa(lp51
I8
aI6
aI4
aI6
aI4
aa(lp52
I8
aI6
aI4
aI6
aI4
aa(lp53
I8
aI6
aI8
aI4
aI6
aI4
aa(lp54
I8
aI6
aI8
aI4
aI6
aI4
aa(lp55
I8
aI6
aI8
aI4
aI6
aI4
aa(lp56
I8
aI6
aI8
aI4
aI6
aI4
aa(lp57
I8
aI6
aI8
aI4
aI6
aI4
aa(lp58
I8
aI6
aI8
aI4
aI6
aI4
aa(lp59
I8
aI8
aI4
aI6
aI4
aa(lp60
I8
aI4
aI8
aI4
aI6
aI4
aa(lp61
I8
aI4
aI8
aI4
aI6
aI4
aa(lp62
I8
aI4
aI8
aI4
aI6
aI4
aa(lp63
I8
aI4
aI8
aI4
aI6
aI4
aa(lp64
I8
aI4
aI8
aI4
aI6
aI4
aa(lp65
I8
aI4
aI8
aI4
aI6
aI4
aa(lp66
I8
aI4
aI8
aI4
aI6
aI4
aa(lp67
I8
aI4
aI8
aI4
aI6
aI4
aa(lp68
I8
aI4
aI8
aI4
aI6
aI4
aa(lp69
I8
aI4
aI8
aI4
aI6
aI4
aa(lp70
I8
aI4
aI8
aI4
aI6
aI4
aa(lp71
I8
aI4
aI8
aI4
aI6
aI4
aa(lp72
I8
aI4
aI8
aI4
aI6
aI4
aa(lp73
I8
aI4
aI8
aI4
aI6
aI4
aa(lp74
I8
aI4
aI8
aI4
aI6
aI4
aa(lp75
I8
aI4
aI8
aI4
aI6
aI4
aa(lp76
I8
aI4
aI8
aI4
aI6
aI4
aa(lp77
I8
aI4
aI8
aI4
aI6
aI4
aa(lp78
I8
aI4
aI8
aI4
aI6
aI4
aa(lp79
I8
aI4
aI8
aI4
aI6
aI4
aa(lp80
I8
aI4
aI8
aI4
aI6
aI4
aa(lp81
I8
aI4
aI8
aI4
aI6
aI4
aa(lp82
I8
aI4
aI8
aI4
aI6
aI4
aa(lp83
I8
aI4
aI8
aI4
aI6
aI4
aa(lp84
I8
aI4
aI8
aI6
aI4
aI6
aI4
aa(lp85
I8
aI4
aI8
aI6
aI4
aI6
aI4
aa(lp86
I8
aI4
aI8
aI6
aI4
aI6
aI4
aa(lp87
I8
aI4
aI8
aI6
aI4
aI6
aI4
aa(lp88
I8
aI4
aI8
aI6
aI4
aI8
aI6
aI4
aa(lp89
I8
aI4
aI8
aI6
aI4
aI8
aI6
aI4
aa(lp90
I8
aI4
aI8
aI6
aI4
aI8
aI6
aI4
aa(lp91
I8
aI4
aI8
aI6
aI4
aI8
aI6
aI4
aa(lp92
I8
aI4
aI8
aI6
aI4
aI8
aI6
aI4
aa(lp93
I8
aI4
aI8
aI6
aI4
aI8
aI6
aI4
aa(lp94
I8
aI4
aI8
aI6
aI4
aI8
aI6
aI4
aa(lp95
I8
aI4
aI8
aI6
aI4
aI8
aI6
aI4
aa(lp96
I8
aI4
aI8
aI6
aI4
aI8
aI6
aI4
aa(lp97
I8
aI4
aI8
aI6
aI4
aI8
aI6
aI4
aa(lp98
I8
aI4
aI8
aI6
aI4
aI8
aI6
aI4
aa(lp99
I8
aI4
aI8
aI6
aI4
aI8
aI6
aI4
aa(lp100
I8
aI4
aI8
aI6
aI4
aI8
aI6
aI4
aa(lp101
I8
aI4
aI8
aI6
aI4
aI8
aI6
aI4
aa(lp102
I8
aI4
aI8
aI6
aI4
aI8
aI6
aI4
aa(lp103
I8
aI4
aI8
aI6
aI4
aI8
aI6
aI4
aa(lp104
I8
aI4
aI8
aI6
aI4
aI8
aI6
aI4
aa(lp105
I8
aI4
aI8
aI6
aI4
aI8
aI6
aI4
aa(lp106
I8
aI4
aI8
aI6
aI4
aI8
aI6
aI4
aa(lp107
I8
aI4
aI8
aI6
aI4
aI8
aI6
aI4
aa(lp108
I8
aI4
aI8
aI6
aI4
aI8
aI6
aI4
aa(lp109
I8
aI4
aI8
aI6
aI4
aI8
aI6
aI4
aa(lp110
I8
aI4
aI8
aI6
aI4
aI8
aI6
aI4
aa(lp111
I8
aI4
aI8
aI6
aI4
aI6
aI4
aa(lp112
I8
aI4
aI8
aI6
aI4
aI6
aI4
aa(lp113
I8
aI4
aI8
aI6
aI4
aI6
aI4
aa(lp114
I8
aI4
aI8
aI6
aI4
aI6
aI4
aa(lp115
I8
aI4
aI8
aI6
aI4
aI6
aI4
aa(lp116
I8
aI4
aI8
aI6
aI4
aI6
aI4
aa(lp117
I8
aI4
aI8
aI6
aI4
aI6
aI4
aa(lp118
I8
aI4
aI8
aI6
aI6
aI4
aa(lp119
I8
aI4
aI8
aI6
aI6
aI4
aa(lp120
I8
aI4
aI8
aI6
aI6
aI4
aa(lp121
I8
aI4
aI8
aI6
aI4
aI6
aI4
aa(lp122
I8
aI4
aI8
aI6
aI4
aI6
aI4
aa(lp123
I8
aI4
aI8
aI6
aI4
aI6
aI4
aa(lp124
I8
aI4
aI8
aI6
aI4
aI6
aI4
aa(lp125
I8
aI4
aI8
aI6
aI4
aI6
aI4
aa(lp126
I8
aI4
aI8
aI6
aI4
aI6
aI4
aa(lp127
I8
aI4
aI8
aI6
aI4
aI6
aI4
aa(lp128
I8
aI4
aI8
aI6
aI4
aI6
aI4
aa(lp129
I8
aI4
aI8
aI6
aI4
aI6
aI4
aa(lp130
I8
aI4
aI8
aI6
aI4
aI6
aI4
aa(lp131
I8
aI4
aI8
aI6
aI4
aI6
aI4
aa(lp132
I8
aI4
aI8
aI6
aI4
aI6
aI4
aa(lp133
I8
aI4
aI8
aI6
aI4
aI6
aI4
aa(lp134
I8
aI4
aI8
aI6
aI4
aI6
aI4
aa(lp135
I8
aI4
aI8
aI6
aI4
aI6
aI4
aa(lp136
I8
aI4
aI8
aI6
aI4
aI6
aI4
aa(lp137
I8
aI4
aI8
aI6
aI4
aI6
aI4
aa(lp138
I8
aI4
aI8
aI6
aI4
aI6
aI4
aa(lp139
I8
aI4
aI8
aI6
aI4
aI6
aI4
aa(lp140
I8
aI4
aI8
aI6
aI4
aI6
aI4
aa(lp141
I8
aI4
aI8
aI6
aI4
aI6
aI4
aa(lp142
I8
aI4
aI8
aI6
aI4
aI6
aI4
aa(lp143
I8
aI4
aI8
aI6
aI4
aI6
aI4
aa(lp144
I8
aI4
aI8
aI6
aI4
aI6
aI4
aa(lp145
I8
aI4
aI8
aI6
aI4
aI6
aI4
aa(lp146
I8
aI4
aI8
aI6
aI4
aI6
aI4
aa(lp147
I8
aI4
aI8
aI6
aI4
aI6
aI4
aa(lp148
I8
aI4
aI8
aI6
aI4
aI6
aI4
aa(lp149
I8
aI4
aI8
aI6
aI4
aI6
aI4
aa(lp150
I8
aI4
aI8
aI6
aI4
aI6
aI4
aa(lp151
I8
aI4
aI8
aI6
aI4
aI6
aI4
aa(lp152
I8
aI4
aI8
aI6
aI4
aI6
aI4
aa(lp153
I8
aI4
aI8
aI6
aI4
aI6
aI4
aa(lp154
I8
aI4
aI8
aI6
aI4
aI6
aI4
aa(lp155
I8
aI4
aI8
aI6
aI4
aI6
aI4
aa(lp156
I8
aI4
aI8
aI6
aI4
aI6
aI4
aa(lp157
I8
aI4
aI8
aI6
aI4
aI6
aI4
aa(lp158
I8
aI4
aI8
aI6
aI4
aI6
aI4
aa(lp159
I8
aI4
aI8
aI6
aI4
aI6
aI4
aa(lp160
I8
aI4
aI8
aI6
aI4
aI6
aI4
aa(lp161
I8
aI4
aI8
aI6
aI4
aI6
aI4
aa(lp162
I8
aI4
aI8
aI6
aI4
aI6
aI4
aa(lp163
I8
aI4
aI8
aI6
aI4
aI6
aI4
aa(lp164
I8
aI4
aI8
aI6
aI4
aI6
aI4
aa(lp165
I8
aI4
aI8
aI6
aI4
aI6
aI4
aa(lp166
I8
aI4
aI8
aI6
aI4
aI6
aI4
aa(lp167
I8
aI4
aI8
aI6
aI4
aI6
aI4
aa(lp168
I8
aI4
aI8
aI6
aI4
aI6
aI4
aa(lp169
I8
aI4
aI8
aI6
aI4
aI6
aI4
aa(lp170
I8
aI4
aI8
aI6
aI4
aI6
aI4
aa(lp171
I8
aI4
aI8
aI6
aI4
aI6
aI4
aa(lp172
I8
aI4
aI8
aI6
aI4
aI6
aI4
aa(lp173
I8
aI4
aI8
aI6
aI4
aI6
aI4
aa(lp174
I8
aI4
aI8
aI6
aI4
aI6
aI4
aa(lp175
I8
aI4
aI8
aI6
aI4
aI6
aI4
aa(lp176
I8
aI4
aI8
aI6
aI4
aI6
aI4
aa(lp177
I8
aI4
aI8
aI6
aI4
aI6
aI4
aa(lp178
I4
aI8
aI6
aI4
aI6
aI4
aa(lp179
I4
aI8
aI6
aI4
aI6
aI4
aa(lp180
I4
aI8
aI6
aI4
aI6
aI4
aa(lp181
I4
aI8
aI6
aI4
aI6
aI4
aa(lp182
I4
aI8
aI6
aI4
aI6
aI4
aa(lp183
I4
aI8
aI6
aI4
aI6
aI4
aa(lp184
I4
aI8
aI6
aI4
aI6
aI4
aa(lp185
I4
aI8
aI6
aI4
aI6
aI4
aa(lp186
I4
aI8
aI6
aI4
aI6
aI4
aa(lp187
I4
aI8
aI6
aI4
aI6
aI4
aa(lp188
I4
aI8
aI6
aI4
aI6
aI4
aa(lp189
I4
aI8
aI6
aI4
aI6
aI4
aa(lp190
I4
aI8
aI6
aI4
aI6
aI4
aa(lp191
I4
aI8
aI6
aI4
aI6
aI4
aa(lp192
I4
aI8
aI6
aI4
aI6
aI4
aa(lp193
I4
aI8
aI6
aI4
aI6
aI4
aa(lp194
I4
aI8
aI6
aI4
aI6
aI4
aa(lp195
I4
aI8
aI6
aI4
aI6
aI4
aa(lp196
I4
aI8
aI6
aI4
aI6
aI4
aa(lp197
I4
aI8
aI6
aI4
aI6
aI4
aa(lp198
I4
aI8
aI6
aI4
aI6
aI4
aa(lp199
I4
aI8
aI6
aI4
aI6
aI4
aa(lp200
I4
aI8
aI6
aI4
aI6
aI4
aa(lp201
I4
aI8
aI6
aI4
aI6
aI4
aa(lp202
I4
aI8
aI6
aI4
aI6
aI4
aa(lp203
I4
aI8
aI6
aI4
aI6
aI4
aa(lp204
I4
aI8
aI6
aI4
aI6
aI4
aa(lp205
I4
aI8
aI6
aI4
aI6
aI4
aa(lp206
I4
aI8
aI6
aI4
aI6
aI4
aa(lp207
I4
aI8
aI6
aI4
aI6
aI4
aa(lp208
I4
aI8
aI6
aI4
aI6
aI4
aa(lp209
I4
aI8
aI6
aI4
aI6
aI4
aa(lp210
I4
aI8
aI6
aI4
aI6
aI4
aa(lp211
I4
aI8
aI6
aI4
aI6
aI4
aa(lp212
I4
aI8
aI6
aI4
aI6
aI4
aa(lp213
I4
aI8
aI6
aI4
aI6
aI4
aa(lp214
I4
aI8
aI6
aI4
aI6
aI4
aa(lp215
I4
aI8
aI6
aI4
aI6
aI4
aa(lp216
I4
aI8
aI6
aI4
aI6
aI4
aa(lp217
I4
aI8
aI6
aI4
aI6
aI4
aa(lp218
I4
aI8
aI6
aI4
aI6
aI4
aa(lp219
I4
aI8
aI6
aI4
aI6
aI4
aa(lp220
I4
aI8
aI6
aI4
aI6
aI4
aa(lp221
I4
aI8
aI6
aI4
aI6
aI4
aa(lp222
I4
aI8
aI6
aI4
aI6
aI4
aa(lp223
I4
aI8
aI6
aI4
aI6
aI4
aa(lp224
I4
aI8
aI6
aI4
aI6
aI4
aa(lp225
I4
aI8
aI6
aI4
aI6
aI4
aa(lp226
I4
aI8
aI6
aI4
aI6
aI4
aa(lp227
I4
aI8
aI6
aI4
aI6
aI4
aa(lp228
I4
aI8
aI6
aI4
aI6
aI4
aa(lp229
I4
aI8
aI6
aI4
aI6
aI4
aa(lp230
I4
aI8
aI6
aI4
aI6
aI4
aa(lp231
I4
aI8
aI6
aI4
aI6
aI4
aa(lp232
I4
aI8
aI6
aI4
aI6
aI4
aa(lp233
I4
aI8
aI6
aI4
aI6
aI4
aa(lp234
I4
aI8
aI6
aI4
aI6
aI4
aa(lp235
I4
aI8
aI6
aI4
aI6
aI4
aa(lp236
I4
aI8
aI6
aI4
aI6
aI4
aa(lp237
I4
aI8
aI6
aI4
aI6
aI4
aa(lp238
I4
aI8
aI6
aI4
aI6
aI4
aa(lp239
I4
aI8
aI6
aI4
aI6
aI4
aa(lp240
I4
aI8
aI6
aI4
aI6
aI4
aa(lp241
I4
aI8
aI6
aI4
aI6
aI4
aa(lp242
I4
aI8
aI6
aI4
aI6
aI4
aa(lp243
I4
aI8
aI6
aI4
aI6
aI4
aa(lp244
I4
aI8
aI6
aI4
aI6
aI4
aa(lp245
I4
aI8
aI6
aI4
aI6
aI4
aa(lp246
I4
aI8
aI6
aI4
aI6
aI4
aa(lp247
I4
aI8
aI6
aI4
aI6
aI4
aa(lp248
I4
aI8
aI6
aI4
aI6
aI4
aa(lp249
I4
aI8
aI6
aI4
aI6
aI4
aa(lp250
I4
aI8
aI6
aI4
aI6
aI4
aa(lp251
I4
aI8
aI6
aI4
aI6
aI4
aa(lp252
I4
aI8
aI6
aI4
aI6
aI4
aa(lp253
I4
aI8
aI6
aI4
aI6
aI4
aa(lp254
I4
aI8
aI6
aI4
aI6
aI4
aa(lp255
I4
aI8
aI6
aI4
aI6
aI4
aa(lp256
I4
aI8
aI6
aI4
aI6
aI4
aa(lp257
I4
aI8
aI6
aI4
aI6
aI4
aa(lp258
I4
aI8
aI6
aI4
aI6
aI4
aa(lp259
I4
aI8
aI6
aI4
aI6
aI4
aa(lp260
I4
aI8
aI6
aI4
aI6
aI4
aa(lp261
I4
aI8
aI6
aI4
aI6
aI4
aa(lp262
I4
aI8
aI6
aI4
aI6
aI4
aa(lp263
I4
aI8
aI6
aI4
aI6
aI4
aa(lp264
I4
aI8
aI6
aI4
aI6
aI4
aa(lp265
I4
aI8
aI6
aI4
aI6
aI4
aa(lp266
I4
aI8
aI6
aI4
aI6
aI4
aa(lp267
I4
aI8
aI6
aI4
aI6
aI4
aa(lp268
I4
aI8
aI6
aI4
aI6
aI4
aa(lp269
I4
aI8
aI6
aI4
aI6
aI4
aa(lp270
I4
aI8
aI6
aI4
aI6
aI4
aa(lp271
I4
aI8
aI6
aI4
aI6
aI4
aa(lp272
I4
aI8
aI6
aI4
aI6
aI4
aa(lp273
I4
aI8
aI6
aI4
aI6
aI4
aa(lp274
I4
aI8
aI6
aI4
aI6
aI4
aa(lp275
I4
aI8
aI6
aI4
aI6
aI4
aa(lp276
I4
aI8
aI6
aI4
aI6
aI4
aa(lp277
I4
aI8
aI6
aI4
aI6
aI4
aa(lp278
I4
aI8
aI6
aI4
aI6
aI4
aa(lp279
I4
aI8
aI6
aI4
aI6
aI4
aa(lp280
I4
aI8
aI6
aI4
aI6
aI4
aa(lp281
I4
aI8
aI6
aI4
aI6
aI4
aa(lp282
I4
aI8
aI6
aI4
aI6
aI4
aa(lp283
I4
aI8
aI6
aI4
aI6
aI4
aa(lp284
I4
aI8
aI6
aI4
aI6
aI4
aa(lp285
I4
aI8
aI6
aI4
aI6
aI4
aa(lp286
I4
aI8
aI6
aI4
aI6
aI4
aa(lp287
I4
aI8
aI6
aI4
aI6
aI4
aa(lp288
I4
aI8
aI6
aI4
aI6
aI4
aa(lp289
I4
aI8
aI6
aI4
aI6
aI4
aa(lp290
I4
aI8
aI6
aI4
aI6
aI4
aa(lp291
I4
aI6
aI4
aI6
aI4
aa(lp292
I4
aI6
aI4
aI6
aI4
aa(lp293
I4
aI6
aI4
aI6
aI4
aa(lp294
I4
aI6
aI4
aI6
aI4
aa(lp295
I4
aI6
aI4
aI6
aI4
aa(lp296
I4
aI6
aI4
aI6
aI4
aa(lp297
I4
aI6
aI4
aI6
aI4
aa(lp298
I4
aI6
aI4
aI6
aI4
aa(lp299
I4
aI6
aI4
aI6
aI4
aa(lp300
I4
aI6
aI4
aI6
aI4
aa(lp301
I4
aI6
aI4
aI6
aI4
aa(lp302
I4
aI6
aI4
aI6
aI4
aa(lp303
I4
aI6
aI4
aI6
aI4
aa(lp304
I4
aI6
aI4
aI6
aI4
aa(lp305
I4
aI6
aI4
aI6
aI4
aa(lp306
I4
aI6
aI4
aI4
aa(lp307
I4
aI6
aI4
aI4
aa(lp308
I4
aI6
aI4
aI4
aa(lp309
I4
aI6
aI4
aI4
aa(lp310
I4
aI6
aI4
aI4
aa(lp311
I4
aI6
aI4
aI4
aa(lp312
I4
aI6
aI4
aI4
aa(lp313
I4
aI6
aI4
aI4
aa(lp314
I4
aI6
aI4
aI4
aa(lp315
I4
aI6
aI4
aI4
aa(lp316
I4
aI6
aI4
aI4
aa(lp317
I4
aI6
aI4
aI4
aa(lp318
I4
aI6
aI4
aI4
aa(lp319
I4
aI6
aI4
aI4
aa(lp320
I4
aI6
aI4
aI4
aa(lp321
I4
aI6
aI4
aI4
aa(lp322
I4
aI6
aI4
aI4
aa(lp323
I4
aI6
aI4
aI4
aa(lp324
I4
aI6
aI4
aI4
aa(lp325
I4
aI6
aI4
aI4
aa(lp326
I4
aI6
aI4
aI4
aa(lp327
I4
aI6
aI4
aI4
aa(lp328
I4
aI6
aI4
aI4
aa(lp329
I4
aI6
aI4
aI4
aa(lp330
I4
aI6
aI4
aI4
aa(lp331
I4
aI6
aI4
aI4
aa(lp332
I4
aI6
aI4
aI4
aa(lp333
I4
aI6
aI4
aI4
aa(lp334
I4
aI6
aI4
aI4
aa(lp335
I4
aI6
aI4
aI4
aa(lp336
I4
aI6
aI4
aI4
aa(lp337
I4
aI6
aI4
aI4
aa(lp338
I4
aI6
aI4
aI4
aa(lp339
I4
aI6
aI4
aI4
aa(lp340
I4
aI6
aI4
aI4
aa(lp341
I4
aI6
aI4
aI4
aa(lp342
I4
aI6
aI4
aI4
aa(lp343
I4
aI6
aI4
aI4
aa(lp344
I4
aI6
aI4
aI4
aa(lp345
I4
aI6
aI4
aI4
aa(lp346
I4
aI6
aI4
aI4
aa(lp347
I4
aI6
aI4
aI4
aa(lp348
I4
aI6
aI4
aI4
aa(lp349
I4
aI6
aI4
aI4
aa(lp350
I4
aI6
aI4
aI4
aa(lp351
I4
aI6
aI4
aI4
aa(lp352
I4
aI6
aI4
aI4
aa(lp353
I4
aI6
aI4
aI4
aa(lp354
I4
aI6
aI4
aI4
aa(lp355
I4
aI6
aI4
aI4
aa(lp356
I4
aI6
aI4
aI4
aa(lp357
I4
aI6
aI4
aI4
aa(lp358
I4
aI6
aI4
aI4
aa(lp359
I4
aI6
aI4
aI4
aa(lp360
I4
aI6
aI4
aI4
aa(lp361
I4
aI6
aI4
aI4
aa(lp362
I4
aI6
aI4
aI4
aI6
aa(lp363
I4
aI6
aI4
aI4
aI6
aa(lp364
I4
aI6
aI4
aI4
aI6
aa(lp365
I4
aI6
aI4
aI4
aI6
aa(lp366
I4
aI6
aI4
aI4
aI6
aa(lp367
I4
aI6
aI4
aI4
aI6
aa(lp368
I4
aI6
aI4
aI4
aI6
aa(lp369
I4
aI6
aI4
aI4
aI6
aa(lp370
I4
aI6
aI4
aI4
aI6
aa(lp371
I4
aI6
aI4
aI4
aI6
aa(lp372
I4
aI6
aI4
aI4
aI6
aa(lp373
I4
aI6
aI4
aI4
aI6
aa(lp374
I4
aI6
aI4
aI4
aI6
aa(lp375
I4
aI6
aI4
aI4
aI6
aa(lp376
I4
aI6
aI4
aI4
aI6
aa(lp377
I4
aI6
aI4
aI4
aI6
aa(lp378
I4
aI6
aI4
aI4
aI6
aa(lp379
I4
aI6
aI4
aI4
aI6
aa(lp380
I4
aI6
aI4
aI4
aI6
aa(lp381
I4
aI6
aI4
aI4
aI6
aa(lp382
I4
aI6
aI4
aI4
aI6
aa(lp383
I4
aI6
aI4
aI4
aI6
aa(lp384
I4
aI6
aI4
aI4
aI6
aa(lp385
I4
aI6
aI4
aI4
aI6
aa(lp386
I4
aI6
aI4
aI4
aI6
aa(lp387
I4
aI6
aI4
aI4
aI6
aa(lp388
I4
aI6
aI4
aI4
aI6
aa(lp389
I4
aI6
aI4
aI4
aI6
aa(lp390
I4
aI6
aI4
aI4
aI6
aa.