(lp1
(lp2
a(lp3
a(lp4
a(lp5
a(lp6
a(lp7
a(lp8
a(lp9
a(lp10
a(lp11
a(lp12
a(lp13
a(lp14
a(lp15
a(lp16
a(lp17
a(lp18
a(lp19
a(lp20
a(lp21
I6
aa(lp22
I6
aa(lp23
I6
aa(lp24
I6
aa(lp25
I6
aa(lp26
I6
aa(lp27
I6
aa(lp28
I6
aa(lp29
I6
aa(lp30
I6
aa(lp31
I6
aa(lp32
I8
aI6
aa(lp33
I8
aI6
aa(lp34
I8
aI6
aa(lp35
I8
aI6
aa(lp36
I8
aI6
aa(lp37
I8
aI6
aa(lp38
I8
aI6
aa(lp39
I8
aI6
aa(lp40
I8
aI6
aa(lp41
I8
aI6
aa(lp42
I8
aI6
aa(lp43
I8
aI6
aa(lp44
I8
aI6
aa(lp45
I8
aI6
aa(lp46
I8
aI6
aa(lp47
I8
aI6
aa(lp48
I8
aI6
aa(lp49
I8
aI6
aa(lp50
I8
aI6
aa(lp51
I8
aI6
aa(lp52
I8
aI6
aa(lp53
I8
aI6
aa(lp54
I8
aI6
aa(lp55
I8
aI6
aa(lp56
I8
aI6
aa(lp57
I8
aI6
aa(lp58
I8
aI6
aa(lp59
I8
aI6
aa(lp60
I8
aI6
aa(lp61
I8
aI6
aa(lp62
I8
aI6
aa(lp63
I8
aI6
aa(lp64
I8
aI6
aa(lp65
I8
aI6
aa(lp66
I8
aI6
aa(lp67
I8
aI6
aa(lp68
I8
aI6
aa(lp69
I8
aI6
aa(lp70
I8
aI6
aa(lp71
I8
aI6
aa(lp72
I8
aI6
aa(lp73
I8
aI6
aa(lp74
I8
aI6
aa(lp75
I8
aI6
aa(lp76
I8
aI6
aa(lp77
I8
aI6
aa(lp78
I8
aI6
aa(lp79
I8
aI6
aa(lp80
I8
aI6
aa(lp81
I8
aI6
aa(lp82
I8
aI6
aa(lp83
I8
aI6
aa(lp84
I8
aI6
aa(lp85
I8
aI6
aa(lp86
I8
aI6
aa(lp87
I8
aI6
aa(lp88
I8
aI6
aa(lp89
I8
aI6
aa(lp90
I8
aI6
aa(lp91
I8
aI6
aa(lp92
I8
aI6
aa(lp93
I8
aI6
aa(lp94
I8
aI6
aa(lp95
I8
aI6
aa(lp96
I8
aI6
aa(lp97
I8
aI6
aa(lp98
I8
aI6
aa(lp99
I8
aI6
aa(lp100
I8
aI6
aa(lp101
I8
aI6
aa(lp102
I8
aI6
aa(lp103
I8
aI6
aa(lp104
I8
aI6
aa(lp105
I8
aI6
aa(lp106
I8
aI6
aa(lp107
I8
aI6
aa(lp108
I8
aI6
aI6
aa(lp109
I8
aI6
aI6
aa(lp110
I8
aI6
aI6
aa(lp111
I8
aI6
aI6
aa(lp112
I8
aI6
aI6
aa(lp113
I8
aI6
aI6
aa(lp114
I8
aI6
aI6
aa(lp115
I8
aI6
aI6
aa(lp116
I8
aI6
aI6
aa(lp117
I8
aI6
aI6
aa(lp118
I8
aI6
aI6
aa(lp119
I8
aI6
aI6
aa(lp120
I8
aI6
aI6
aa(lp121
I8
aI6
aI6
aa(lp122
I8
aI6
aI6
aa(lp123
I8
aI6
aI6
aa(lp124
I8
aI6
aI6
aa(lp125
I8
aI6
aI6
aa(lp126
I8
aI6
aI6
aa(lp127
I8
aI6
aI6
aa(lp128
I8
aI6
aI6
aa(lp129
I8
aI6
aI6
aa(lp130
I8
aI6
aI6
aa(lp131
I8
aI6
aI6
aa(lp132
I8
aI6
aI6
aa(lp133
I8
aI6
aI6
aa(lp134
I8
aI6
aI6
aa(lp135
I8
aI6
aI6
aa(lp136
I8
aI6
aI6
aa(lp137
I8
aI6
aI6
aa(lp138
I8
aI6
aI6
aa(lp139
I8
aI6
aI6
aa(lp140
I8
aI6
aI6
aa(lp141
I8
aI6
aI6
aa(lp142
I8
aI6
aI6
aa(lp143
I8
aI6
aI6
aa(lp144
I8
aI6
aI6
aa(lp145
I8
aI6
aI6
aa(lp146
I8
aI6
aI6
aa(lp147
I8
aI6
aI6
aa(lp148
I8
aI6
aI6
aa(lp149
I8
aI6
aI6
aa(lp150
I8
aI6
aI6
aa(lp151
I8
aI6
aI6
aa(lp152
I8
aI6
aI6
aa(lp153
I8
aI6
aI6
aa(lp154
I8
aI6
aI6
aa(lp155
I8
aI6
aI6
aa(lp156
I8
aI6
aI6
aa(lp157
I8
aI6
aI6
aa(lp158
I8
aI6
aI6
aa(lp159
I8
aI6
aI6
aa(lp160
I8
aI6
aI6
aa(lp161
I8
aI6
aI6
aa(lp162
I8
aI6
aI6
aa(lp163
I8
aI6
aI6
aa(lp164
I8
aI6
aI6
aa(lp165
I8
aI6
aI6
aa(lp166
I8
aI6
aI6
aa(lp167
I8
aI6
aI6
aa(lp168
I8
aI6
aI6
aa(lp169
I8
aI6
aI6
aa(lp170
I8
aI6
aI6
aa(lp171
I8
aI6
aI6
aa(lp172
I8
aI6
aI6
aa(lp173
I8
aI6
aI6
aa(lp174
I8
aI6
aI6
aa(lp175
I8
aI6
aI6
aa(lp176
I8
aI6
aI6
aa(lp177
I8
aI6
aI6
aa(lp178
I8
aI6
aI6
aa(lp179
I8
aI6
aI6
aa(lp180
I8
aI6
aI6
aa(lp181
I8
aI6
aI6
aa(lp182
I8
aI6
aI6
aa(lp183
I8
aI6
aI6
aa(lp184
I8
aI6
aI6
aa(lp185
I8
aI6
aI6
aa(lp186
I8
aI6
aI6
aa(lp187
I8
aI6
aI6
aa(lp188
I8
aI6
aI6
aa(lp189
I8
aI6
aI6
aa(lp190
I8
aI6
aI6
aa(lp191
I8
aI6
aI6
aa(lp192
I8
aI6
aI6
aa(lp193
I8
aI6
aI6
aa(lp194
I8
aI6
aI6
aa(lp195
I8
aI6
aI6
aa(lp196
I8
aI6
aI6
aa(lp197
I8
aI6
aI6
aa(lp198
I8
aI6
aI6
aa(lp199
I8
aI6
aI6
aa(lp200
I8
aI6
aI6
aa(lp201
I8
aI6
aI6
aa(lp202
I8
aI6
aI6
aa(lp203
I8
aI6
aI6
aa(lp204
I8
aI6
aI6
aa(lp205
I8
aI6
aI6
aa(lp206
I8
aI6
aI6
aa(lp207
I8
aI6
aI6
aa(lp208
I8
aI6
aI6
aa(lp209
I8
aI6
aI6
aa(lp210
I8
aI6
aI6
aa(lp211
I8
aI6
aI6
aa(lp212
I8
aI6
aI6
aa(lp213
I8
aI6
aI6
aa(lp214
I8
aI6
aI6
aa(lp215
I8
aI6
aI6
aa(lp216
I8
aI6
aI6
aa(lp217
I8
aI6
aI6
aa(lp218
I8
aI6
aI6
aa(lp219
I8
aI6
aI6
aa(lp220
I8
aI6
aI6
aa(lp221
I8
aI6
aI6
aa(lp222
I8
aI6
aI6
aa(lp223
I8
aI6
aI6
aa(lp224
I8
aI6
aI6
aa(lp225
I8
aI6
aI6
aa(lp226
I8
aI6
aI6
aa(lp227
I8
aI6
aI6
aa(lp228
I8
aI6
aI6
aa(lp229
I8
aI6
aI6
aa(lp230
I8
aI6
aI6
aa(lp231
I8
aI6
aI6
aa(lp232
I8
aI6
aI6
aa(lp233
I8
aI6
aI6
aa(lp234
I8
aI6
aI6
aa(lp235
I8
aI6
aI6
aa(lp236
I8
aI6
aI6
aa(lp237
I8
aI6
aI6
aa(lp238
I8
aI6
aI6
aa(lp239
I8
aI6
aI6
aa(lp240
I8
aI6
aI6
aa(lp241
I8
aI6
aI6
aa(lp242
I8
aI6
aI6
aa(lp243
I8
aI6
aI6
aa(lp244
I8
aI6
aI6
aa(lp245
I8
aI6
aI6
aa(lp246
I8
aI6
aI6
aa(lp247
I8
aI6
aI14
aI6
aa(lp248
I8
aI6
aI14
aI6
aa(lp249
I8
aI6
aI14
aI6
aa(lp250
I8
aI6
aI14
aI6
aa(lp251
I8
aI6
aI14
aI6
aa(lp252
I8
aI6
aI14
aI6
aa(lp253
I8
aI6
aI14
aI6
aa(lp254
I8
aI6
aI14
aI6
aa(lp255
I8
aI6
aI14
aI6
aa(lp256
I8
aI6
aI14
aI6
aa(lp257
I8
aI6
aI14
aI6
aa(lp258
I8
aI6
aI14
aI6
aa(lp259
I8
aI6
aI14
aI6
aa(lp260
I8
aI6
aI14
aI6
aa(lp261
I8
aI6
aI14
aI6
aa(lp262
I8
aI6
aI14
aI6
aa(lp263
I8
aI6
aI14
aI6
aa(lp264
I8
aI6
aI14
aI6
aa(lp265
I8
aI6
aI14
aI6
aa(lp266
I8
aI6
aI14
aI6
aa(lp267
I8
aI6
aI14
aI6
aa(lp268
I8
aI6
aI14
aI6
aa(lp269
I8
aI6
aI14
aI6
aa(lp270
I8
aI6
aI14
aI6
aa(lp271
I8
aI6
aI14
aI6
aa(lp272
I8
aI6
aI14
aI6
aa(lp273
I8
aI6
aI14
aI6
aa(lp274
I8
aI6
aI14
aI6
aa(lp275
I8
aI6
aI14
aI6
aa(lp276
I8
aI6
aI14
aI6
aa(lp277
I8
aI6
aI14
aI6
aa(lp278
I8
aI6
aI14
aI6
aa(lp279
I8
aI6
aI14
aI6
aa(lp280
I8
aI6
aI14
aI6
aa(lp281
I8
aI6
aI14
aI6
aa(lp282
I8
aI6
aI14
aI6
aa(lp283
I8
aI6
aI14
aI6
aa(lp284
I8
aI6
aI14
aI6
aa(lp285
I8
aI6
aI14
aI6
aa(lp286
I8
aI6
aI14
aI6
aa(lp287
I8
aI6
aI14
aI6
aa(lp288
I8
aI6
aI14
aI6
aa(lp289
I8
aI6
aI14
aI6
aa(lp290
I8
aI6
aI14
aI6
aa(lp291
I8
aI6
aI14
aI6
aa(lp292
I8
aI6
aI14
aI6
aa(lp293
I8
aI6
aI14
aI6
aa(lp294
I8
aI6
aI14
aI6
aa(lp295
I8
aI6
aI14
aI6
aa(lp296
I8
aI6
aI14
aI6
aa(lp297
I8
aI6
aI14
aI6
aa(lp298
I8
aI6
aI14
aI6
aa(lp299
I8
aI6
aI14
aI6
aa(lp300
I8
aI6
aI14
aI6
aa(lp301
I8
aI6
aI14
aI6
aa(lp302
I8
aI6
aI14
aI6
aa(lp303
I8
aI6
aI14
aI6
aa(lp304
I8
aI6
aI14
aI6
aa(lp305
I8
aI6
aI14
aI6
aa(lp306
I8
aI6
aI14
aI6
aa(lp307
I8
aI6
aI14
aI6
aa(lp308
I8
aI6
aI14
aI6
aa(lp309
I8
aI6
aI14
aI6
aa(lp310
I8
aI6
aI14
aI6
aa(lp311
I8
aI6
aI14
aI6
aa(lp312
I8
aI6
aI14
aI6
aa(lp313
I8
aI6
aI14
aI6
aa.