(lp1
(lp2
a(lp3
a(lp4
a(lp5
a(lp6
a(lp7
a(lp8
a(lp9
a(lp10
a(lp11
a(lp12
a(lp13
a(lp14
a(lp15
a(lp16
a(lp17
a(lp18
a(lp19
a(lp20
a(lp21
a(lp22
a(lp23
a(lp24
a(lp25
a(lp26
I4
aa(lp27
I4
aa(lp28
I4
aa(lp29
I4
aI4
aa(lp30
I4
aI4
aa(lp31
I4
aI4
aI4
aa(lp32
I4
aI4
aI4
aa(lp33
I4
aI4
aa(lp34
I4
aI4
aa(lp35
I4
aI4
aa(lp36
I4
aI4
aa(lp37
I4
aI4
aa(lp38
I4
aI4
aa(lp39
I4
aI4
aa(lp40
I4
aI4
aa(lp41
I4
aI4
aa(lp42
I4
aI4
aa(lp43
I4
aI4
aa(lp44
I4
aI4
aa(lp45
I4
aI4
aa(lp46
I4
aI4
aa(lp47
I4
aI4
aa(lp48
I4
aI4
aa(lp49
I4
aI4
aa(lp50
I4
aa(lp51
I4
aa(lp52
I12
aI4
aa(lp53
I12
aI4
aa(lp54
I12
aI4
aa(lp55
I12
aI4
aa(lp56
I12
aI4
aa(lp57
I12
aI4
aa(lp58
I12
aI4
aa(lp59
I12
aI4
aa(lp60
I12
aI4
aa(lp61
I12
aI4
aa(lp62
I12
aI4
aa(lp63
I12
aI4
aa(lp64
I4
aa(lp65
I4
aa(lp66
I6
aI4
aa(lp67
I6
aI4
aa(lp68
I6
aI4
aa(lp69
I6
aI4
aa(lp70
I6
aI4
aa(lp71
I6
aI12
aI4
aa(lp72
I6
aI12
aI4
aa(lp73
I6
aI12
aa(lp74
I6
aI4
aI12
aa(lp75
I6
aI4
aI12
aa(lp76
I6
aI4
aI12
aa(lp77
I6
aI4
aa(lp78
I6
aI4
aI4
aa(lp79
I6
aI4
aI4
aa(lp80
I6
aI4
aI4
aa(lp81
I6
aI4
aI4
aa(lp82
I6
aI4
aI4
aa(lp83
I6
aI4
aI6
aI4
aa(lp84
I6
aI4
aI6
aI4
aa(lp85
I6
aI4
aI6
aI4
aa(lp86
I6
aI4
aI6
aI4
aa(lp87
I6
aI4
aI6
aI4
aa(lp88
I6
aI4
aI6
aI4
aa(lp89
I6
aI4
aI6
aI4
aa(lp90
I6
aI4
aI4
aa(lp91
I6
aI4
aI4
aa(lp92
I6
aI4
aI4
aa(lp93
I6
aI4
aI4
aa(lp94
I6
aI4
aI4
aa(lp95
I4
aI4
aa(lp96
I4
aI4
aa(lp97
I6
aI4
aI4
aa(lp98
I6
aI4
aI4
aa(lp99
I6
aI4
aI4
aa(lp100
I6
aI4
aI4
aa(lp101
I6
aI4
aI4
aa(lp102
I6
aI4
aI4
aa(lp103
I6
aI4
aI4
aa(lp104
I4
aI4
aa(lp105
I4
aI4
aa(lp106
I4
aa(lp107
I4
aa(lp108
I4
aa(lp109
I4
aa(lp110
I4
aa(lp111
I4
aa(lp112
I4
aa(lp113
I4
aa(lp114
I4
aa(lp115
I4
aa(lp116
I4
aa(lp117
I4
aa(lp118
I4
aa(lp119
I4
aI6
aa(lp120
I4
aI6
aa(lp121
I4
aI6
aa(lp122
I4
aI6
aa(lp123
I6
aa(lp124
I6
aa(lp125
I6
aa(lp126
I6
aa(lp127
I6
aa(lp128
I6
aa(lp129
I6
aa(lp130
I6
aa(lp131
I6
aa(lp132
I6
aa(lp133
I6
aa(lp134
I6
aa(lp135
I6
aa(lp136
I6
aa(lp137
I6
aa(lp138
I6
aa(lp139
I6
aa(lp140
I6
aa(lp141
I6
aa(lp142
I6
aa(lp143
I6
aa(lp144
I6
aa(lp145
I6
aa(lp146
I6
aa(lp147
I6
aa(lp148
I6
aa(lp149
I6
aa(lp150
I6
aI6
aa(lp151
I6
aI6
aa(lp152
I6
aI6
aa(lp153
I6
aI6
aa(lp154
I6
aI6
aa(lp155
I6
aI6
aa(lp156
I6
aI6
aa(lp157
I6
aI6
aa(lp158
I6
aI6
aa(lp159
I6
aI6
aa(lp160
I6
aI6
aI4
aa(lp161
I6
aI6
aI4
aa(lp162
I6
aI4
aa(lp163
I6
aI4
aa(lp164
I6
aI4
aa(lp165
I6
aI4
aa(lp166
I6
aI4
aa(lp167
I6
aI4
aa(lp168
I6
aI4
aa(lp169
I6
aI4
aa(lp170
I6
aI4
aa(lp171
I6
aI4
aa(lp172
I6
aI4
aa(lp173
I6
aI4
aa(lp174
I6
aI4
aa(lp175
I4
aa(lp176
I4
aa(lp177
I4
aa(lp178
I4
aa(lp179
I4
aa(lp180
I4
aa(lp181
I4
aa(lp182
I4
aa(lp183
I4
aa(lp184
I4
aa(lp185
I4
aa(lp186
I4
aa(lp187
I4
aa(lp188
I4
aa(lp189
a(lp190
a(lp191
a(lp192
a(lp193
a(lp194
a(lp195
a(lp196
a(lp197
a(lp198
a(lp199
a(lp200
a(lp201
a(lp202
a(lp203
a(lp204
a(lp205
a(lp206
I6
aa(lp207
I6
aa(lp208
I6
aa(lp209
I6
aa(lp210
I6
aa(lp211
I6
aa(lp212
I6
aa(lp213
I6
aa(lp214
I6
aa(lp215
I6
aa(lp216
a(lp217
a(lp218
a(lp219
I8
aa(lp220
I8
aa(lp221
I8
aa(lp222
I8
aa(lp223
I8
aa(lp224
I8
aa(lp225
I8
aa(lp226
I8
aa(lp227
I8
aI8
aa(lp228
I8
aI8
aa(lp229
I8
aI8
aI4
aa(lp230
I8
aI8
aI4
aa(lp231
I8
aI8
aI4
aa(lp232
I8
aI8
aI4
aa(lp233
I8
aI8
aI4
aa(lp234
I8
aI8
aI4
aa(lp235
I8
aI8
aI4
aa(lp236
I8
aI8
aI4
aa(lp237
I8
aI8
aI4
aI4
aa(lp238
I8
aI4
aI4
aa(lp239
I8
aI4
aI4
aa(lp240
I8
aI4
aI4
aa(lp241
I8
aI4
aI4
aa(lp242
I8
aI4
aI4
aa(lp243
I8
aI4
aI4
aa(lp244
I8
aI4
aI4
aa(lp245
I8
aI4
aI4
aa(lp246
I8
aI4
aI4
aa(lp247
I8
aI4
aI4
aa(lp248
I8
aI4
aI4
aa(lp249
I8
aI4
aI4
aa(lp250
I8
aI4
aI4
aa(lp251
I8
aI4
aI4
aa(lp252
I8
aI4
aI4
aa(lp253
I8
aI4
aI4
aa(lp254
I8
aI4
aI4
aa(lp255
I6
aI8
aI4
aI4
aa(lp256
I6
aI8
aI4
aI4
aa(lp257
I6
aI8
aI4
aI4
aa(lp258
I6
aI8
aI4
aI4
aa(lp259
I6
aI8
aI4
aI4
aa(lp260
I8
aI4
aI4
aa(lp261
I6
aI8
aI4
aI4
aa(lp262
I12
aI6
aI8
aI4
aI4
aa(lp263
I12
aI6
aI8
aI4
aI4
aa(lp264
I12
aI6
aI8
aI4
aI4
aa(lp265
I12
aI6
aI8
aI4
aI4
aa(lp266
I12
aI6
aI8
aI4
aI4
aa(lp267
I12
aI6
aI8
aI4
aI4
aa(lp268
I12
aI6
aI8
aI4
aI4
aa(lp269
I6
aI8
aI4
aI4
aa(lp270
I6
aI8
aI4
aI4
aa(lp271
I6
aI8
aI4
aI4
aa(lp272
I6
aI4
aI4
aa(lp273
I6
aI4
aI4
aa(lp274
I6
aI4
aI4
aa(lp275
I6
aI4
aI4
aa(lp276
I6
aI4
aI4
aa(lp277
I6
aI4
aI4
aa(lp278
I6
aI4
aI4
aa(lp279
I6
aI4
aI4
aa(lp280
I6
aI4
aI4
aa(lp281
I6
aI4
aI4
aa(lp282
I6
aI4
aI4
aI8
aa(lp283
I6
aI4
aI4
aI8
aa(lp284
I6
aI8
aI4
aI4
aI8
aa(lp285
I6
aI8
aI4
aI4
aI8
aa(lp286
I6
aI8
aI4
aI8
aa(lp287
I6
aI8
aI4
aI8
aa(lp288
I6
aI8
aI4
aI8
aa(lp289
I6
aI8
aI4
aI8
aa(lp290
I6
aI8
aI4
aI8
aa(lp291
I6
aI8
aI4
aI8
aa(lp292
I6
aI8
aI4
aI8
aa(lp293
I8
aI4
aI8
aa(lp294
I8
aI4
aI8
aa(lp295
I8
aI4
aI8
aa(lp296
I8
aI4
aI8
aa(lp297
I8
aI4
aI8
aa(lp298
I8
aI4
aI8
aa(lp299
I8
aI4
aI8
aa(lp300
I8
aI4
aI8
aa(lp301
I8
aI4
aI8
aa(lp302
I8
aI4
aa(lp303
I8
aI4
aa(lp304
I6
aI8
aI4
aa(lp305
I6
aI8
aI4
aa(lp306
I6
aI8
aI4
aa(lp307
I6
aI4
aa(lp308
I6
aI4
aa(lp309
I4
aa(lp310
I4
aa(lp311
I4
aa(lp312
I4
aa(lp313
I4
aa(lp314
I4
aa(lp315
I4
aa(lp316
I4
aa(lp317
I4
aa(lp318
I4
aa(lp319
I4
aa(lp320
I4
aa(lp321
I6
aI4
aa(lp322
I6
aI4
aa(lp323
I6
aI4
aa(lp324
I4
aa(lp325
I4
aa(lp326
I4
aa(lp327
I4
aa(lp328
I4
aa(lp329
I4
aa(lp330
I4
aI6
aa(lp331
I4
aI6
aa(lp332
I4
aa(lp333
I4
aa(lp334
I4
aa(lp335
I4
aa(lp336
I4
aa(lp337
I4
aa(lp338
I6
aI4
aI6
aa(lp339
I6
aI6
aI4
aI6
aa(lp340
I6
aI6
aI4
aI6
aa(lp341
I6
aI6
aI4
aI6
aa(lp342
I6
aI6
aI4
aI6
aa(lp343
I6
aI6
aI4
aI4
aI6
aa(lp344
I6
aI6
aI4
aI6
aa(lp345
I6
aI6
aI4
aI6
aa(lp346
I6
aI6
aI4
aI6
aa(lp347
I6
aI6
aI4
aI6
aa(lp348
I6
aI6
aI4
aI6
aa(lp349
I6
aI6
aI4
aI6
aa(lp350
I6
aI6
aI4
aI6
aa(lp351
I6
aI6
aI4
aI6
aa(lp352
I6
aI6
aI4
aI6
aa(lp353
I6
aI6
aI4
aa(lp354
I6
aI6
aI4
aa(lp355
I6
aI6
aI4
aa(lp356
I6
aI6
aI4
aa(lp357
I6
aI4
aa(lp358
I6
aI4
aa(lp359
I6
aI4
aa(lp360
I6
aI4
aa(lp361
I6
aI4
aa(lp362
I6
aI4
aa(lp363
I6
aI4
aa(lp364
I6
aI4
aa(lp365
I6
aI4
aa(lp366
I6
aI4
aa(lp367
I6
aI4
aa(lp368
I6
aI4
aa(lp369
I6
aI4
aa(lp370
I6
aI4
aa(lp371
I6
aI4
aa(lp372
I6
aI4
aa(lp373
I4
aa(lp374
I4
aa(lp375
I4
aa(lp376
I4
aa(lp377
I4
aI6
aa(lp378
I4
aI6
aa(lp379
I4
aI6
aa(lp380
I4
aI4
aI6
aa(lp381
I4
aI4
aI6
aa(lp382
I4
aI6
aa(lp383
I4
aI4
aI6
aa(lp384
I4
aI4
aI6
aa(lp385
I4
aI4
aI6
aa(lp386
I4
aI4
aI6
aa(lp387
I4
aI4
aI6
aa(lp388
I6
aI4
aI4
aI6
aI6
aa(lp389
I4
aI4
aI6
aI6
aa(lp390
I4
aI4
aI6
aI6
aa(lp391
I4
aI4
aI6
aa(lp392
I4
aI4
aI6
aI6
aa(lp393
I6
aI4
aI4
aI6
aI6
aa(lp394
I6
aI4
aI4
aI6
aI6
aa(lp395
I6
aI4
aI4
aI6
aI6
aa(lp396
I6
aI4
aI4
aI6
aI6
aa(lp397
I6
aI4
aI4
aI6
aI6
aa(lp398
I6
aI4
aI4
aI6
aI6
aa(lp399
I6
aI4
aI4
aI6
aI6
aa(lp400
I6
aI4
aI4
aI6
aI6
aa(lp401
I6
aI4
aI4
aI6
aI6
aa(lp402
I6
aI4
aI4
aI6
aI6
aa(lp403
I6
aI4
aI4
aI6
aI6
aa(lp404
I6
aI4
aI4
aI6
aI6
aa(lp405
I6
aI4
aI4
aI6
aI6
aa(lp406
I6
aI4
aI4
aI6
aa(lp407
I6
aI4
aI4
aI6
aI6
aI4
aa(lp408
I6
aI4
aI4
aI6
aI6
aI4
aa(lp409
I6
aI4
aI4
aI6
aI6
aa(lp410
I6
aI4
aI4
aI6
aI6
aI4
aa(lp411
I6
aI4
aI4
aI6
aI6
aI4
aa(lp412
I6
aI4
aI4
aI6
aI6
aI4
aa(lp413
I6
aI4
aI4
aI6
aI6
aI4
aa(lp414
I6
aI4
aI4
aI6
aI6
aI4
aa(lp415
I6
aI4
aI4
aI6
aI4
aa(lp416
I6
aI4
aI4
aI6
aI4
aa(lp417
I6
aI4
aI4
aI6
aI6
aI4
aa(lp418
I6
aI4
aI4
aI6
aI6
aI4
aa(lp419
I6
aI4
aI4
aI6
aI6
aI4
aa(lp420
I6
aI4
aI4
aI6
aI6
aI4
aa(lp421
I6
aI4
aI4
aI6
aI6
aI4
aa(lp422
I6
aI4
aI4
aI6
aI4
aa(lp423
I6
aI4
aI4
aI6
aI6
aI4
aa(lp424
I6
aI4
aI4
aI6
aI6
aI4
aa(lp425
I6
aI4
aI4
aI6
aI6
aI6
aI4
aa(lp426
I6
aI4
aI4
aI6
aI6
aI6
aI4
aa(lp427
I6
aI4
aI4
aI6
aI6
aI6
aI4
aa(lp428
I6
aI4
aI6
aI6
aI6
aI4
aa(lp429
I6
aI4
aI4
aI6
aI6
aI6
aI4
aa(lp430
I6
aI4
aI4
aI6
aI6
aI6
aI4
aa(lp431
I6
aI4
aI4
aI6
aI6
aI6
aI4
aa(lp432
I6
aI4
aI4
aI6
aI6
aI6
aI4
aa(lp433
I6
aI4
aI4
aI6
aI6
aI6
aI4
aa(lp434
I6
aI4
aI4
aI4
aI6
aI6
aI6
aI4
aa(lp435
I6
aI4
aI4
aI4
aI6
aI6
aI6
aI4
aa(lp436
I6
aI4
aI4
aI4
aI6
aI6
aI4
aa(lp437
I6
aI4
aI4
aI4
aI6
aI6
aI4
aa(lp438
I6
aI4
aI4
aI4
aI6
aI6
aI4
aa(lp439
I6
aI4
aI4
aI4
aI6
aI6
aI4
aa(lp440
I6
aI4
aI4
aI4
aI6
aI6
aI4
aa(lp441
I6
aI4
aI4
aI4
aI6
aI6
aI4
aa(lp442
I6
aI4
aI4
aI6
aI6
aI4
aa(lp443
I6
aI4
aI4
aI6
aI6
aI4
aa(lp444
I6
aI4
aI4
aI6
aI6
aI4
aa(lp445
I6
aI4
aI4
aI6
aI6
aI4
aa(lp446
I6
aI4
aI4
aI6
aI6
aI4
aa(lp447
I6
aI4
aI4
aI6
aI6
aI4
aa(lp448
I6
aI4
aI4
aI6
aI6
aI4
aa(lp449
I6
aI4
aI4
aI6
aI6
aI4
aa(lp450
I4
aI4
aI6
aI6
aI4
aa(lp451
I4
aI4
aI6
aI6
aI4
aa(lp452
I4
aI4
aI6
aI6
aI4
aa(lp453
I4
aI4
aI6
aI6
aI4
aa(lp454
I4
aI4
aI6
aI6
aI4
aa(lp455
I4
aI4
aI6
aI4
aa(lp456
I4
aI4
aI4
aa(lp457
I4
aI4
aI4
aI4
aa(lp458
I4
aI4
aI4
aI6
aI4
aa(lp459
I4
aI4
aI4
aI6
aI4
aa(lp460
I4
aI4
aI4
aI6
aI4
aa(lp461
I4
aI4
aI4
aI6
aI4
aa(lp462
I4
aI4
aI4
aI6
aI4
aa(lp463
I4
aI4
aI4
aI4
aI6
aI4
aa(lp464
I4
aI4
aI4
aI4
aI6
aI4
aa(lp465
I4
aI4
aI4
aI4
aI6
aI4
aa(lp466
I4
aI4
aI4
aI4
aI6
aI4
aa(lp467
I4
aI4
aI4
aI4
aI6
aI4
aa(lp468
I4
aI4
aI4
aI4
aI6
aI4
aa(lp469
I4
aI4
aI4
aI4
aI6
aI4
aa(lp470
I4
aI4
aI4
aI4
aI6
aI4
aa(lp471
I4
aI4
aI4
aI4
aI6
aI4
aa(lp472
I4
aI4
aI4
aI4
aI6
aI4
aa(lp473
I4
aI4
aI4
aI4
aI6
aI4
aa(lp474
I4
aI4
aI4
aI6
aI4
aa(lp475
I4
aI4
aI4
aI6
aI4
aa(lp476
I4
aI4
aI4
aI6
aa(lp477
I4
aI4
aI4
aI6
aa(lp478
I4
aI4
aI4
aI6
aa(lp479
I4
aI4
aI4
aI6
aa(lp480
I4
aI4
aI4
aI6
aa(lp481
I4
aI4
aI4
aI6
aa(lp482
I4
aI4
aI4
aI6
aa(lp483
I4
aI4
aI4
aI6
aa(lp484
I4
aI4
aI4
aI6
aa(lp485
I4
aI4
aI4
aI6
aa(lp486
I4
aI4
aI4
aI6
aa(lp487
I4
aI4
aI4
aI6
aa(lp488
I4
aI4
aI4
aI6
aa(lp489
I4
aI4
aI4
aI6
aa(lp490
I4
aI4
aI4
aI6
aa(lp491
I4
aI4
aI4
aI6
aa(lp492
I6
aI4
aI4
aI4
aI6
aa(lp493
I6
aI4
aI4
aI4
aI6
aa(lp494
I6
aI4
aI4
aI4
aI6
aa(lp495
I6
aI4
aI4
aI6
aa(lp496
I6
aI4
aI4
aI6
aa(lp497
I6
aI4
aI4
aI4
aI6
aa(lp498
I6
aI4
aI4
aI4
aI6
aa(lp499
I6
aI4
aI4
aI4
aI6
aa(lp500
I6
aI4
aI4
aI4
aI6
aa(lp501
I6
aI4
aI4
aI4
aI6
aa(lp502
I6
aI4
aI4
aI4
aI6
aa(lp503
I6
aI4
aI4
aI4
aI6
aa(lp504
I6
aI4
aI4
aI4
aI6
aa(lp505
I6
aI4
aI4
aI4
aI6
aa(lp506
I6
aI4
aI4
aI4
aI6
aa(lp507
I6
aI4
aI4
aI4
aI6
aa(lp508
I6
aI4
aI4
aI4
aI6
aa(lp509
I6
aI4
aI4
aI4
aI6
aa(lp510
I6
aI4
aI4
aI4
aI6
aa(lp511
I6
aI4
aI4
aI4
aI6
aa(lp512
I6
aI4
aI4
aI4
aI6
aa(lp513
I6
aI4
aI4
aI4
aI6
aa(lp514
I6
aI4
aI4
aI4
aI6
aa(lp515
I6
aI4
aI4
aI4
aI6
aa(lp516
I6
aI4
aI4
aI4
aI6
aa(lp517
I6
aI4
aI4
aI4
aI6
aa(lp518
I6
aI4
aI4
aI4
aI6
aa(lp519
I4
aI4
aI4
aI6
aa(lp520
I4
aI4
aI4
aI6
aa(lp521
I4
aI4
aI4
aa(lp522
I6
aI4
aI4
aI4
aa(lp523
I6
aI4
aI4
aI4
aa(lp524
I6
aI4
aI4
aI4
aa(lp525
I6
aI4
aI4
aI4
aa(lp526
I6
aI4
aI4
aI4
aa(lp527
I6
aI4
aI4
aI4
aa(lp528
I6
aI4
aI4
aI4
aI4
aa(lp529
I6
aI4
aI4
aI4
aI4
aa(lp530
I6
aI4
aI4
aI4
aI4
aa(lp531
I6
aI4
aI4
aI4
aI4
aa(lp532
I8
aI6
aI4
aI4
aI4
aI4
aa(lp533
I8
aI6
aI4
aI4
aI4
aI4
aa(lp534
I8
aI6
aI4
aI4
aI4
aI4
aa(lp535
I8
aI4
aI4
aI4
aI4
aa(lp536
I4
aI4
aI4
aI4
aa(lp537
I4
aI4
aI4
aI4
aa(lp538
I4
aI4
aI4
aI4
aa(lp539
I4
aI4
aI4
aI4
aa(lp540
I4
aI4
aI4
aI4
aa(lp541
I4
aI4
aI4
aI4
aa(lp542
I6
aI4
aI4
aI4
aI4
aa(lp543
I6
aI4
aI4
aI4
aI4
aa(lp544
I6
aI4
aI4
aI4
aI4
aa(lp545
I6
aI4
aI4
aI4
aI4
aa(lp546
I6
aI4
aI4
aI4
aI4
aa(lp547
I6
aI4
aI4
aI4
aI4
aa(lp548
I6
aI4
aI4
aI4
aI4
aa(lp549
I6
aI4
aI4
aI4
aI4
aa(lp550
I6
aI4
aI4
aI4
aI4
aa(lp551
I6
aI4
aI4
aI4
aI4
aa(lp552
I6
aI4
aI4
aI4
aI4
aa(lp553
I6
aI4
aI4
aI4
aI4
aa(lp554
I6
aI4
aI4
aI4
aI4
aa(lp555
I4
aI4
aI4
aI4
aa(lp556
I4
aI4
aI4
aI4
aa(lp557
I4
aI4
aI4
aI4
aa(lp558
I4
aI4
aI4
aI4
aa(lp559
I4
aI4
aI4
aI4
aa(lp560
I4
aI4
aI4
aI4
aa(lp561
I4
aI4
aI4
aI4
aa(lp562
I4
aI4
aI4
aI4
aa(lp563
I4
aI4
aI4
aI4
aa(lp564
I4
aI4
aI4
aI4
aa(lp565
I4
aI4
aI4
aI4
aa(lp566
I4
aI4
aI4
aI4
aa(lp567
I4
aI4
aI4
aI4
aa(lp568
I8
aI4
aI4
aI4
aa(lp569
I8
aI4
aI4
aI4
aa(lp570
I8
aI4
aI4
aa(lp571
I8
aI4
aI4
aa(lp572
I8
aI4
aI4
aa(lp573
I4
aI4
aa(lp574
I4
aI4
aI4
aa(lp575
I4
aI4
aI4
aa(lp576
I4
aI4
aI4
aa(lp577
I4
aI4
aI6
aI4
aa(lp578
I4
aI4
aI6
aI4
aa(lp579
I4
aI4
aI6
aI4
aa(lp580
I8
aI4
aI4
aI6
aI4
aa(lp581
I8
aI4
aI4
aI6
aI6
aI4
aa(lp582
I8
aI4
aI4
aI6
aI6
aI4
aa(lp583
I8
aI4
aI4
aI6
aI4
aa(lp584
I8
aI4
aI6
aI4
aa(lp585
I8
aI4
aI6
aI4
aa(lp586
I8
aI4
aI6
aI4
aa(lp587
I8
aI4
aI6
aI4
aa(lp588
I4
aI6
aI4
aa(lp589
I4
aI6
aI4
aa(lp590
I4
aI6
aI4
aa(lp591
I4
aI6
aI4
aa(lp592
I4
aI6
aI4
aa(lp593
I4
aI6
aI4
aa(lp594
I4
aI4
aI6
aI4
aa(lp595
I4
aI8
aI4
aI6
aI4
aa(lp596
I4
aI8
aI4
aI6
aI4
aa(lp597
I4
aI8
aI4
aI6
aI4
aa(lp598
I4
aI8
aI4
aI6
aI4
aa(lp599
I4
aI8
aI4
aI6
aI4
aa(lp600
I4
aI8
aI4
aI6
aI4
aa(lp601
I4
aI8
aI4
aI6
aI4
aa(lp602
I4
aI8
aI6
aI4
aa(lp603
I4
aI8
aI6
aI4
aa(lp604
I4
aI8
aI6
aI4
aa(lp605
I4
aI8
aa(lp606
I4
aI8
aa(lp607
I4
aI8
aI6
aa(lp608
I4
aI8
aI6
aa(lp609
I4
aI8
aI6
aa(lp610
I4
aI8
aI6
aa(lp611
I4
aI8
aI6
aa(lp612
I4
aI8
aI6
aa(lp613
I4
aI8
aI6
aa(lp614
I4
aI8
aI6
aa(lp615
I4
aI8
aI6
aa(lp616
I4
aI8
aI6
aa(lp617
I4
aI8
aI6
aa(lp618
I4
aI8
aI6
aa(lp619
I4
aI8
aI6
aa(lp620
I4
aI8
aI6
aa(lp621
I4
aI8
aa(lp622
I4
aI8
aa(lp623
I4
aI8
aa(lp624
I4
aI8
aa(lp625
I4
aI8
aa(lp626
I4
aI8
aa(lp627
I8
aa(lp628
I8
aa(lp629
I8
aa(lp630
I4
aI8
aa(lp631
I4
aI8
aa(lp632
I4
aI8
aa(lp633
I4
aI8
aa(lp634
I4
aI6
aa(lp635
I4
aI6
aa(lp636
I4
aI8
aI12
aI6
aa(lp637
I8
aI12
aI6
aI6
aa(lp638
I4
aI8
aI6
aI6
aa(lp639
I4
aI8
aI6
aI6
aa(lp640
I4
aI8
aI6
aI6
aa(lp641
I4
aI8
aI6
aI6
aa(lp642
I4
aI8
aI6
aa(lp643
I4
aI8
aI6
aa(lp644
I4
aI8
aI6
aa(lp645
I4
aI8
aI6
aa(lp646
I4
aI8
aI6
aa(lp647
I4
aI8
aI6
aa(lp648
I4
aI8
aI6
aa(lp649
I4
aI8
aI6
aa(lp650
I4
aI8
aI6
aa(lp651
I4
aI8
aI6
aI6
aa(lp652
I4
aI8
aI6
aI6
aa(lp653
I4
aI8
aI6
aI6
aa(lp654
I4
aI8
aI6
aI6
aa(lp655
I4
aI8
aI6
aI6
aa(lp656
I6
aI4
aI8
aa(lp657
I6
aI4
aI8
aa(lp658
I6
aI4
aI8
aa(lp659
I6
aI4
aI8
aa(lp660
I6
aI4
aI8
aa(lp661
I6
aI4
aI8
aa(lp662
I6
aI4
aI8
aa(lp663
I6
aI4
aa(lp664
I6
aI4
aa(lp665
I6
aI4
aa(lp666
I6
aI4
aa(lp667
I6
aI4
aa(lp668
I6
aa(lp669
I6
aI4
aa(lp670
I6
aI4
aa(lp671
I6
aI4
aa(lp672
I6
aI4
aa(lp673
I6
aI4
aa(lp674
I6
aI4
aa(lp675
I10
aI6
aI4
aa(lp676
I10
aI4
aa(lp677
I10
aI4
aa(lp678
I10
aI4
aa(lp679
I10
aI4
aa(lp680
I10
aI4
aa(lp681
I10
aI4
aa(lp682
I10
aI4
aa(lp683
I10
aI4
aa(lp684
I10
aI4
aa(lp685
I10
aI4
aa(lp686
I4
aa(lp687
I4
aa(lp688
a(lp689
I4
aa(lp690
I4
aa(lp691
I4
aa(lp692
I4
aI4
aa(lp693
I4
aI4
aa(lp694
I14
aI4
aI4
aa(lp695
I14
aI4
aI4
aa(lp696
I14
aI4
aI4
aa(lp697
I14
aI4
aI4
aa(lp698
I14
aI4
aI4
aa(lp699
I14
aI4
aI4
aa(lp700
I14
aI4
aa(lp701
I14
aI4
aI10
aI4
aa(lp702
I14
aI4
aI4
aI10
aI4
aa(lp703
I14
aI4
aI10
aI4
aa(lp704
I8
aI4
aI10
aI4
aa(lp705
I8
aI4
aI10
aI4
aa(lp706
I8
aI4
aI4
aa(lp707
I8
aI4
aI4
aa(lp708
I8
aI4
aI4
aa(lp709
I8
aI4
aI4
aa(lp710
I8
aI4
aI4
aa(lp711
I8
aI4
aI4
aa(lp712
I8
aI4
aI4
aa(lp713
I8
aI4
aI4
aa(lp714
I8
aI4
aI4
aa(lp715
I8
aI4
aI4
aa(lp716
I8
aI4
aI4
aa(lp717
I8
aI4
aa(lp718
I8
aI4
aI4
aa(lp719
I8
aI4
aI4
aa(lp720
I8
aI4
aI4
aa(lp721
I8
aI4
aI4
aa(lp722
I8
aI4
aI4
aa(lp723
I4
aI4
aa(lp724
I4
aI4
aI4
aa(lp725
I4
aI4
aI4
aa(lp726
I4
aI4
aI4
aa(lp727
I6
aI4
aI4
aI4
aa(lp728
I6
aI4
aI4
aI4
aa(lp729
I6
aI4
aI4
aI4
aa(lp730
I6
aI4
aI4
aI4
aa(lp731
I6
aI4
aI4
aI4
aa(lp732
I6
aI4
aI4
aI4
aa(lp733
I6
aI4
aI4
aI4
aa(lp734
I6
aI4
aI4
aI4
aa(lp735
I6
aI4
aI4
aI4
aa(lp736
I6
aI10
aI4
aI4
aI4
aa(lp737
I6
aI10
aI4
aI4
aI4
aa(lp738
I6
aI10
aI4
aI4
aI4
aa(lp739
I6
aI10
aI4
aI4
aI4
aa(lp740
I6
aI8
aI10
aI4
aI4
aI4
aa(lp741
I6
aI8
aI10
aI4
aa(lp742
I6
aI8
aI10
aI4
aa(lp743
I6
aI8
aI10
aI4
aI4
aa(lp744
I6
aI8
aI10
aI6
aI4
aI4
aa(lp745
I6
aI8
aI10
aI6
aI4
aI4
aa(lp746
I6
aI8
aI10
aI6
aI4
aI4
aa(lp747
I6
aI8
aI10
aI6
aI4
aI4
aI4
aa(lp748
I6
aI8
aI10
aI6
aI4
aI4
aI4
aa(lp749
I6
aI8
aI6
aI4
aI4
aI4
aa(lp750
I6
aI8
aI6
aI4
aI4
aI4
aa(lp751
I6
aI8
aI4
aI6
aI4
aI4
aI4
aa(lp752
I6
aI8
aI4
aI6
aI4
aI4
aI4
aa(lp753
I6
aI8
aI6
aI4
aI4
aI4
aa(lp754
I6
aI8
aI6
aI4
aI4
aI4
aI4
aa(lp755
I6
aI8
aI6
aI4
aI4
aI4
aa(lp756
I8
aI6
aI4
aI4
aI4
aa(lp757
I8
aI6
aI4
aI4
aI4
aa(lp758
I8
aI6
aI4
aI4
aI4
aa(lp759
I8
aI6
aI4
aI4
aI4
aa(lp760
I8
aI6
aI4
aI4
aI4
aa(lp761
I8
aI6
aI4
aI4
aI4
aa(lp762
I6
aI8
aI6
aI4
aI4
aI4
aa(lp763
I6
aI8
aI6
aI4
aI4
aI4
aa(lp764
I6
aI8
aI6
aI4
aI4
aI4
aa(lp765
I6
aI8
aI6
aI4
aI4
aI4
aa(lp766
I6
aI8
aI6
aI4
aI4
aI4
aa(lp767
I8
aI4
aI4
aI4
aa(lp768
I8
aI6
aI4
aI4
aI4
aa(lp769
I8
aI6
aI4
aI12
aI4
aI4
aa(lp770
I8
aI6
aI4
aI4
aI4
aa(lp771
I8
aI6
aI4
aI4
aI4
aa(lp772
I8
aI6
aI4
aI4
aI4
aa(lp773
I8
aI6
aI4
aI4
aI4
aa(lp774
I8
aI6
aI4
aI4
aI4
aa(lp775
I8
aI6
aI4
aI4
aI4
aa(lp776
I8
aI6
aI4
aI4
aI4
aa(lp777
I8
aI6
aI4
aI4
aa(lp778
I8
aI6
aI4
aI4
aa(lp779
I8
aI6
aI4
aI4
aa(lp780
I8
aI6
aI4
aa(lp781
I8
aI6
aI4
aa(lp782
I8
aI6
aI4
aI4
aa(lp783
I10
aI6
aI4
aI4
aI4
aa(lp784
I10
aI8
aI6
aI4
aI4
aI4
aa(lp785
I10
aI8
aI6
aI4
aI4
aI4
aa(lp786
I10
aI8
aI6
aI4
aI4
aI4
aa(lp787
I10
aI8
aI6
aI4
aI4
aI4
aa(lp788
I10
aI8
aI6
aI4
aI4
aI4
aa(lp789
I10
aI8
aI6
aI4
aI4
aI4
aa(lp790
I8
aI6
aI4
aI4
aI4
aa(lp791
I8
aI6
aI4
aI4
aI4
aa(lp792
I8
aI6
aI4
aI4
aI4
aa(lp793
I8
aI6
aI4
aI4
aI4
aa(lp794
I8
aI6
aI4
aI4
aI4
aa(lp795
I8
aI6
aI4
aI4
aI4
aa(lp796
I8
aI6
aI4
aI4
aI4
aa(lp797
I8
aI6
aI4
aI4
aI4
aa(lp798
I8
aI6
aI6
aI4
aI4
aI4
aa(lp799
I8
aI6
aI6
aI4
aI4
aI4
aa(lp800
I8
aI6
aI4
aI4
aI4
aa(lp801
I8
aI6
aI4
aI4
aI4
aa(lp802
I8
aI6
aI4
aI4
aI4
aa(lp803
I14
aI8
aI6
aI4
aI4
aI4
aa(lp804
I14
aI8
aI6
aI4
aI4
aI4
aa(lp805
I14
aI8
aI6
aI4
aI4
aI4
aa(lp806
I14
aI8
aI6
aI4
aI4
aI4
aa(lp807
I14
aI8
aI6
aI4
aI4
aI4
aa(lp808
I8
aI6
aI6
aI4
aI4
aI4
aa(lp809
I8
aI6
aI6
aI4
aI4
aI4
aa(lp810
I8
aI6
aI6
aI4
aI4
aI4
aa(lp811
I8
aI6
aI6
aI4
aI4
aI10
aI4
aa(lp812
I6
aI6
aI4
aI4
aI10
aI4
aa(lp813
I6
aI6
aI4
aI4
aI10
aa(lp814
I4
aI6
aI6
aI4
aI4
aI10
aa(lp815
I4
aI6
aI6
aI4
aI4
aI10
aa(lp816
I4
aI6
aI6
aI4
aI4
aI10
aa(lp817
I4
aI6
aI6
aI4
aI4
aI10
aa(lp818
I4
aI6
aI6
aI4
aI4
aI10
aa(lp819
I4
aI6
aI6
aI4
aI4
aI10
aa(lp820
I4
aI6
aI6
aI4
aI4
aI10
aa(lp821
I4
aI6
aI6
aI4
aI10
aa(lp822
I4
aI6
aI6
aI4
aa(lp823
I4
aI6
aI6
aI4
aa(lp824
I4
aI6
aI6
aI4
aI6
aa(lp825
I4
aI6
aI6
aI4
aI6
aa(lp826
I4
aI6
aI6
aI4
aI10
aI6
aa(lp827
I4
aI6
aI6
aI4
aI10
aI6
aa(lp828
I4
aI6
aI6
aI4
aI10
aI6
aa(lp829
I4
aI6
aI6
aI4
aI10
aI6
aa(lp830
I4
aI6
aI6
aI4
aI10
aI6
aa(lp831
I4
aI6
aI6
aI4
aI10
aI6
aa(lp832
I4
aI6
aI6
aI4
aI10
aI6
aa(lp833
I4
aI6
aI6
aI4
aI6
aa(lp834
I4
aI6
aI6
aI4
aI10
aI6
aa(lp835
I4
aI6
aI6
aI4
aI10
aI6
aa(lp836
I4
aI6
aI6
aI4
aI10
aI6
aa(lp837
I4
aI6
aI6
aI4
aI10
aI6
aa(lp838
I4
aI6
aI6
aI4
aI10
aI6
aa(lp839
I4
aI6
aI6
aI4
aI10
aI6
aa(lp840
I4
aI6
aI4
aI10
aI6
aa(lp841
I4
aI6
aI4
aI10
aI6
aa(lp842
I4
aI6
aI4
aI10
aI6
aa(lp843
I4
aI6
aI4
aI10
aI6
aa(lp844
I6
aI4
aI10
aI6
aa(lp845
I6
aI4
aI10
aI6
aa(lp846
I6
aI4
aI6
aa(lp847
I6
aI4
aI6
aa(lp848
I6
aI4
aI6
aa(lp849
I4
aI6
aa(lp850
I4
aI10
aI6
aa(lp851
I4
aI10
aI6
aa(lp852
I4
aI10
aI6
aa(lp853
I4
aI10
aI6
aa(lp854
I4
aI10
aI6
aa(lp855
I16
aI4
aI10
aI6
aa(lp856
I16
aI4
aI10
aI6
aa(lp857
I16
aI4
aI10
aI6
aa(lp858
I16
aI4
aI10
aI6
aa(lp859
I16
aI4
aI10
aI6
aa(lp860
I16
aI4
aI10
aI6
aa(lp861
I16
aI4
aI10
aI6
aa(lp862
I16
aI4
aI10
aI6
aa(lp863
I16
aI4
aI10
aI6
aa(lp864
I4
aI10
aI6
aa(lp865
I4
aI10
aI6
aa(lp866
I4
aI10
aI6
aa(lp867
I4
aI10
aI6
aa(lp868
I4
aI10
aI6
aa(lp869
I6
aI4
aI10
aI6
aa(lp870
I6
aI10
aI6
aa(lp871
I6
aI10
aI6
aa(lp872
I6
aI10
aI6
aa(lp873
I10
aI6
aa(lp874
I10
aI6
aa(lp875
I10
aI6
aa(lp876
I10
aI6
aa(lp877
I10
aI6
aa(lp878
I10
aI6
aa(lp879
I10
aI6
aa(lp880
I10
aa(lp881
I10
aa(lp882
I10
aa(lp883
I10
aa(lp884
I10
aa(lp885
I10
aa(lp886
a(lp887
a(lp888
a(lp889
a(lp890
a(lp891
a(lp892
a(lp893
a(lp894
I10
aa(lp895
I10
aa(lp896
I10
aa(lp897
I10
aa(lp898
I10
aa(lp899
I10
aa(lp900
I10
aa(lp901
I10
aa(lp902
I10
aI4
aa(lp903
I10
aI4
aa(lp904
I10
aI4
aa(lp905
I10
aI4
aa(lp906
I10
aI4
aa(lp907
I10
aI4
aI4
aa(lp908
I10
aI4
aI4
aa(lp909
I10
aI4
aI4
aa(lp910
I10
aI4
aI4
aa(lp911
I10
aI4
aI4
aa(lp912
I10
aI4
aI4
aa(lp913
I10
aI4
aI4
aa(lp914
I10
aI4
aI4
aa(lp915
I10
aI4
aI4
aa(lp916
I10
aI4
aI4
aa(lp917
I10
aI4
aI4
aa(lp918
I10
aI4
aI4
aa(lp919
I10
aI4
aI4
aa(lp920
I10
aI4
aI4
aa(lp921
I10
aI4
aI4
aa(lp922
I10
aI4
aI4
aa(lp923
I10
aI4
aI4
aa(lp924
I10
aI4
aI4
aa(lp925
I10
aI4
aI4
aa(lp926
I10
aI4
aI4
aa(lp927
I10
aI4
aI4
aa(lp928
I10
aI4
aI4
aa(lp929
I10
aI4
aI4
aa(lp930
I4
aI4
aa(lp931
I4
aI4
aa(lp932
I4
aI4
aa(lp933
I4
aI4
aa(lp934
I4
aI4
aa(lp935
I4
aI4
aa(lp936
I4
aI4
aa(lp937
I4
aI4
aa(lp938
I4
aI4
aa(lp939
I4
aI4
aa(lp940
I4
aI4
aa(lp941
I4
aI4
aa(lp942
I4
aI4
aa(lp943
I4
aI4
aa(lp944
I4
aI4
aa(lp945
I4
aI4
aa(lp946
I4
aa(lp947
I12
aI6
aI4
aa(lp948
I12
aI6
aI4
aa(lp949
I12
aI6
aI4
aa(lp950
I12
aI6
aI4
aa(lp951
I12
aI6
aI4
aa(lp952
I12
aI6
aI4
aa(lp953
I12
aI12
aI6
aI4
aa(lp954
I12
aI12
aI6
aI4
aa(lp955
I12
aI12
aI6
aI4
aa(lp956
I12
aI6
aI4
aa(lp957
I12
aI6
aI4
aa(lp958
I12
aI6
aI4
aa(lp959
I12
aI6
aI4
aa(lp960
I6
aI4
aa(lp961
I12
aI6
aI4
aa(lp962
I12
aI6
aI4
aa(lp963
I12
aI6
aI4
aa(lp964
I12
aI6
aI4
aa(lp965
I6
aI4
aa(lp966
I6
aI4
aa(lp967
I12
aI6
aI4
aa(lp968
I12
aI6
aI4
aa(lp969
I12
aI6
aa(lp970
I12
aI6
aI4
aa(lp971
I12
aI6
aI4
aa(lp972
I12
aI6
aI4
aa(lp973
I12
aI6
aI4
aa(lp974
I12
aI12
aI6
aI4
aa(lp975
I12
aI12
aI6
aI4
aa(lp976
I12
aI12
aI6
aI4
aa(lp977
I12
aI12
aI6
aI4
aa(lp978
I12
aI12
aI6
aI4
aa(lp979
I12
aI12
aI6
aI4
aa(lp980
I12
aI12
aI6
aI4
aa(lp981
I12
aI12
aI6
aI4
aa(lp982
I12
aI6
aI4
aa(lp983
I8
aI12
aI4
aa(lp984
I8
aI12
aI12
aI4
aa(lp985
I8
aI12
aI12
aI6
aI4
aa(lp986
I8
aI12
aI12
aI6
aI4
aa(lp987
I8
aI12
aI12
aI6
aI4
aa(lp988
I8
aI12
aI12
aI6
aI4
aa(lp989
I8
aI12
aI12
aI6
aI4
aI6
aa(lp990
I8
aI12
aI12
aI6
aI4
aI6
aa(lp991
I8
aI12
aI12
aI6
aI4
aI6
aa(lp992
I8
aI12
aI6
aI12
aI6
aI4
aI6
aa(lp993
I8
aI12
aI6
aI12
aI6
aI4
aI6
aa(lp994
I8
aI6
aI12
aI6
aI4
aI6
aa(lp995
I8
aI6
aI12
aI6
aI4
aI6
aa(lp996
I8
aI6
aI12
aI6
aI4
aI6
aa(lp997
I8
aI6
aI12
aI6
aI4
aI6
aa(lp998
I8
aI6
aI6
aI4
aI6
aa(lp999
I8
aI6
aI6
aI4
aI6
aa(lp1000
I8
aI12
aI6
aI6
aI4
aI6
aa(lp1001
I8
aI12
aI6
aI6
aI4
aI6
aa(lp1002
I8
aI12
aI6
aI6
aI4
aI6
aa(lp1003
I8
aI12
aI6
aI6
aI4
aI6
aa(lp1004
I8
aI12
aI6
aI6
aI4
aI6
aa(lp1005
I8
aI12
aI6
aI6
aI4
aI6
aa(lp1006
I8
aI12
aI6
aI4
aI6
aa(lp1007
I8
aI12
aI6
aI4
aI6
aa(lp1008
I8
aI12
aI6
aI4
aI6
aa(lp1009
I8
aI12
aI6
aI4
aI6
aa(lp1010
I8
aI12
aI6
aI4
aI6
aa(lp1011
I8
aI12
aI6
aI4
aI6
aa(lp1012
I8
aI12
aI6
aI4
aI6
aa(lp1013
I8
aI12
aI6
aI4
aI6
aa(lp1014
I8
aI12
aI6
aI4
aa(lp1015
I8
aI12
aI6
aI6
aI4
aa(lp1016
I8
aI12
aI6
aI6
aI4
aa(lp1017
I8
aI12
aI6
aI6
aI4
aa(lp1018
I8
aI12
aI6
aI6
aI4
aa(lp1019
I8
aI12
aI6
aI4
aa(lp1020
I8
aI12
aI6
aI4
aa(lp1021
I6
aa(lp1022
I6
aI6
aa(lp1023
I6
aI6
aa(lp1024
I6
aI6
aa(lp1025
I6
aI6
aa(lp1026
I6
aI6
aa(lp1027
I6
aI6
aa(lp1028
I6
aI6
aa(lp1029
I6
aI6
aa(lp1030
I6
aI6
aa(lp1031
I6
aa(lp1032
I6
aa(lp1033
I6
aa(lp1034
I6
aa(lp1035
I6
aa(lp1036
I6
aa(lp1037
I6
aa(lp1038
I6
aa(lp1039
I6
aa(lp1040
a(lp1041
a(lp1042
a(lp1043
a(lp1044
a(lp1045
a(lp1046
a(lp1047
a(lp1048
a(lp1049
a(lp1050
a(lp1051
a(lp1052
a(lp1053
a(lp1054
a(lp1055
a(lp1056
I4
aa(lp1057
I4
aa(lp1058
I4
aa(lp1059
I4
aa(lp1060
I4
aa(lp1061
I4
aa(lp1062
I10
aI4
aa(lp1063
I10
aI4
aa(lp1064
I10
aI4
aa(lp1065
I10
aI4
aa(lp1066
I10
aI4
aa(lp1067
I4
aa(lp1068
I4
aa(lp1069
I4
aa(lp1070
I4
aa(lp1071
I4
aa(lp1072
I4
aa(lp1073
I4
aa(lp1074
I4
aa(lp1075
I4
aa(lp1076
I4
aa(lp1077
I4
aa(lp1078
I4
aa(lp1079
I4
aa(lp1080
I4
aa(lp1081
I4
aa(lp1082
I4
aI4
aa(lp1083
I4
aI4
aa(lp1084
I4
aI4
aa(lp1085
I4
aI4
aa(lp1086
I4
aI4
aa(lp1087
I4
aI4
aa(lp1088
I4
aI4
aa(lp1089
I4
aI4
aa(lp1090
I4
aI4
aI6
aa(lp1091
I4
aI4
aI6
aa(lp1092
I4
aI4
aI6
aa(lp1093
I4
aI4
aI6
aa(lp1094
I4
aI4
aI6
aa(lp1095
I4
aI4
aI6
aa(lp1096
I4
aI4
aI6
aa(lp1097
I4
aI4
aI6
aa(lp1098
I4
aI6
aa(lp1099
I4
aI6
aa(lp1100
I4
aI6
aa(lp1101
I4
aI6
aa(lp1102
I4
aI6
aa(lp1103
I4
aI6
aa(lp1104
I4
aI6
aa(lp1105
I6
aI4
aa(lp1106
I6
aI8
aI4
aa(lp1107
I6
aI8
aI4
aa(lp1108
I6
aI8
aI4
aa(lp1109
I6
aI8
aI4
aa(lp1110
I6
aI8
aI4
aa(lp1111
I6
aI8
aI4
aa(lp1112
I6
aI8
aI4
aa(lp1113
I6
aI6
aI8
aI4
aa(lp1114
I6
aI6
aI8
aI4
aa(lp1115
I6
aI6
aI8
aI4
aa(lp1116
I6
aI6
aI8
aI4
aa(lp1117
I6
aI6
aI8
aI4
aa(lp1118
I6
aI6
aI8
aI4
aI6
aa(lp1119
I6
aI8
aI4
aI6
aa(lp1120
I6
aI8
aI4
aI6
aa(lp1121
I6
aI8
aI4
aI6
aa(lp1122
I6
aI8
aI4
aI6
aa(lp1123
I6
aI8
aI4
aI6
aa(lp1124
I6
aI8
aI4
aI6
aa(lp1125
I6
aI8
aI4
aI6
aa(lp1126
I6
aI8
aI4
aI6
aa(lp1127
I6
aI8
aI6
aI4
aI6
aa(lp1128
I6
aI8
aI6
aI4
aI6
aa(lp1129
I6
aI6
aI8
aI6
aI4
aI6
aa(lp1130
I6
aI6
aI6
aI4
aa(lp1131
I6
aI6
aI8
aI6
aI4
aa(lp1132
I6
aI6
aI8
aI6
aI4
aa(lp1133
I6
aI6
aI6
aI8
aI6
aI4
aa(lp1134
I6
aI6
aI8
aI6
aI4
aa(lp1135
I6
aI6
aI8
aI6
aI4
aa(lp1136
I6
aI6
aI8
aI4
aa(lp1137
I6
aI6
aI8
aI6
aI4
aa(lp1138
I6
aI6
aI8
aI6
aI4
aa(lp1139
I6
aI6
aI8
aI6
aI4
aa(lp1140
I6
aI6
aI8
aI6
aI4
aa(lp1141
I6
aI6
aI8
aI6
aI4
aa(lp1142
I6
aI6
aI8
aI6
aI4
aI6
aa(lp1143
I6
aI6
aI8
aI6
aI4
aI6
aa(lp1144
I6
aI6
aI8
aI6
aI4
aI6
aa(lp1145
I6
aI6
aI8
aI6
aI4
aI6
aa(lp1146
I6
aI6
aI8
aI6
aI4
aa(lp1147
I6
aI6
aI8
aI6
aI4
aa(lp1148
I6
aI6
aI8
aI6
aI4
aa(lp1149
I6
aI6
aI8
aI6
aI4
aa(lp1150
I6
aI6
aI8
aI6
aI4
aa(lp1151
I6
aI6
aI8
aI4
aa(lp1152
I6
aI6
aI8
aI4
aa(lp1153
I6
aI6
aI8
aI4
aa(lp1154
I6
aI6
aI8
aI4
aa(lp1155
I6
aI6
aI8
aI4
aa(lp1156
I6
aI6
aI8
aI4
aa(lp1157
I6
aI6
aI8
aa(lp1158
I6
aI6
aI8
aI4
aa(lp1159
I6
aI6
aI8
aI4
aa(lp1160
I6
aI8
aI4
aa(lp1161
I6
aI8
aI4
aa(lp1162
I6
aI8
aI4
aa(lp1163
I6
aI8
aI4
aa(lp1164
I6
aI8
aI4
aa(lp1165
I6
aI8
aa(lp1166
I6
aI6
aI8
aa(lp1167
I6
aI6
aI8
aI4
aa(lp1168
I6
aI6
aI8
aI4
aa(lp1169
I6
aI6
aI8
aI4
aa(lp1170
I6
aI6
aI8
aI4
aa(lp1171
I6
aI6
aI8
aI4
aa(lp1172
I6
aI6
aI8
aI4
aa(lp1173
I6
aI6
aI8
aI4
aa(lp1174
I6
aI6
aI8
aI4
aa(lp1175
I6
aI6
aI8
aI4
aI4
aa(lp1176
I6
aI6
aI8
aI4
aI4
aI10
aa(lp1177
I6
aI6
aI8
aI4
aI4
aI10
aa(lp1178
I6
aI6
aI8
aI4
aI4
aI10
aa(lp1179
I6
aI8
aI4
aI4
aI10
aa(lp1180
I6
aI8
aI4
aI4
aI10
aa(lp1181
I6
aI8
aI4
aI4
aI10
aa(lp1182
I6
aI8
aI4
aI4
aI10
aa(lp1183
I6
aI8
aI4
aI4
aa(lp1184
I6
aI8
aI4
aI4
aa(lp1185
I6
aI8
aI4
aI4
aI10
aa(lp1186
I6
aI8
aI4
aI4
aI10
aa(lp1187
I6
aI8
aI4
aI4
aI10
aa(lp1188
I6
aI8
aI4
aI4
aI10
aa(lp1189
I6
aI8
aI4
aI4
aI10
aa(lp1190
I6
aI8
aI4
aI4
aI10
aa(lp1191
I6
aI4
aI4
aI10
aa(lp1192
I6
aI4
aI4
aI10
aa(lp1193
I6
aI4
aI4
aI10
aa(lp1194
I6
aI4
aI4
aI10
aa(lp1195
I6
aI4
aI10
aa(lp1196
I6
aI4
aI10
aa(lp1197
I6
aI8
aI4
aI10
aa(lp1198
I6
aI8
aI4
aI10
aa(lp1199
I6
aI8
aI4
aI10
aa(lp1200
I6
aI8
aI10
aa(lp1201
I6
aI8
aI10
aa(lp1202
I6
aI8
aI10
aa(lp1203
I6
aI8
aI10
aa(lp1204
I6
aI8
aI10
aa(lp1205
I6
aI8
aI10
aa(lp1206
I6
aI8
aI10
aa(lp1207
I6
aI8
aI10
aa(lp1208
I6
aI8
aI10
aa(lp1209
I6
aI8
aI10
aa(lp1210
I6
aI8
aI10
aa(lp1211
I6
aI8
aI4
aI10
aa(lp1212
I6
aI8
aI10
aa(lp1213
I6
aI8
aI10
aa(lp1214
I6
aI8
aI10
aa(lp1215
I6
aI8
aI4
aI10
aa(lp1216
I6
aI8
aI4
aI10
aa(lp1217
I6
aI8
aI4
aI10
aa(lp1218
I6
aI8
aI4
aI10
aa(lp1219
I6
aI8
aI4
aI10
aa(lp1220
I6
aI8
aI4
aI4
aI10
aa(lp1221
I6
aI8
aI4
aI4
aI10
aa(lp1222
I6
aI8
aI4
aI4
aa(lp1223
I6
aI8
aI4
aI4
aI10
aa(lp1224
I6
aI8
aI4
aI4
aa(lp1225
I6
aI8
aI4
aI4
aa(lp1226
I6
aI8
aI4
aI4
aa(lp1227
I6
aI8
aI4
aI4
aa(lp1228
I6
aI8
aI4
aI4
aa(lp1229
I6
aI8
aI4
aI4
aa(lp1230
I6
aI8
aI4
aI4
aa(lp1231
I6
aI8
aI4
aI4
aI8
aa(lp1232
I6
aI8
aI4
aI4
aI8
aa(lp1233
I6
aI8
aI4
aI4
aI4
aI8
aa(lp1234
I6
aI8
aI4
aI4
aI4
aI8
aa(lp1235
I6
aI8
aI4
aI4
aI4
aI8
aa(lp1236
I6
aI8
aI4
aI4
aI4
aI8
aa(lp1237
I6
aI6
aI8
aI4
aI4
aI4
aI8
aa(lp1238
I6
aI6
aI8
aI4
aI4
aI4
aI8
aa(lp1239
I6
aI8
aI4
aI4
aI4
aI8
aa(lp1240
I6
aI8
aI4
aI4
aI4
aI8
aa(lp1241
I6
aI8
aI4
aI4
aI4
aI8
aa(lp1242
I6
aI8
aI4
aI4
aI8
aa(lp1243
I6
aI8
aI4
aI4
aI4
aI8
aa(lp1244
I6
aI4
aI4
aI4
aI8
aa(lp1245
I6
aI4
aI8
aI4
aI8
aa(lp1246
I6
aI4
aI8
aI4
aI8
aa(lp1247
I6
aI4
aI4
aI8
aa(lp1248
I6
aI4
aI4
aI8
aa(lp1249
I4
aI6
aI4
aI4
aI8
aa(lp1250
I4
aI6
aI4
aI4
aI8
aa(lp1251
I4
aI6
aI4
aI4
aI8
aa(lp1252
I4
aI6
aI4
aI8
aa(lp1253
I4
aI6
aI4
aI4
aI8
aI4
aa(lp1254
I4
aI6
aI4
aI4
aI8
aI4
aa(lp1255
I4
aI6
aI4
aI4
aI8
aI4
aa(lp1256
I4
aI6
aI4
aI4
aI8
aI4
aa(lp1257
I4
aI6
aI6
aI4
aI4
aI8
aI4
aa(lp1258
I4
aI6
aI4
aI4
aI8
aI4
aa(lp1259
I4
aI6
aI4
aI4
aI8
aI4
aa(lp1260
I4
aI6
aI4
aI4
aI8
aI4
aa(lp1261
I4
aI6
aI4
aI4
aI8
aI4
aa(lp1262
I4
aI6
aI4
aI4
aI8
aI4
aa(lp1263
I4
aI6
aI4
aI4
aI8
aI4
aa(lp1264
I4
aI6
aI4
aI8
aI4
aI8
aI4
aa(lp1265
I4
aI6
aI4
aI8
aI4
aI4
aa(lp1266
I4
aI6
aI4
aI8
aI4
aI4
aa(lp1267
I4
aI6
aI4
aI8
aI4
aI4
aa(lp1268
I4
aI6
aI4
aI8
aI4
aa(lp1269
I4
aI6
aI4
aI8
aI4
aa(lp1270
I4
aI6
aI4
aI8
aI4
aa(lp1271
I4
aI6
aI4
aI8
aI6
aI4
aa(lp1272
I4
aI6
aI4
aI8
aI6
aI4
aa(lp1273
I4
aI6
aI4
aI8
aI6
aa(lp1274
I4
aI6
aI4
aI8
aI6
aa(lp1275
I4
aI6
aI4
aI8
aI6
aa(lp1276
I4
aI6
aI4
aI8
aI6
aa(lp1277
I4
aI6
aI4
aI8
aI6
aa(lp1278
I4
aI6
aI4
aI8
aI4
aI6
aa(lp1279
I4
aI6
aI4
aI8
aI4
aI6
aa(lp1280
I4
aI6
aI4
aI8
aI4
aI6
aa(lp1281
I4
aI8
aI6
aI4
aI8
aI4
aI6
aa(lp1282
I4
aI8
aI6
aI4
aI8
aI4
aI6
aa(lp1283
I4
aI8
aI6
aI4
aI8
aI4
aI6
aa(lp1284
I4
aI8
aI6
aI4
aI8
aI4
aI6
aa(lp1285
I4
aI8
aI4
aI8
aI6
aa(lp1286
I4
aI8
aI4
aI8
aI6
aa(lp1287
I4
aI8
aI4
aI8
aI6
aa(lp1288
I4
aI8
aI4
aI8
aI6
aa(lp1289
I4
aI8
aI4
aI8
aI6
aa(lp1290
I4
aI6
aa(lp1291
I4
aI6
aa(lp1292
I4
aI4
aI6
aa(lp1293
I4
aI4
aI6
aa(lp1294
I4
aI6
aI4
aI8
aI6
aa(lp1295
I4
aI6
aI4
aI8
aI6
aa(lp1296
I4
aI6
aI4
aI8
aI6
aa(lp1297
I4
aI6
aI4
aI8
aI6
aa(lp1298
I4
aI6
aI4
aI8
aI6
aa(lp1299
I4
aI6
aI4
aI8
aI6
aa(lp1300
I4
aI6
aI4
aI8
aI6
aa(lp1301
I4
aI6
aI4
aI8
aI6
aa(lp1302
I4
aI6
aI4
aI8
aI6
aa(lp1303
I4
aI6
aI4
aI8
aI6
aa(lp1304
I4
aI6
aI4
aI8
aI6
aa(lp1305
I4
aI6
aI6
aI4
aI8
aa(lp1306
I4
aI6
aI6
aI4
aI8
aa(lp1307
I4
aI6
aI6
aI4
aI8
aa(lp1308
I4
aI6
aI6
aI4
aI8
aa(lp1309
I4
aI6
aI6
aI4
aI8
aa(lp1310
I4
aI6
aI6
aI4
aI8
aa(lp1311
I4
aI6
aI6
aI4
aI8
aa(lp1312
I4
aI6
aI6
aI4
aI8
aa(lp1313
I4
aI6
aI6
aI4
aI8
aa(lp1314
I4
aI6
aI4
aI8
aa(lp1315
I4
aI6
aI4
aI8
aa(lp1316
I4
aI6
aI4
aI8
aa(lp1317
I4
aI6
aI8
aa(lp1318
I4
aI6
aI4
aI8
aa(lp1319
I4
aI6
aI4
aI8
aa(lp1320
I4
aI6
aI4
aI8
aa(lp1321
I4
aI6
aI4
aI8
aa(lp1322
I4
aI6
aI4
aI8
aa(lp1323
I4
aI6
aI4
aI8
aa(lp1324
I6
aI4
aI8
aa(lp1325
I6
aI4
aI8
aa(lp1326
I6
aI4
aI8
aa(lp1327
I6
aI4
aI8
aa(lp1328
I6
aI4
aI8
aa(lp1329
I6
aI4
aI8
aa(lp1330
I6
aI4
aI8
aa(lp1331
I6
aI4
aI8
aa(lp1332
I6
aI4
aI8
aa(lp1333
I6
aI4
aI8
aa(lp1334
I6
aI4
aI8
aa(lp1335
I6
aI4
aI8
aa(lp1336
I4
aI6
aI4
aa(lp1337
I4
aI6
aa(lp1338
I4
aI6
aa(lp1339
I4
aI6
aa(lp1340
I4
aI6
aI8
aa(lp1341
I4
aI6
aI8
aa(lp1342
I4
aI6
aI8
aa(lp1343
I4
aI6
aI8
aa(lp1344
I4
aI6
aI8
aa(lp1345
I4
aI6
aI8
aa(lp1346
I4
aI6
aI8
aa(lp1347
I4
aI6
aI8
aa(lp1348
I4
aI6
aI8
aa(lp1349
I4
aI6
aI8
aa(lp1350
I4
aI6
aI8
aa(lp1351
I4
aI6
aI8
aa(lp1352
I4
aI6
aI8
aa(lp1353
I4
aI6
aI8
aa(lp1354
I4
aI6
aI8
aa(lp1355
I4
aI6
aI8
aa(lp1356
I6
aI8
aa(lp1357
I6
aI8
aa(lp1358
I6
aI8
aa(lp1359
I6
aI8
aa(lp1360
I6
aI8
aa(lp1361
I6
aI4
aI8
aa(lp1362
I6
aI4
aI8
aa(lp1363
I6
aI4
aI8
aa(lp1364
I6
aI4
aI8
aa(lp1365
I6
aI4
aI8
aa(lp1366
I6
aI4
aI8
aa(lp1367
I6
aI4
aI8
aa(lp1368
I6
aI4
aI8
aa(lp1369
I6
aI4
aI8
aa(lp1370
I6
aI4
aI8
aa(lp1371
I6
aI4
aI8
aa(lp1372
I6
aI4
aI8
aa(lp1373
I6
aI4
aI8
aa(lp1374
I6
aI4
aI8
aI4
aa(lp1375
I6
aI4
aI8
aI4
aa(lp1376
I6
aI4
aI8
aI4
aa(lp1377
I6
aI4
aI8
aI4
aa(lp1378
I6
aI4
aI4
aa(lp1379
I10
aI6
aI4
aI4
aa(lp1380
I10
aI6
aI4
aI4
aa(lp1381
I10
aI6
aI4
aI4
aa(lp1382
I10
aI6
aI4
aI4
aa(lp1383
I10
aI6
aI4
aI4
aa(lp1384
I10
aI6
aI4
aI4
aa(lp1385
I10
aI6
aI4
aI4
aa(lp1386
I10
aI6
aI4
aI4
aa(lp1387
I10
aI6
aI4
aI4
aa(lp1388
I6
aI4
aI4
aa(lp1389
I6
aI4
aI4
aa(lp1390
I6
aI10
aI4
aI4
aa(lp1391
I6
aI10
aI4
aI4
aa(lp1392
I6
aI10
aI4
aI4
aa(lp1393
I6
aI10
aI4
aI4
aa(lp1394
I18
aI6
aI10
aI4
aI4
aa(lp1395
I6
aI10
aI4
aI4
aa(lp1396
I6
aI10
aI4
aI4
aa(lp1397
I6
aI10
aI4
aI4
aa(lp1398
I6
aI10
aI4
aI4
aa(lp1399
I6
aI10
aI4
aI4
aa(lp1400
I6
aI10
aI4
aI4
aa(lp1401
I6
aI4
aI4
aa(lp1402
I6
aI6
aI4
aI4
aI4
aa(lp1403
I6
aI6
aI4
aI4
aI4
aa(lp1404
I6
aI6
aI4
aI4
aI6
aI4
aa(lp1405
I6
aI6
aI4
aI4
aI6
aI4
aa(lp1406
I6
aI6
aI4
aI4
aI6
aI4
aa(lp1407
I6
aI6
aI4
aI4
aI6
aI4
aa(lp1408
I6
aI6
aI4
aI4
aI6
aI4
aa(lp1409
I6
aI6
aI4
aI4
aI6
aI4
aa(lp1410
I6
aI6
aI4
aI4
aI6
aI4
aa(lp1411
I6
aI6
aI4
aI4
aI6
aI4
aa(lp1412
I6
aI6
aI4
aI4
aI6
aI4
aa(lp1413
I6
aI6
aI4
aI4
aI6
aI4
aa(lp1414
I6
aI6
aI4
aI4
aI4
aI6
aI4
aa(lp1415
I6
aI6
aI10
aI4
aI4
aI4
aI6
aI4
aa(lp1416
I6
aI6
aI10
aI4
aI4
aI4
aI6
aI4
aa(lp1417
I6
aI6
aI10
aI4
aI4
aI4
aI6
aI4
aa(lp1418
I6
aI10
aI4
aI4
aI4
aI6
aI4
aa(lp1419
I6
aI10
aI4
aI4
aI4
aI6
aI4
aa(lp1420
I6
aI10
aI4
aI4
aI4
aI4
aI6
aI4
aa(lp1421
I6
aI10
aI4
aI4
aI4
aI4
aI6
aI4
aa(lp1422
I6
aI4
aI4
aI4
aI4
aI6
aI4
aa(lp1423
I6
aI4
aI4
aI4
aI4
aI6
aI4
aa(lp1424
I6
aI4
aI4
aI4
aI4
aI6
aI4
aa(lp1425
I6
aI4
aI4
aI4
aI6
aI4
aa(lp1426
I6
aI4
aI4
aI4
aI6
aI4
aa(lp1427
I6
aI4
aI4
aI4
aI6
aI4
aa(lp1428
I6
aI4
aI4
aI4
aI6
aI4
aa(lp1429
I6
aI4
aI4
aI4
aI6
aI4
aa(lp1430
I6
aI4
aI4
aI4
aI6
aI4
aa(lp1431
I6
aI4
aI4
aI4
aI6
aI4
aa(lp1432
I6
aI4
aI4
aI4
aI6
aI4
aa(lp1433
I6
aI4
aI4
aI4
aI6
aI4
aa(lp1434
I6
aI4
aI4
aI4
aI6
aI4
aa(lp1435
I6
aI4
aI4
aI4
aI6
aI4
aa(lp1436
I6
aI4
aI4
aI4
aI6
aI4
aa(lp1437
I6
aI4
aI4
aI4
aI6
aI8
aI4
aa(lp1438
I6
aI4
aI4
aI4
aI6
aI8
aI4
aa(lp1439
I6
aI4
aI4
aI4
aI6
aI8
aI4
aa(lp1440
I6
aI4
aI4
aI4
aI6
aI8
aI4
aa(lp1441
I6
aI4
aI4
aI4
aI6
aI8
aI4
aa(lp1442
I6
aI4
aI4
aI4
aI6
aI8
aI4
aa(lp1443
I6
aI4
aI4
aI4
aI6
aI8
aI4
aa(lp1444
I6
aI4
aI4
aI4
aI6
aI8
aI4
aa(lp1445
I6
aI4
aI4
aI4
aI6
aI8
aI4
aa(lp1446
I6
aI4
aI4
aI6
aI8
aI4
aa(lp1447
I6
aI4
aI6
aI8
aI4
aa(lp1448
I6
aI4
aI4
aI6
aI8
aI4
aa(lp1449
I6
aI4
aI4
aI6
aI8
aI4
aa(lp1450
I6
aI4
aI4
aI6
aI8
aI4
aa(lp1451
I6
aI4
aI6
aI8
aI4
aa(lp1452
I6
aI4
aI6
aI8
aI4
aa(lp1453
I6
aI4
aI6
aI8
aI4
aa(lp1454
I6
aI4
aI6
aI8
aI4
aa(lp1455
I6
aI4
aI6
aI8
aI4
aa(lp1456
I6
aI4
aI8
aI4
aa(lp1457
I6
aI4
aI6
aI8
aI4
aa(lp1458
I6
aI4
aI6
aI8
aI4
aa(lp1459
I6
aI4
aI6
aI8
aI4
aa(lp1460
I6
aI4
aI6
aI8
aI4
aa(lp1461
I6
aI4
aI6
aI8
aa(lp1462
I6
aI4
aI6
aI8
aa(lp1463
I6
aI4
aI6
aI8
aa(lp1464
I4
aI6
aI4
aI6
aI8
aa(lp1465
I4
aI6
aI4
aI6
aa(lp1466
I4
aI4
aI6
aa(lp1467
I4
aI6
aa(lp1468
I4
aI6
aa(lp1469
I4
aI6
aa(lp1470
I4
aI6
aa(lp1471
I4
aI6
aa(lp1472
I4
aI6
aa(lp1473
I4
aI6
aa(lp1474
I4
aI6
aa(lp1475
I4
aI6
aa(lp1476
I4
aI6
aa(lp1477
I4
aI6
aa(lp1478
I4
aI6
aa(lp1479
I4
aI6
aa(lp1480
I4
aI6
aa(lp1481
I6
aa(lp1482
I6
aa(lp1483
I6
aa(lp1484
I6
aI6
aa(lp1485
I6
aI6
aa(lp1486
I6
aI6
aa(lp1487
I6
aI6
aa(lp1488
I6
aI6
aa(lp1489
I6
aI6
aa(lp1490
I6
aI6
aa(lp1491
I6
aI6
aa(lp1492
I6
aI6
aa(lp1493
I6
aI6
aa(lp1494
I6
aI6
aa(lp1495
I6
aI6
aa(lp1496
I6
aI6
aa(lp1497
I6
aI6
aa(lp1498
I6
aI6
aa(lp1499
I6
aI6
aa(lp1500
I6
aI6
aa(lp1501
I6
aI6
aa(lp1502
I6
aI6
aa(lp1503
I6
aI6
aa(lp1504
I6
aI6
aa(lp1505
I6
aa(lp1506
I6
aa(lp1507
I6
aa(lp1508
I6
aa(lp1509
I6
aa(lp1510
I6
aa(lp1511
I6
aa(lp1512
I6
aa(lp1513
I6
aa(lp1514
I6
aa(lp1515
I6
aa(lp1516
I6
aa(lp1517
I6
aa(lp1518
I6
aa(lp1519
I6
aa(lp1520
I6
aa(lp1521
I6
aa(lp1522
I6
aa(lp1523
I6
aa(lp1524
I6
aa(lp1525
I6
aa(lp1526
I4
aI6
aa(lp1527
I4
aI6
aa(lp1528
I4
aI6
aa(lp1529
I4
aI6
aa(lp1530
I4
aI6
aa(lp1531
I4
aI6
aa(lp1532
I4
aI6
aa(lp1533
I4
aI6
aa(lp1534
I4
aI6
aa(lp1535
I4
aI6
aa(lp1536
I4
aI6
aa(lp1537
I4
aI6
aa(lp1538
I4
aI6
aa(lp1539
I4
aa(lp1540
I4
aa(lp1541
I4
aa(lp1542
I4
aa(lp1543
I4
aa(lp1544
I4
aa(lp1545
I4
aa(lp1546
I4
aa(lp1547
I4
aa(lp1548
I4
aa(lp1549
I4
aa(lp1550
I4
aa(lp1551
I4
aa(lp1552
I4
aI4
aa(lp1553
I4
aI4
aa(lp1554
I4
aI4
aa(lp1555
I4
aI4
aa(lp1556
I4
aI4
aa(lp1557
I4
aI4
aa(lp1558
I4
aI4
aa(lp1559
I4
aI4
aa(lp1560
I6
aI4
aI4
aa(lp1561
I6
aI4
aI4
aa(lp1562
I6
aI4
aI4
aa(lp1563
I6
aI4
aa(lp1564
I6
aI24
aI4
aa(lp1565
I6
aI4
aa(lp1566
I6
aI4
aa(lp1567
I12
aI6
aI4
aa(lp1568
I12
aI6
aI4
aa(lp1569
I12
aI6
aI4
aa(lp1570
I12
aI4
aa(lp1571
I12
aI4
aa(lp1572
I12
aI4
aa(lp1573
I12
aI4
aa(lp1574
I12
aI4
aa(lp1575
I12
aI6
aI4
aa(lp1576
I6
aI4
aa(lp1577
I6
aI4
aa(lp1578
I6
aI4
aa(lp1579
I6
aI4
aa(lp1580
I6
aI4
aa(lp1581
I6
aI4
aa(lp1582
I6
aI4
aa(lp1583
I6
aI4
aa(lp1584
I6
aI4
aa(lp1585
I6
aI4
aa(lp1586
I6
aI4
aa(lp1587
I6
aI4
aa(lp1588
I6
aI4
aa(lp1589
I6
aI4
aa(lp1590
I6
aI4
aa(lp1591
I6
aI4
aa(lp1592
I6
aI4
aa(lp1593
I6
aI4
aa(lp1594
I6
aI4
aa(lp1595
I6
aI4
aa(lp1596
I4
aa(lp1597
I4
aa(lp1598
I4
aa(lp1599
I4
aa(lp1600
I4
aa(lp1601
I4
aa(lp1602
I4
aa(lp1603
I4
aa(lp1604
I4
aI6
aa(lp1605
I4
aI6
aa(lp1606
I4
aa(lp1607
I4
aa(lp1608
I4
aa(lp1609
I4
aa(lp1610
I6
aI4
aa(lp1611
I4
aa(lp1612
I4
aa(lp1613
I4
aa(lp1614
I4
aa(lp1615
I4
aa(lp1616
I4
aa(lp1617
I4
aa(lp1618
a(lp1619
I10
aa(lp1620
I12
aI10
aa(lp1621
I12
aI10
aa(lp1622
I12
aI10
aa(lp1623
I12
aI10
aa(lp1624
I10
aa(lp1625
I10
aa(lp1626
I10
aI6
aa(lp1627
I10
aI6
aa(lp1628
I10
aI6
aa(lp1629
I10
aI6
aa(lp1630
I10
aI6
aI6
aa(lp1631
I6
aI6
aa(lp1632
I6
aI6
aa(lp1633
I6
aI6
aa(lp1634
I6
aa(lp1635
I6
aa(lp1636
I6
aa(lp1637
I6
aa(lp1638
I6
aI6
aa(lp1639
I6
aI6
aa(lp1640
I6
aI6
aa(lp1641
I6
aI6
aa(lp1642
I6
aa(lp1643
I6
aa(lp1644
I6
aa(lp1645
I6
aa(lp1646
I6
aa(lp1647
I6
aa(lp1648
I6
aa(lp1649
I6
aa(lp1650
I6
aa(lp1651
a(lp1652
I6
aa(lp1653
I6
aa(lp1654
I6
aa(lp1655
I6
aa(lp1656
I6
aI6
aa(lp1657
I6
aI6
aa(lp1658
I6
aI6
aa(lp1659
I6
aI6
aa(lp1660
I6
aI6
aa(lp1661
I6
aI6
aa(lp1662
I6
aI6
aa(lp1663
I6
aI6
aa(lp1664
I6
aI6
aa(lp1665
I6
aI6
aa(lp1666
I6
aI6
aa(lp1667
I6
aI6
aa(lp1668
I6
aI6
aa(lp1669
I6
aI6
aa(lp1670
I6
aI6
aa(lp1671
I6
aI6
aa(lp1672
I6
aI6
aa(lp1673
I6
aI6
aa(lp1674
I6
aI6
aa(lp1675
I6
aI6
aa(lp1676
I6
aI6
aa(lp1677
I6
aI6
aa(lp1678
I6
aI6
aa(lp1679
I6
aI6
aa(lp1680
I6
aI6
aa(lp1681
I6
aI6
aa(lp1682
I6
aI6
aa(lp1683
I6
aI6
aa(lp1684
I6
aI6
aa(lp1685
I6
aI6
aa(lp1686
I6
aI6
aa(lp1687
I6
aI6
aa(lp1688
I6
aI6
aa(lp1689
I6
aI6
aa(lp1690
I6
aI6
aa(lp1691
I6
aI6
aa(lp1692
I6
aI6
aa(lp1693
I6
aI6
aa(lp1694
I6
aI6
aa(lp1695
I6
aa(lp1696
I6
aa(lp1697
I6
aa(lp1698
I6
aa(lp1699
I6
aa(lp1700
I6
aa(lp1701
I6
aa(lp1702
I10
aI6
aa(lp1703
I10
aI6
aI6
aa(lp1704
I10
aI6
aI6
aI8
aa(lp1705
I10
aI6
aI6
aI8
aa(lp1706
I10
aI6
aI6
aa(lp1707
I6
aI6
aa(lp1708
I4
aI6
aI6
aa(lp1709
I4
aI6
aI6
aI8
aa(lp1710
I4
aI6
aI6
aI8
aa(lp1711
I8
aI4
aI6
aI6
aa(lp1712
I8
aI4
aI6
aI6
aa(lp1713
I8
aI4
aI6
aI6
aa(lp1714
I8
aI4
aI6
aI6
aa(lp1715
I8
aI4
aI6
aI6
aa(lp1716
I8
aI4
aI6
aI6
aa(lp1717
I8
aI4
aI6
aI6
aa(lp1718
I8
aI4
aI6
aI6
aa(lp1719
I8
aI4
aI6
aI6
aa(lp1720
I8
aI4
aI6
aI6
aa(lp1721
I8
aI4
aI6
aI6
aa(lp1722
I8
aI4
aI6
aI6
aa(lp1723
I8
aI4
aI6
aI6
aa(lp1724
I8
aI4
aI6
aI6
aI8
aa(lp1725
I8
aI6
aI6
aI8
aa(lp1726
I8
aI6
aI8
aa(lp1727
I8
aI6
aI8
aa(lp1728
I8
aI6
aI8
aa(lp1729
I8
aI6
aI8
aa(lp1730
I8
aI6
aI8
aa(lp1731
I8
aI6
aI8
aa(lp1732
I8
aI8
aa(lp1733
I8
aI8
aa(lp1734
I8
aI8
aa(lp1735
I8
aI8
aa(lp1736
I8
aI8
aa(lp1737
I10
aI8
aa(lp1738
I10
aI8
aa(lp1739
I10
aI8
aa(lp1740
I10
aI8
aa(lp1741
I10
aI8
aa(lp1742
I10
aI8
aa(lp1743
I10
aI8
aI8
aa(lp1744
I10
aI8
aI8
aa(lp1745
I10
aI8
aI8
aa(lp1746
I10
aI8
aI8
aa(lp1747
I10
aI8
aI8
aa(lp1748
I10
aI8
aI8
aa(lp1749
I8
aI8
aI6
aa(lp1750
I10
aI8
aI8
aI6
aa(lp1751
I10
aI8
aI8
aI6
aa(lp1752
I10
aI8
aI8
aI6
aa(lp1753
I10
aI8
aI8
aI6
aa(lp1754
I10
aI8
aI6
aa(lp1755
I10
aI10
aI8
aI6
aa(lp1756
I10
aI8
aI6
aa(lp1757
I10
aI8
aI6
aa(lp1758
I10
aI8
aI6
aa(lp1759
I10
aI8
aI6
aa(lp1760
I10
aI8
aI6
aa(lp1761
I10
aI6
aa(lp1762
I10
aI6
aa(lp1763
I10
aI8
aI6
aa(lp1764
I6
aa(lp1765
I6
aa(lp1766
I10
aI6
aa(lp1767
I10
aI6
aa(lp1768
I10
aI6
aa(lp1769
I10
aI6
aa(lp1770
I10
aI6
aa(lp1771
I10
aI6
aa(lp1772
I10
aI6
aI6
aa(lp1773
I10
aI6
aI6
aa(lp1774
I10
aI6
aI6
aI6
aa(lp1775
I10
aI6
aI6
aI6
aa(lp1776
I10
aI6
aI6
aI6
aa(lp1777
I10
aI6
aI6
aI6
aa(lp1778
I10
aI6
aI6
aI6
aa(lp1779
I10
aI6
aI8
aI4
aI6
aI6
aa(lp1780
I10
aI6
aI8
aI4
aI6
aI6
aa(lp1781
I4
aI10
aI6
aI8
aI4
aI6
aI6
aa(lp1782
I4
aI10
aI6
aI8
aI4
aI6
aI6
aa(lp1783
I4
aI10
aI6
aI8
aI4
aI6
aI6
aa(lp1784
I4
aI10
aI6
aI8
aI4
aI6
aI6
aa(lp1785
I4
aI6
aI8
aI4
aI6
aI6
aa(lp1786
I4
aI6
aI8
aI6
aI6
aa(lp1787
I4
aI6
aI8
aI6
aI6
aa(lp1788
I4
aI6
aI8
aI6
aI6
aa(lp1789
I4
aI6
aI8
aI6
aa(lp1790
I4
aI6
aI8
aI6
aa(lp1791
I4
aI6
aI8
aI6
aa(lp1792
I4
aI6
aI8
aI6
aa(lp1793
I4
aI6
aI8
aI6
aa(lp1794
I4
aI6
aI8
aI6
aa(lp1795
I4
aI6
aI8
aI6
aa(lp1796
I4
aI8
aI6
aI6
aa(lp1797
I4
aI8
aI6
aI6
aa(lp1798
I8
aI6
aI6
aa(lp1799
I8
aI6
aI6
aa(lp1800
I8
aI6
aI6
aa(lp1801
I8
aI6
aI6
aa(lp1802
I8
aI6
aI6
aa(lp1803
I8
aI6
aI6
aa(lp1804
I8
aI6
aI6
aa(lp1805
I8
aI6
aI6
aa(lp1806
I8
aI6
aI6
aa(lp1807
I8
aI6
aI6
aa(lp1808
I6
aI6
aa(lp1809
I6
aI6
aa(lp1810
I6
aa(lp1811
I6
aa(lp1812
I6
aa(lp1813
I6
aa(lp1814
I6
aa(lp1815
I6
aa(lp1816
I6
aa(lp1817
I6
aa(lp1818
I6
aa(lp1819
I6
aa(lp1820
I6
aa(lp1821
I6
aI10
aI6
aa(lp1822
I6
aI10
aI6
aa(lp1823
I6
aI10
aI6
aa(lp1824
I6
aI10
aI6
aa(lp1825
I6
aI10
aI6
aa(lp1826
I6
aI10
aI6
aa(lp1827
I6
aI10
aI6
aa(lp1828
I10
aI6
aa(lp1829
I10
aI6
aa(lp1830
I6
aI6
aI10
aI6
aa(lp1831
I6
aI6
aI10
aI6
aa(lp1832
I6
aI6
aI10
aI6
aa(lp1833
I6
aI6
aI10
aI6
aa(lp1834
I6
aI6
aI10
aa(lp1835
I6
aI6
aI10
aa(lp1836
I6
aI6
aI10
aa(lp1837
I6
aI6
aI10
aa(lp1838
I6
aI6
aa(lp1839
I6
aI6
aa(lp1840
a(lp1841
a(lp1842
a(lp1843
a(lp1844
I10
aa(lp1845
I10
aa(lp1846
I10
aI10
aa(lp1847
I10
aI10
aa(lp1848
I10
aI10
aa(lp1849
I10
aI10
aa(lp1850
I10
aI10
aa(lp1851
I10
aI10
aa(lp1852
I10
aI10
aI4
aa(lp1853
I10
aI10
aI4
aa(lp1854
I10
aI10
aI4
aa(lp1855
I10
aI10
aI4
aa(lp1856
I4
aI10
aI10
aI4
aa(lp1857
I4
aI10
aI10
aI4
aa(lp1858
I4
aI10
aI10
aI4
aa(lp1859
I4
aI10
aI10
aI4
aa(lp1860
I4
aI10
aI10
aI4
aa(lp1861
I4
aI10
aI10
aI4
aa(lp1862
I4
aI10
aI4
aa(lp1863
I4
aI10
aI4
aa(lp1864
I4
aI10
aI4
aa(lp1865
I4
aI10
aI4
aa(lp1866
I4
aI10
aI4
aa(lp1867
I6
aI4
aI10
aI4
aa(lp1868
I6
aI4
aI10
aI4
aa(lp1869
I6
aI4
aI10
aI4
aa(lp1870
I6
aI4
aI10
aI4
aa(lp1871
I6
aI6
aI4
aI10
aI4
aa(lp1872
I6
aI6
aI4
aI10
aI4
aa(lp1873
I6
aI6
aI4
aI10
aI4
aa(lp1874
I6
aI6
aI4
aI4
aa(lp1875
I6
aI6
aI4
aI10
aI4
aa(lp1876
I6
aI6
aI4
aI10
aI4
aa(lp1877
I6
aI4
aI10
aI4
aa(lp1878
I6
aI4
aI10
aI4
aa(lp1879
I6
aI4
aI10
aI4
aa(lp1880
I6
aI4
aI10
aI4
aa(lp1881
I6
aI4
aI10
aI4
aa(lp1882
I6
aI4
aI10
aI4
aa(lp1883
I6
aI4
aI10
aI4
aa(lp1884
I6
aI4
aI10
aI4
aa(lp1885
I6
aI4
aI10
aI4
aa(lp1886
I6
aI4
aI10
aI4
aa(lp1887
I6
aI4
aI10
aI4
aa(lp1888
I6
aI4
aI10
aI4
aa(lp1889
I6
aI4
aI10
aI4
aa(lp1890
I6
aI4
aI10
aI4
aa(lp1891
I6
aI4
aI10
aI4
aa(lp1892
I6
aI4
aI10
aI4
aa(lp1893
I6
aI4
aI10
aI4
aI4
aa(lp1894
I6
aI4
aI10
aI4
aI4
aa(lp1895
I6
aI4
aI10
aI4
aI4
aa(lp1896
I6
aI4
aI10
aI4
aa(lp1897
I6
aI4
aI10
aI4
aa(lp1898
I6
aI4
aI10
aI4
aa(lp1899
I6
aI4
aI10
aI4
aa(lp1900
I6
aI4
aI10
aI4
aI4
aa(lp1901
I6
aI4
aI4
aI4
aa(lp1902
I6
aI4
aI4
aI4
aa(lp1903
I6
aI4
aI4
aI4
aa(lp1904
I6
aI4
aI4
aI4
aa(lp1905
I6
aI4
aI4
aI4
aa(lp1906
I6
aI4
aI4
aI4
aa(lp1907
I6
aI4
aI4
aa(lp1908
I6
aI4
aI4
aa(lp1909
I6
aI4
aI4
aa(lp1910
I6
aI4
aa(lp1911
I6
aI4
aa(lp1912
I6
aI4
aa(lp1913
I6
aI4
aa(lp1914
I6
aI4
aa(lp1915
I6
aI4
aa(lp1916
I6
aI4
aa(lp1917
I4
aa(lp1918
I4
aI4
aa(lp1919
I4
aI4
aa(lp1920
I4
aI4
aa(lp1921
I4
aI4
aa(lp1922
I4
aI4
aa(lp1923
I4
aa(lp1924
I4
aa(lp1925
I4
aa(lp1926
I4
aa(lp1927
I4
aa(lp1928
I4
aa(lp1929
I4
aa(lp1930
I4
aa(lp1931
I4
aI4
aa(lp1932
I4
aI4
aa(lp1933
I4
aI4
aa(lp1934
I4
aI4
aa(lp1935
I4
aI4
aa(lp1936
I4
aI4
aa(lp1937
I4
aI4
aa(lp1938
I4
aa(lp1939
I4
aa(lp1940
I4
aa(lp1941
I4
aa(lp1942
I4
aa(lp1943
I4
aa(lp1944
I6
aI4
aa(lp1945
I6
aI4
aa(lp1946
I6
aI4
aa(lp1947
I6
aI6
aI4
aa(lp1948
I6
aI6
aI4
aa(lp1949
I6
aI6
aI4
aa(lp1950
I6
aI6
aI4
aa(lp1951
I6
aI6
aI4
aa(lp1952
I6
aI6
aI4
aa(lp1953
I6
aI6
aI4
aa(lp1954
I6
aI6
aI4
aa(lp1955
I6
aI6
aI4
aa(lp1956
I6
aI6
aI4
aa(lp1957
I6
aI6
aI4
aa(lp1958
I6
aI6
aI4
aa(lp1959
I6
aI6
aI4
aa(lp1960
I6
aI6
aI4
aa(lp1961
I6
aI6
aI4
aa(lp1962
I6
aI6
aI4
aa(lp1963
I6
aI6
aI4
aa(lp1964
I6
aI6
aI4
aa(lp1965
I6
aI6
aI4
aa(lp1966
I6
aI6
aI4
aa(lp1967
I6
aI6
aI4
aa(lp1968
I6
aI6
aI4
aa(lp1969
I6
aI4
aa(lp1970
I6
aI4
aa(lp1971
I6
aI4
aa(lp1972
I6
aI4
aa(lp1973
I6
aI4
aa(lp1974
I6
aI4
aa(lp1975
I6
aI4
aa(lp1976
I6
aI4
aa(lp1977
I6
aI4
aa(lp1978
I6
aI4
aa(lp1979
I6
aI4
aa(lp1980
I6
aI4
aa(lp1981
I6
aI4
aa(lp1982
I6
aI4
aa(lp1983
I6
aI4
aa(lp1984
I6
aI4
aa(lp1985
I6
aI4
aa(lp1986
I6
aI4
aa(lp1987
I6
aI4
aa(lp1988
I6
aI4
aa(lp1989
I6
aI4
aI6
aa(lp1990
I6
aI4
aI6
aa(lp1991
I6
aI4
aa(lp1992
I6
aI4
aa(lp1993
I6
aI4
aa(lp1994
I6
aI4
aa(lp1995
I6
aI4
aa(lp1996
I6
aI4
aa(lp1997
I6
aI4
aa(lp1998
I6
aI4
aa(lp1999
I4
aa(lp2000
I4
aa(lp2001
I4
aI6
aa(lp2002
I4
aI6
aa(lp2003
I4
aI6
aa(lp2004
I4
aI6
aa(lp2005
I6
aI4
aI6
aa(lp2006
I6
aI4
aI6
aa(lp2007
I6
aI4
aI6
aa(lp2008
I6
aI4
aI6
aa(lp2009
I6
aI4
aI6
aa(lp2010
I6
aI4
aa(lp2011
I6
aI4
aa(lp2012
I6
aI4
aa(lp2013
I6
aI4
aa(lp2014
I6
aI4
aa(lp2015
I6
aI4
aa(lp2016
I4
aa(lp2017
I4
aa(lp2018
I4
aa(lp2019
I4
aa(lp2020
I4
aa(lp2021
I4
aa(lp2022
I4
aa(lp2023
I4
aa(lp2024
I4
aa(lp2025
I4
aa(lp2026
I4
aI4
aa(lp2027
I4
aI4
aa(lp2028
I4
aI4
aa(lp2029
I4
aI4
aa(lp2030
I4
aI4
aa(lp2031
I4
aI4
aa(lp2032
I4
aI4
aa(lp2033
I4
aI4
aa(lp2034
I4
aI4
aa(lp2035
I8
aI4
aI4
aa(lp2036
I8
aI4
aI4
aa(lp2037
I8
aI4
aI4
aa(lp2038
I8
aI4
aI4
aa(lp2039
I8
aI4
aI4
aa(lp2040
I8
aI4
aI4
aa(lp2041
I8
aI4
aI4
aa(lp2042
I8
aI4
aI4
aa(lp2043
I8
aI4
aI4
aa(lp2044
I8
aI4
aI4
aa(lp2045
I8
aI4
aI4
aa(lp2046
I8
aI4
aI4
aa(lp2047
I8
aI4
aI4
aa(lp2048
I8
aI4
aI4
aa(lp2049
I8
aI4
aI4
aa(lp2050
I8
aI4
aI4
aa(lp2051
I8
aI4
aI4
aa(lp2052
I8
aI4
aI4
aa(lp2053
I8
aI4
aI4
aa(lp2054
I8
aI4
aI4
aa(lp2055
I8
aI4
aI4
aa(lp2056
I8
aI4
aI4
aa(lp2057
I8
aI4
aI4
aa(lp2058
I8
aI4
aI4
aa(lp2059
I4
aI4
aa(lp2060
I4
aI4
aa(lp2061
I4
aI4
aa(lp2062
I4
aI4
aa(lp2063
I4
aI4
aa(lp2064
I4
aI4
aa(lp2065
I4
aI4
aa(lp2066
I4
aI4
aa(lp2067
I4
aI4
aa(lp2068
I4
aI4
aa(lp2069
I4
aI4
aa(lp2070
I4
aI4
aa(lp2071
I4
aI4
aa(lp2072
I4
aI4
aa(lp2073
I4
aI4
aa(lp2074
I4
aa(lp2075
I4
aa(lp2076
I4
aa(lp2077
I4
aa(lp2078
a(lp2079
a(lp2080
a(lp2081
a(lp2082
a(lp2083
a(lp2084
a(lp2085
a(lp2086
a(lp2087
a(lp2088
a(lp2089
a(lp2090
I4
aa(lp2091
I4
aa(lp2092
I4
aa(lp2093
I8
aI4
aa(lp2094
I8
aI4
aa(lp2095
I8
aI4
aa(lp2096
I8
aI4
aa(lp2097
I8
aI4
aa(lp2098
I8
aI4
aa(lp2099
I8
aI4
aa(lp2100
I8
aI4
aa(lp2101
I8
aI4
aa(lp2102
I8
aI4
aa(lp2103
I4
aa(lp2104
I4
aa(lp2105
I4
aa(lp2106
I4
aa(lp2107
I4
aa(lp2108
I4
aa(lp2109
I4
aa(lp2110
I4
aa(lp2111
I4
aa(lp2112
I4
aa(lp2113
I4
aa(lp2114
I4
aa(lp2115
I4
aa(lp2116
I4
aa(lp2117
I4
aI4
aa(lp2118
I4
aI4
aa(lp2119
I4
aI4
aa(lp2120
I6
aI4
aI4
aa(lp2121
I6
aI4
aI4
aa(lp2122
I6
aI4
aI4
aa(lp2123
I6
aI4
aI4
aa(lp2124
I6
aI4
aI4
aa(lp2125
I6
aI4
aI4
aa(lp2126
I6
aI4
aI4
aa(lp2127
I6
aI4
aI4
aa(lp2128
I6
aI4
aI4
aa(lp2129
I6
aI4
aa(lp2130
I6
aI4
aa(lp2131
I6
aI4
aa(lp2132
I6
aI4
aa(lp2133
I6
aI4
aa(lp2134
I6
aI4
aa(lp2135
I6
aI4
aa(lp2136
I6
aI4
aa(lp2137
I6
aI4
aa(lp2138
I6
aI4
aa(lp2139
I6
aI4
aa(lp2140
I4
aa(lp2141
I4
aa(lp2142
I4
aa(lp2143
I4
aa(lp2144
I4
aa(lp2145
I4
aa(lp2146
I4
aa(lp2147
I4
aa(lp2148
I4
aa(lp2149
I4
aa(lp2150
I4
aa(lp2151
I4
aa(lp2152
I4
aa(lp2153
I4
aa(lp2154
I4
aa(lp2155
I4
aa(lp2156
I4
aa(lp2157
I4
aa(lp2158
I4
aa(lp2159
I4
aa(lp2160
I4
aa(lp2161
I4
aI4
aa(lp2162
I4
aI4
aa(lp2163
I4
aI4
aa(lp2164
I4
aI4
aa(lp2165
I4
aI4
aa(lp2166
I4
aI4
aa(lp2167
I4
aI4
aa(lp2168
I4
aI4
aa(lp2169
I4
aI4
aa(lp2170
I4
aI4
aa(lp2171
I4
aI4
aa(lp2172
I4
aI4
aa(lp2173
I4
aI4
aa(lp2174
I4
aI4
aa(lp2175
I4
aI4
aa(lp2176
I4
aI4
aa(lp2177
I4
aI4
aa(lp2178
I4
aI4
aa(lp2179
I4
aI4
aa(lp2180
I4
aI4
aa(lp2181
I4
aI4
aa(lp2182
I4
aI4
aa(lp2183
I4
aI4
aa(lp2184
I6
aI4
aI4
aa(lp2185
I6
aI4
aI4
aI4
aa(lp2186
I6
aI4
aI4
aI4
aa(lp2187
I6
aI4
aI4
aI4
aa(lp2188
I6
aI4
aI4
aI4
aa(lp2189
I6
aI4
aI4
aI8
aI4
aa(lp2190
I6
aI4
aI4
aI8
aI4
aa(lp2191
I6
aI4
aI4
aI8
aI4
aa(lp2192
I6
aI4
aI4
aI8
aI4
aa(lp2193
I6
aI4
aI4
aI8
aI4
aa(lp2194
I6
aI4
aI4
aI8
aI4
aa(lp2195
I6
aI4
aI4
aI8
aI4
aa(lp2196
I6
aI4
aI4
aI8
aI4
aa(lp2197
I6
aI4
aI4
aI8
aI4
aa(lp2198
I4
aI4
aI8
aI4
aa(lp2199
I4
aI4
aI4
aa(lp2200
I4
aI4
aa(lp2201
I4
aI4
aa(lp2202
I4
aI4
aa(lp2203
I4
aI4
aa(lp2204
I4
aI4
aI10
aa(lp2205
I4
aI4
aI10
aa(lp2206
I4
aI4
aI10
aa(lp2207
I4
aI4
aI10
aa(lp2208
I4
aI4
aI10
aa(lp2209
I4
aI4
aI10
aa(lp2210
I4
aI4
aI10
aa(lp2211
I4
aI4
aI10
aa(lp2212
I4
aI4
aI10
aa(lp2213
I4
aI4
aI10
aa(lp2214
I4
aI4
aI10
aa(lp2215
I4
aI4
aI10
aa(lp2216
I4
aI10
aI4
aI10
aa(lp2217
I4
aI10
aI4
aI10
aa(lp2218
I4
aI10
aI4
aI10
aa(lp2219
I4
aI10
aI4
aI10
aa(lp2220
I4
aI10
aI4
aI10
aa(lp2221
I4
aI4
aI10
aa(lp2222
I4
aI4
aI10
aa(lp2223
I4
aI4
aI10
aa(lp2224
I4
aI4
aI10
aa(lp2225
I4
aI10
aa(lp2226
I4
aI10
aa(lp2227
I4
aI10
aa(lp2228
I4
aI10
aI10
aa(lp2229
I4
aI10
aa(lp2230
I4
aa(lp2231
I4
aa(lp2232
a(lp2233
a(lp2234
a(lp2235
a(lp2236
a(lp2237
a(lp2238
a(lp2239
a(lp2240
a(lp2241
a(lp2242
a(lp2243
a(lp2244
I4
aa(lp2245
I4
aa(lp2246
I4
aa(lp2247
I4
aa(lp2248
I4
aa(lp2249
I4
aa(lp2250
I4
aa(lp2251
I4
aa(lp2252
I4
aa(lp2253
I4
aa(lp2254
I4
aa(lp2255
I4
aa(lp2256
I4
aa(lp2257
I4
aa(lp2258
I8
aI4
aa(lp2259
I8
aI4
aa(lp2260
I8
aI4
aa(lp2261
I8
aI4
aa(lp2262
I8
aI6
aI4
aa(lp2263
I8
aI6
aI4
aa(lp2264
I8
aI6
aI4
aa(lp2265
I8
aI6
aI4
aa(lp2266
I8
aI6
aI4
aa(lp2267
I8
aI6
aI4
aa(lp2268
I8
aI6
aI4
aa(lp2269
I8
aI6
aI4
aa(lp2270
I8
aI6
aI4
aa(lp2271
I8
aI6
aI4
aa(lp2272
I8
aI6
aI4
aa(lp2273
I8
aI6
aI4
aa(lp2274
I8
aI6
aI4
aa(lp2275
I8
aI6
aI4
aa(lp2276
I8
aI6
aI4
aa(lp2277
I8
aI6
aI4
aa(lp2278
I8
aI6
aI4
aa(lp2279
I8
aI6
aI4
aa(lp2280
I8
aI6
aI4
aa(lp2281
I8
aI6
aI4
aa(lp2282
I8
aI4
aI6
aI4
aa(lp2283
I8
aI4
aI6
aI4
aa(lp2284
I8
aI4
aI6
aI4
aI10
aa(lp2285
I8
aI4
aI6
aI4
aI10
aa(lp2286
I8
aI4
aI4
aI10
aI4
aa(lp2287
I12
aI8
aI4
aI4
aI10
aI4
aa(lp2288
I12
aI8
aI4
aI4
aI10
aI4
aa(lp2289
I12
aI8
aI4
aI4
aI10
aI4
aa(lp2290
I8
aI4
aI4
aI10
aI4
aa(lp2291
I8
aI4
aI4
aI10
aI4
aa(lp2292
I8
aI4
aI4
aI10
aI4
aa(lp2293
I4
aI10
aI4
aa(lp2294
I4
aI10
aI4
aa(lp2295
I4
aI10
aa(lp2296
I4
aI4
aI10
aa(lp2297
I4
aI4
aI10
aa(lp2298
I4
aI4
aI10
aa(lp2299
I4
aI4
aa(lp2300
I4
aI4
aa(lp2301
I4
aI4
aa(lp2302
I4
aI4
aa(lp2303
I4
aI4
aa(lp2304
I4
aa(lp2305
I4
aa(lp2306
I4
aa(lp2307
I4
aa(lp2308
I4
aa(lp2309
I4
aa(lp2310
I4
aa(lp2311
I4
aa(lp2312
I8
aa(lp2313
I8
aa(lp2314
I8
aa(lp2315
I8
aa(lp2316
I8
aa(lp2317
I6
aI8
aI6
aa(lp2318
I6
aI8
aI6
aa(lp2319
I6
aI8
aI6
aI6
aa(lp2320
I6
aI8
aI6
aa(lp2321
I6
aI8
aI6
aa(lp2322
I6
aI8
aI6
aa(lp2323
I6
aI8
aI6
aa(lp2324
I6
aI8
aI6
aa(lp2325
I6
aI8
aI4
aI6
aa(lp2326
I6
aI8
aI4
aI6
aa(lp2327
I6
aI8
aI4
aI6
aa(lp2328
I6
aI8
aI4
aI6
aa(lp2329
I6
aI8
aI4
aI6
aa(lp2330
I6
aI8
aI4
aI6
aa(lp2331
I6
aI8
aI6
aI6
aa(lp2332
I6
aI8
aI6
aI6
aa(lp2333
I6
aI8
aI6
aI6
aa(lp2334
I6
aI8
aa(lp2335
I6
aI8
aI6
aa(lp2336
I6
aI8
aI6
aa(lp2337
I6
aI8
aI6
aa(lp2338
I6
aI8
aI6
aa(lp2339
I6
aI8
aI6
aa(lp2340
I6
aI8
aI6
aa(lp2341
I6
aI8
aI6
aa(lp2342
I6
aI8
aI6
aa(lp2343
I6
aI8
aI6
aa(lp2344
I6
aI8
aI8
aI6
aa(lp2345
I6
aI8
aI8
aI6
aa(lp2346
I6
aI8
aI8
aI6
aa(lp2347
I6
aI6
aa(lp2348
I6
aI16
aI6
aa(lp2349
I6
aI6
aa(lp2350
I6
aI6
aa(lp2351
I6
aI8
aI6
aa(lp2352
I6
aI8
aI6
aa(lp2353
I6
aI8
aI6
aa(lp2354
I6
aI8
aI6
aa(lp2355
I6
aI8
aI6
aa(lp2356
I6
aI8
aI6
aa(lp2357
I6
aI6
aa(lp2358
I6
aI6
aa(lp2359
I6
aI6
aa(lp2360
I6
aI6
aa(lp2361
I6
aI8
aI6
aa(lp2362
I6
aI8
aI6
aa(lp2363
I6
aI8
aI6
aa(lp2364
I6
aI8
aI6
aa(lp2365
I6
aI8
aI6
aa(lp2366
I6
aI8
aI8
aI6
aa(lp2367
I6
aI8
aI6
aa(lp2368
I6
aI8
aI6
aa(lp2369
I6
aI8
aa(lp2370
I6
aI8
aa(lp2371
I6
aI8
aa(lp2372
I6
aI8
aa(lp2373
I6
aI8
aa(lp2374
I6
aI8
aa(lp2375
I6
aI8
aa(lp2376
I6
aI8
aa(lp2377
I6
aa(lp2378
I6
aa(lp2379
I6
aa(lp2380
I6
aa(lp2381
I6
aI8
aa(lp2382
I6
aI8
aa(lp2383
I8
aa(lp2384
I8
aa(lp2385
I8
aa(lp2386
I8
aa(lp2387
I8
aa(lp2388
I8
aa(lp2389
I8
aI6
aa(lp2390
I8
aI6
aa(lp2391
I6
aI8
aI6
aa(lp2392
I6
aI8
aI6
aa(lp2393
I6
aI8
aI6
aa(lp2394
I6
aI8
aI6
aa(lp2395
I6
aI8
aI6
aa(lp2396
I6
aI8
aI6
aa(lp2397
I6
aI8
aI6
aa(lp2398
I6
aI8
aI6
aa(lp2399
I6
aI8
aI6
aa(lp2400
I6
aI8
aI6
aa(lp2401
I6
aI8
aI6
aa(lp2402
I6
aI8
aI6
aa(lp2403
I6
aI8
aI6
aa(lp2404
I8
aI6
aI8
aI6
aa(lp2405
I8
aI6
aI8
aI6
aa(lp2406
I8
aI6
aI8
aI6
aa(lp2407
I8
aI6
aI8
aI6
aa(lp2408
I8
aI6
aI8
aI6
aa(lp2409
I8
aI8
aI6
aa(lp2410
I8
aI8
aI6
aa(lp2411
I8
aI6
aa(lp2412
I8
aI6
aa(lp2413
I8
aI6
aa(lp2414
I8
aI6
aa(lp2415
I8
aI6
aa(lp2416
I8
aI6
aa(lp2417
I8
aI6
aa(lp2418
I8
aI6
aa(lp2419
I6
aa(lp2420
I6
aa(lp2421
I6
aa(lp2422
I6
aa(lp2423
I8
aI6
aa(lp2424
I10
aI8
aI6
aa(lp2425
I10
aI8
aI6
aa(lp2426
I10
aI8
aI6
aa(lp2427
I10
aI8
aI6
aa(lp2428
I10
aI6
aI8
aI6
aa(lp2429
I10
aI6
aI8
aI6
aa(lp2430
I10
aI6
aI8
aI6
aa(lp2431
I10
aI6
aI8
aI6
aa(lp2432
I6
aI8
aI6
aa(lp2433
I8
aI6
aa(lp2434
I8
aI6
aa(lp2435
I8
aI6
aa(lp2436
I6
aI8
aI6
aa(lp2437
I6
aI8
aI6
aI4
aa(lp2438
I6
aI8
aI6
aI4
aa(lp2439
I6
aI8
aI6
aI4
aa(lp2440
I6
aI8
aI6
aI4
aa(lp2441
I6
aI8
aI6
aI4
aa(lp2442
I6
aI8
aI6
aI4
aa(lp2443
I6
aI8
aI6
aI4
aa(lp2444
I6
aI8
aI6
aI4
aa(lp2445
I6
aI8
aI6
aI4
aa(lp2446
I6
aI8
aI6
aI4
aa(lp2447
I6
aI8
aI6
aI4
aa(lp2448
I6
aI8
aI6
aI4
aa(lp2449
I4
aI6
aI8
aI6
aI4
aa(lp2450
I4
aI6
aI8
aI6
aI4
aa(lp2451
I4
aI6
aI8
aI6
aI4
aa(lp2452
I4
aI6
aI8
aI6
aI4
aa(lp2453
I6
aI8
aI6
aI4
aa(lp2454
I6
aI8
aI6
aI4
aa(lp2455
I6
aI8
aI6
aI4
aa(lp2456
I6
aI8
aI6
aI4
aa(lp2457
I6
aI8
aI6
aI4
aa(lp2458
I6
aI8
aI6
aI4
aa(lp2459
I8
aI6
aI4
aa(lp2460
I8
aI8
aI6
aI4
aa(lp2461
I8
aI8
aI6
aI4
aa(lp2462
I8
aI8
aI6
aI4
aa(lp2463
I8
aI8
aI6
aI4
aa(lp2464
I8
aI8
aI6
aI4
aa(lp2465
I8
aI8
aI6
aI4
aa(lp2466
I8
aI8
aI6
aI4
aa(lp2467
I8
aI8
aI6
aI4
aa(lp2468
I8
aI10
aI8
aI6
aI4
aa(lp2469
I10
aI8
aI6
aI4
aa(lp2470
I10
aI6
aI4
aa(lp2471
I10
aI6
aI4
aa(lp2472
I6
aI4
aa(lp2473
I6
aI4
aa(lp2474
I4
aI6
aI4
aa(lp2475
I4
aI6
aI4
aa(lp2476
I4
aI6
aI4
aa(lp2477
I6
aa(lp2478
I4
aI6
aa(lp2479
I4
aI6
aa(lp2480
I4
aI6
aa(lp2481
I4
aI6
aa(lp2482
I4
aI6
aa(lp2483
I4
aI6
aa(lp2484
I4
aI6
aa(lp2485
I4
aI6
aa(lp2486
I4
aI6
aa(lp2487
I4
aI6
aa(lp2488
I6
aa(lp2489
I4
aI6
aa(lp2490
I4
aI6
aa(lp2491
I4
aI6
aa(lp2492
I4
aI6
aa(lp2493
I4
aI6
aa(lp2494
I4
aI6
aa(lp2495
I4
aI6
aa(lp2496
I4
aI6
aa(lp2497
I6
aa(lp2498
I6
aa(lp2499
I6
aa(lp2500
I6
aa(lp2501
I4
aa(lp2502
I4
aa(lp2503
I4
aa(lp2504
I4
aa(lp2505
I4
aa(lp2506
I4
aa(lp2507
I4
aa(lp2508
I4
aa(lp2509
I4
aa(lp2510
I4
aa(lp2511
I4
aa(lp2512
I4
aa(lp2513
I4
aa(lp2514
I4
aa(lp2515
I4
aa(lp2516
I4
aa(lp2517
I4
aI8
aa(lp2518
I4
aI8
aa(lp2519
I4
aI8
aa(lp2520
I4
aI8
aa(lp2521
I4
aI8
aa(lp2522
I4
aI8
aa(lp2523
I4
aI8
aa(lp2524
I4
aI8
aa(lp2525
I4
aI8
aa(lp2526
I4
aI8
aa(lp2527
I4
aI8
aa(lp2528
I4
aI8
aa(lp2529
I4
aI8
aa(lp2530
I4
aI8
aa(lp2531
I4
aI8
aa(lp2532
I4
aI8
aa(lp2533
I4
aI8
aa(lp2534
I4
aI8
aa(lp2535
I4
aI8
aa(lp2536
I4
aI8
aa(lp2537
I4
aI8
aa(lp2538
I4
aI8
aa(lp2539
I4
aI8
aa(lp2540
I4
aI8
aa(lp2541
I4
aI8
aa(lp2542
I4
aI8
aa(lp2543
I4
aI8
aa(lp2544
I4
aI8
aa(lp2545
I4
aI8
aa(lp2546
I4
aI8
aa(lp2547
I4
aI8
aa(lp2548
I4
aI8
aa(lp2549
I4
aI8
aa(lp2550
I4
aI8
aa(lp2551
I4
aa(lp2552
I4
aa(lp2553
I4
aa(lp2554
I4
aa(lp2555
I4
aa(lp2556
I4
aa(lp2557
I4
aa(lp2558
I4
aa(lp2559
I4
aa(lp2560
I4
aa(lp2561
I4
aa(lp2562
I4
aa(lp2563
a(lp2564
a(lp2565
a(lp2566
a(lp2567
a(lp2568
a(lp2569
a(lp2570
a(lp2571
a(lp2572
a(lp2573
a(lp2574
I4
aa(lp2575
I4
aa(lp2576
I4
aa(lp2577
I4
aa(lp2578
I4
aa(lp2579
I4
aa(lp2580
I4
aa(lp2581
I4
aa(lp2582
I4
aa(lp2583
I4
aa(lp2584
I4
aa(lp2585
I4
aa(lp2586
I4
aa(lp2587
I4
aa(lp2588
I4
aa(lp2589
I4
aa(lp2590
I4
aa(lp2591
a(lp2592
a(lp2593
I6
aa(lp2594
I4
aI6
aa(lp2595
I6
aI4
aI6
aa(lp2596
I6
aI4
aI6
aa(lp2597
I6
aI4
aI6
aa(lp2598
I6
aI6
aa(lp2599
I6
aI6
aa(lp2600
I6
aI6
aa(lp2601
I6
aI6
aa(lp2602
I6
aI6
aa(lp2603
I6
aI6
aa(lp2604
I6
aI6
aa(lp2605
I6
aI6
aa(lp2606
I6
aI6
aI6
aa(lp2607
I6
aI6
aI6
aa(lp2608
I6
aI6
aI6
aa(lp2609
I6
aI6
aI6
aa(lp2610
I6
aI6
aI6
aa(lp2611
I6
aI6
aI6
aa(lp2612
I6
aI6
aI6
aa(lp2613
I6
aI6
aI6
aa(lp2614
I6
aI6
aI6
aa(lp2615
I6
aI6
aI6
aa(lp2616
I6
aI6
aI6
aa(lp2617
I6
aI6
aI6
aa(lp2618
I6
aI6
aI6
aa(lp2619
I6
aI6
aI6
aa(lp2620
I6
aI6
aI6
aa(lp2621
I6
aI6
aI6
aa(lp2622
I6
aI6
aa(lp2623
I6
aI6
aa(lp2624
I6
aI6
aa(lp2625
I6
aa(lp2626
I6
aI6
aa(lp2627
I6
aI6
aa(lp2628
I6
aI6
aa(lp2629
I6
aI6
aa(lp2630
I6
aI6
aa(lp2631
I6
aI6
aa(lp2632
I6
aI6
aa(lp2633
I6
aI6
aa(lp2634
I6
aa(lp2635
I6
aI6
aa(lp2636
I6
aI6
aa(lp2637
I6
aI6
aa(lp2638
I6
aI6
aa(lp2639
I6
aI6
aa(lp2640
I6
aI6
aa(lp2641
I6
aI6
aa(lp2642
I6
aI6
aa(lp2643
I6
aI6
aa(lp2644
I6
aI6
aa(lp2645
I6
aI6
aa(lp2646
I6
aI6
aa(lp2647
I6
aI6
aI6
aa(lp2648
I6
aI6
aI6
aa(lp2649
I6
aI6
aI6
aa(lp2650
I6
aI6
aI6
aa(lp2651
I6
aI6
aI6
aa(lp2652
I6
aI6
aI6
aa(lp2653
I6
aI6
aI6
aa(lp2654
I6
aI6
aI6
aa(lp2655
I6
aI6
aI6
aa(lp2656
I6
aI6
aI6
aa(lp2657
I6
aI6
aI6
aa(lp2658
I6
aI6
aI6
aa(lp2659
I6
aI6
aI6
aa(lp2660
I6
aI6
aI6
aa(lp2661
I6
aI6
aI6
aa(lp2662
I6
aI6
aI6
aa(lp2663
I6
aI6
aI6
aa(lp2664
I6
aI6
aI6
aa(lp2665
I6
aI6
aI6
aa(lp2666
I4
aI6
aI6
aa(lp2667
I4
aI6
aI6
aa(lp2668
I4
aI6
aI6
aa(lp2669
I4
aI8
aI6
aa(lp2670
I4
aI8
aI6
aa(lp2671
I4
aI8
aI6
aa(lp2672
I4
aI8
aI6
aa(lp2673
I4
aI8
aa(lp2674
I4
aI8
aa(lp2675
I4
aI8
aa(lp2676
I4
aI8
aa(lp2677
I4
aI8
aa(lp2678
I4
aI8
aa(lp2679
I4
aI8
aI6
aI10
aI6
aa(lp2680
I4
aI8
aI6
aI10
aI6
aa(lp2681
I12
aI4
aI8
aI6
aI10
aI6
aa(lp2682
I12
aI4
aI8
aI8
aI6
aI10
aI6
aa(lp2683
I12
aI4
aI8
aI8
aI6
aI10
aI6
aa(lp2684
I12
aI4
aI8
aI6
aI10
aI6
aa(lp2685
I12
aI4
aI6
aI10
aI6
aa(lp2686
I12
aI4
aI8
aI6
aI10
aI6
aa(lp2687
I12
aI4
aI8
aI6
aI10
aI6
aa(lp2688
I12
aI4
aI8
aI6
aI10
aI6
aa(lp2689
I12
aI4
aI8
aI14
aI6
aI10
aI6
aa(lp2690
I4
aI12
aI4
aI8
aI14
aI6
aI10
aI6
aa(lp2691
I4
aI4
aI8
aI14
aI6
aI6
aa(lp2692
I4
aI4
aI8
aI14
aI6
aI6
aa(lp2693
I4
aI4
aI8
aI14
aI6
aI6
aa(lp2694
I4
aI4
aI8
aI6
aI6
aa(lp2695
I4
aI4
aI8
aI14
aI6
aI6
aa(lp2696
I4
aI4
aI8
aI14
aI6
aI6
aa(lp2697
I4
aI4
aI8
aI14
aI6
aI6
aa(lp2698
I4
aI4
aI8
aI14
aI6
aI6
aa(lp2699
I4
aI4
aI8
aI6
aI6
aa(lp2700
I4
aI4
aI8
aI6
aI6
aa(lp2701
I4
aI4
aI8
aI6
aI6
aa(lp2702
I4
aI4
aI8
aI6
aI6
aa(lp2703
I4
aI4
aI8
aI6
aI6
aa(lp2704
I4
aI4
aI8
aI6
aI6
aa(lp2705
I4
aI4
aI8
aI6
aI6
aa(lp2706
I4
aI4
aI8
aI6
aI6
aa(lp2707
I4
aI4
aI8
aI6
aI6
aa(lp2708
I4
aI4
aI8
aI6
aI6
aa(lp2709
I4
aI4
aI8
aI6
aI6
aa(lp2710
I4
aI4
aI8
aI6
aI6
aa(lp2711
I4
aI4
aI8
aI6
aI6
aa(lp2712
I4
aI4
aI8
aI6
aI6
aa(lp2713
I4
aI4
aI8
aI6
aI6
aa(lp2714
I4
aI4
aI8
aI6
aI6
aa(lp2715
I4
aI4
aI14
aI6
aI6
aa(lp2716
I4
aI4
aI14
aI6
aI6
aa(lp2717
I4
aI4
aI14
aI6
aI6
aa(lp2718
I4
aI4
aI14
aI6
aI6
aa(lp2719
I4
aI4
aI14
aI6
aa(lp2720
I4
aI4
aI14
aI6
aa(lp2721
I4
aI4
aI14
aI6
aa(lp2722
I4
aI4
aI14
aI6
aa(lp2723
I4
aI4
aI14
aI6
aa(lp2724
I4
aI4
aI14
aI6
aa(lp2725
I4
aI4
aI14
aI6
aa(lp2726
I4
aI4
aI14
aI6
aa(lp2727
I4
aI4
aI14
aI6
aa(lp2728
I4
aI4
aI14
aI6
aa(lp2729
I4
aI4
aI14
aI6
aa(lp2730
I4
aI4
aI14
aI6
aa(lp2731
I4
aI4
aI14
aI6
aa(lp2732
I4
aI4
aI14
aI6
aa(lp2733
I4
aI14
aI6
aa(lp2734
I4
aI6
aa(lp2735
I4
aI6
aa(lp2736
I4
aI6
aa(lp2737
I4
aI6
aa(lp2738
I4
aI6
aa(lp2739
I4
aI6
aa(lp2740
I4
aI6
aa(lp2741
I4
aI6
aa(lp2742
I4
aI6
aa(lp2743
I4
aI6
aa(lp2744
I4
aI6
aa(lp2745
I4
aI6
aa(lp2746
I4
aI6
aa(lp2747
I4
aI6
aa(lp2748
I4
aI6
aa(lp2749
I4
aI6
aa(lp2750
I4
aI6
aa(lp2751
I4
aI6
aa(lp2752
I4
aI6
aa(lp2753
I4
aI6
aa(lp2754
I4
aI6
aa(lp2755
I4
aI6
aa(lp2756
I4
aI6
aa(lp2757
I4
aI6
aa(lp2758
I4
aI6
aa(lp2759
I4
aI6
aa(lp2760
I4
aI6
aa(lp2761
I4
aI6
aa(lp2762
I4
aI6
aa(lp2763
I4
aI6
aa(lp2764
I4
aI6
aa(lp2765
I4
aI6
aa(lp2766
I4
aI6
aa(lp2767
I4
aI6
aa(lp2768
I4
aI6
aa(lp2769
I4
aI6
aa(lp2770
I4
aa(lp2771
I4
aa(lp2772
I4
aa(lp2773
I4
aa(lp2774
I4
aa(lp2775
I4
aa(lp2776
I4
aa(lp2777
I4
aa(lp2778
I4
aa(lp2779
I4
aa(lp2780
a(lp2781
a(lp2782
a(lp2783
a(lp2784
a(lp2785
a(lp2786
a(lp2787
a(lp2788
a(lp2789
a(lp2790
a(lp2791
a(lp2792
I10
aa(lp2793
I10
aa(lp2794
I10
aa(lp2795
I10
aa(lp2796
I10
aa(lp2797
I10
aa(lp2798
I10
aI4
aa(lp2799
I10
aI4
aa(lp2800
I4
aa(lp2801
I4
aa(lp2802
I4
aa(lp2803
I4
aa(lp2804
I4
aa(lp2805
I4
aa(lp2806
I4
aa(lp2807
I4
aa(lp2808
I4
aa(lp2809
I4
aa(lp2810
I4
aa(lp2811
I4
aa(lp2812
I4
aa(lp2813
I4
aa(lp2814
I4
aa(lp2815
I4
aa(lp2816
I4
aa(lp2817
I4
aa(lp2818
I4
aa(lp2819
I4
aI4
aa(lp2820
I4
aI4
aa(lp2821
I4
aI6
aI4
aa(lp2822
I4
aI6
aI4
aa(lp2823
I4
aI6
aI4
aa(lp2824
I4
aI6
aI4
aa(lp2825
I4
aI6
aI4
aa(lp2826
I4
aI6
aI4
aa(lp2827
I4
aI6
aI4
aa(lp2828
I4
aI6
aa(lp2829
I4
aI6
aa(lp2830
I4
aI6
aa(lp2831
I4
aI4
aI6
aa(lp2832
I4
aI4
aI6
aa(lp2833
I4
aI4
aI6
aa(lp2834
I4
aI4
aI6
aI4
aa(lp2835
I4
aI4
aI6
aI4
aa(lp2836
I4
aI4
aI6
aI4
aa(lp2837
I4
aI4
aI4
aa(lp2838
I4
aI4
aI4
aa(lp2839
I4
aI4
aI6
aI4
aa(lp2840
I4
aI4
aI6
aI4
aa(lp2841
I4
aI4
aI6
aI4
aa(lp2842
I4
aI4
aI6
aI4
aa(lp2843
I4
aI4
aI6
aI4
aa(lp2844
I4
aI4
aI6
aI4
aa(lp2845
I4
aI4
aI6
aI4
aa(lp2846
I4
aI4
aI6
aI4
aa(lp2847
I4
aI4
aI6
aI4
aa(lp2848
I4
aI4
aI6
aI4
aa(lp2849
I4
aI4
aI6
aI4
aa(lp2850
I4
aI4
aI6
aI4
aa(lp2851
I4
aI4
aI6
aI4
aa(lp2852
I4
aI4
aI6
aI4
aa(lp2853
I4
aI4
aI6
aI6
aI4
aa(lp2854
I4
aI4
aI6
aI6
aI4
aa(lp2855
I4
aI4
aI6
aI6
aI4
aa(lp2856
I4
aI6
aI6
aI4
aI4
aa(lp2857
I4
aI6
aI6
aI4
aI4
aa(lp2858
I4
aI6
aI4
aI4
aa(lp2859
I4
aI6
aI4
aI4
aa(lp2860
I4
aI6
aI4
aI4
aa(lp2861
I4
aI4
aI4
aa(lp2862
I4
aI4
aI4
aa(lp2863
I4
aI4
aI4
aa(lp2864
I4
aI4
aI4
aa(lp2865
I4
aI4
aI4
aa(lp2866
I4
aI4
aI4
aa(lp2867
I4
aI4
aI4
aa(lp2868
I4
aI4
aI4
aa(lp2869
I4
aI4
aI4
aa(lp2870
I4
aI4
aI4
aa(lp2871
I4
aI4
aI4
aa(lp2872
I4
aI4
aI4
aa(lp2873
I4
aI4
aI4
aa(lp2874
I4
aI4
aa(lp2875
I4
aI4
aa(lp2876
I4
aI4
aa(lp2877
I4
aI4
aa(lp2878
I4
aI4
aa(lp2879
I4
aI4
aa(lp2880
I4
aI4
aa(lp2881
I4
aI4
aa(lp2882
I4
aI4
aI4
aI6
aa(lp2883
I4
aI4
aI4
aI6
aa(lp2884
I4
aI4
aI4
aI6
aa(lp2885
I4
aI4
aI4
aI6
aa(lp2886
I4
aI4
aI4
aI6
aa(lp2887
I4
aI4
aI4
aI6
aa(lp2888
I4
aI4
aI4
aI6
aa(lp2889
I4
aI4
aI4
aI6
aa(lp2890
I4
aI4
aI4
aI6
aa(lp2891
I4
aI4
aI4
aI6
aa(lp2892
I4
aI4
aI4
aI6
aa(lp2893
I4
aI4
aI4
aI6
aa(lp2894
I4
aI4
aI4
aI6
aa(lp2895
I4
aI4
aI4
aI6
aa(lp2896
I4
aI4
aI4
aI6
aa(lp2897
I4
aI4
aI4
aI6
aa(lp2898
I4
aI4
aI4
aI6
aa(lp2899
I4
aI4
aI4
aI6
aa(lp2900
I4
aI4
aI4
aI6
aa(lp2901
I8
aI4
aI4
aI6
aa(lp2902
I8
aI4
aI4
aI4
aI6
aa(lp2903
I8
aI4
aI4
aI4
aI6
aa(lp2904
I8
aI4
aI4
aI4
aI6
aa(lp2905
I8
aI4
aI4
aI4
aI6
aa(lp2906
I8
aI4
aI4
aI4
aI6
aa(lp2907
I8
aI4
aI4
aI4
aI6
aa(lp2908
I8
aI4
aI4
aI4
aI6
aa(lp2909
I8
aI4
aI4
aI4
aI6
aa(lp2910
I8
aI4
aI4
aI6
aa(lp2911
I8
aI4
aI4
aI6
aa(lp2912
I8
aI4
aI6
aa(lp2913
I8
aI4
aI4
aI6
aa(lp2914
I8
aI4
aI4
aI6
aa(lp2915
I8
aI4
aI4
aI6
aa(lp2916
I8
aI4
aI4
aI6
aa(lp2917
I8
aI4
aI4
aI6
aa(lp2918
I8
aI4
aI4
aI6
aa(lp2919
I8
aI4
aI4
aI6
aa(lp2920
I8
aI4
aI4
aI6
aa(lp2921
I8
aI4
aI4
aI6
aa(lp2922
I8
aI4
aI4
aI6
aa(lp2923
I8
aI4
aI4
aI6
aa(lp2924
I8
aI4
aI4
aI6
aa(lp2925
I8
aI4
aI4
aI6
aa(lp2926
I8
aI4
aI4
aI6
aa(lp2927
I8
aI4
aI4
aI6
aa(lp2928
I8
aI4
aI4
aI6
aa(lp2929
I8
aI4
aI4
aI6
aa(lp2930
I8
aI4
aI10
aI4
aI6
aa(lp2931
I8
aI4
aI10
aI4
aI6
aa(lp2932
I8
aI4
aI10
aI4
aI6
aa(lp2933
I8
aI4
aI10
aI4
aI6
aa(lp2934
I8
aI4
aI10
aI4
aI6
aa(lp2935
I8
aI4
aI10
aI4
aI6
aa(lp2936
I8
aI4
aI10
aI6
aa(lp2937
I8
aI4
aI10
aI6
aa(lp2938
I8
aI4
aI10
aI6
aa(lp2939
I8
aI4
aI10
aI6
aa(lp2940
I8
aI4
aI10
aI6
aa(lp2941
I8
aI4
aI6
aa(lp2942
I8
aI4
aI6
aa(lp2943
I8
aI4
aI6
aa(lp2944
I8
aI4
aI6
aa(lp2945
I8
aI4
aI6
aa(lp2946
I8
aI4
aI6
aa(lp2947
I8
aI4
aI6
aa(lp2948
I8
aI4
aI6
aa(lp2949
I8
aI4
aI6
aa(lp2950
I8
aI4
aI6
aa(lp2951
I8
aI4
aI6
aa(lp2952
I4
aI6
aa(lp2953
I4
aI6
aa(lp2954
I8
aI4
aI6
aa(lp2955
I8
aI4
aI6
aa(lp2956
I8
aI4
aI6
aa(lp2957
I8
aI4
aI6
aa(lp2958
I8
aI4
aI6
aa(lp2959
I8
aI4
aI6
aa(lp2960
I8
aI6
aa(lp2961
I8
aI6
aa(lp2962
I8
aI6
aa(lp2963
I8
aI6
aa(lp2964
I8
aI6
aa(lp2965
I8
aI6
aa(lp2966
I8
aI6
aa(lp2967
I8
aI6
aa(lp2968
I8
aI6
aa(lp2969
I8
aI6
aa(lp2970
I8
aI6
aa(lp2971
I8
aI6
aa(lp2972
I8
aI6
aa(lp2973
I8
aI6
aa(lp2974
I8
aI6
aa(lp2975
I8
aI6
aa(lp2976
I8
aI6
aa(lp2977
I8
aI6
aa(lp2978
I8
aI6
aa(lp2979
I8
aI6
aa(lp2980
I8
aI6
aa(lp2981
I8
aI6
aa(lp2982
I8
aI6
aa(lp2983
I8
aI6
aa(lp2984
I8
aI6
aa(lp2985
I8
aI6
aa(lp2986
I8
aI6
aa(lp2987
I8
aI6
aa(lp2988
I8
aI6
aa(lp2989
I8
aI6
aa(lp2990
I8
aI6
aa(lp2991
I8
aI6
aa(lp2992
I8
aI6
aa(lp2993
I8
aI6
aa(lp2994
I8
aI6
aa(lp2995
I8
aI6
aa(lp2996
I8
aI6
aa(lp2997
I8
aI6
aa(lp2998
I8
aI6
aa(lp2999
I8
aI4
aI6
aa(lp3000
I8
aI4
aI6
aa(lp3001
I8
aI4
aI6
aa(lp3002
I8
aI4
aI6
aa(lp3003
I8
aI4
aI6
aa(lp3004
I8
aI4
aI6
aa(lp3005
I8
aI4
aI6
aa(lp3006
I8
aI4
aI6
aa(lp3007
I8
aI4
aI6
aa(lp3008
I8
aI4
aI4
aI6
aa(lp3009
I8
aI4
aI6
aa(lp3010
I8
aI4
aI6
aa(lp3011
I8
aI4
aI6
aa(lp3012
I8
aI4
aa(lp3013
I8
aI4
aa(lp3014
I8
aI4
aa(lp3015
I8
aI4
aa(lp3016
I8
aI4
aa(lp3017
I8
aI4
aa(lp3018
I8
aI4
aa(lp3019
I8
aI4
aa(lp3020
I8
aI4
aa(lp3021
I8
aI4
aa(lp3022
I8
aI4
aa(lp3023
I8
aI4
aa(lp3024
I8
aI4
aa(lp3025
I8
aI4
aa(lp3026
I8
aI4
aa(lp3027
I8
aI4
aa(lp3028
I8
aI4
aa(lp3029
I8
aI4
aa(lp3030
I8
aI4
aa(lp3031
I8
aI4
aa(lp3032
I4
aa(lp3033
I4
aa(lp3034
I4
aa(lp3035
I4
aa(lp3036
I4
aa(lp3037
I4
aa(lp3038
I4
aa(lp3039
I4
aa(lp3040
I4
aa(lp3041
I4
aa(lp3042
I4
aa(lp3043
I4
aa(lp3044
I4
aa(lp3045
I4
aa(lp3046
I6
aI4
aa(lp3047
I6
aI4
aa(lp3048
I6
aI4
aa(lp3049
I6
aI6
aI4
aa(lp3050
I6
aI6
aI4
aa(lp3051
I6
aI6
aI4
aa(lp3052
I6
aI6
aI4
aa(lp3053
I6
aI6
aI4
aa(lp3054
I6
aI6
aI4
aa(lp3055
I6
aI6
aI4
aa(lp3056
I6
aI6
aI4
aa(lp3057
I6
aI6
aI8
aI4
aa(lp3058
I6
aI6
aI8
aa(lp3059
I6
aI6
aI8
aa(lp3060
I6
aI6
aI8
aa(lp3061
I6
aI6
aI8
aa(lp3062
I6
aI6
aI8
aa(lp3063
I6
aI6
aa(lp3064
I6
aI6
aa(lp3065
I6
aI6
aa(lp3066
I6
aI6
aa(lp3067
I6
aI6
aa(lp3068
I6
aI6
aa(lp3069
I6
aI6
aa(lp3070
I6
aI6
aa(lp3071
I6
aI6
aa(lp3072
I6
aI6
aa(lp3073
I6
aa(lp3074
I6
aI6
aa(lp3075
I6
aa(lp3076
I6
aa(lp3077
I6
aa(lp3078
I6
aa(lp3079
I6
aa(lp3080
a(lp3081
a(lp3082
a(lp3083
a(lp3084
a(lp3085
a(lp3086
a(lp3087
a(lp3088
a(lp3089
a(lp3090
a(lp3091
I6
aa(lp3092
I6
aa(lp3093
I6
aa(lp3094
I6
aa(lp3095
I6
aI6
aa(lp3096
I6
aI6
aa(lp3097
I6
aI6
aa(lp3098
I6
aI6
aa(lp3099
I6
aa(lp3100
I6
aa(lp3101
I6
aa(lp3102
I6
aa(lp3103
I6
aa(lp3104
I6
aa(lp3105
I6
aa(lp3106
I6
aa(lp3107
I6
aa(lp3108
I6
aa(lp3109
I6
aa(lp3110
I6
aa(lp3111
I6
aa(lp3112
I4
aI6
aa(lp3113
I4
aI6
aI6
aa(lp3114
I4
aI6
aI6
aa(lp3115
I4
aI6
aI6
aa(lp3116
I4
aI6
aI6
aa(lp3117
I4
aI6
aI6
aa(lp3118
I4
aI6
aI6
aa(lp3119
I4
aI6
aI6
aa(lp3120
I4
aI6
aI6
aa(lp3121
I4
aI6
aI6
aa(lp3122
I4
aI6
aI6
aa(lp3123
I4
aI6
aI6
aa(lp3124
I4
aI6
aI6
aa(lp3125
I4
aI6
aI6
aa(lp3126
I4
aI6
aI6
aa(lp3127
I4
aI6
aI6
aa(lp3128
I4
aI6
aa(lp3129
I4
aI6
aa(lp3130
I4
aI6
aa(lp3131
I4
aI6
aa(lp3132
I4
aI6
aa(lp3133
I4
aI4
aI6
aa(lp3134
I4
aI4
aI6
aa(lp3135
I4
aI4
aI6
aa(lp3136
I4
aI4
aI6
aa(lp3137
I4
aI4
aI6
aa(lp3138
I4
aI4
aI6
aa(lp3139
I4
aI4
aI6
aa(lp3140
I4
aI4
aI6
aa(lp3141
I4
aI4
aI6
aa(lp3142
I4
aI4
aI6
aa(lp3143
I4
aI4
aI6
aa(lp3144
I4
aI4
aI6
aa(lp3145
I4
aI4
aI6
aa(lp3146
I4
aI4
aI6
aa(lp3147
I4
aI4
aI6
aa(lp3148
I4
aI4
aI6
aa(lp3149
I4
aI4
aI6
aa(lp3150
I4
aI4
aI6
aa(lp3151
I4
aI4
aI6
aa(lp3152
I4
aI4
aI6
aa(lp3153
I4
aI4
aI6
aa(lp3154
I4
aI4
aI6
aa(lp3155
I4
aI4
aI6
aa(lp3156
I4
aI4
aI6
aa(lp3157
I4
aI4
aI6
aa(lp3158
I4
aI4
aI6
aa(lp3159
I4
aI4
aI6
aa(lp3160
I4
aI4
aI6
aa(lp3161
I4
aI4
aI6
aa(lp3162
I4
aI4
aI6
aa(lp3163
I4
aI4
aI6
aa(lp3164
I4
aI4
aI6
aa(lp3165
I4
aI4
aI6
aa(lp3166
I4
aI4
aI6
aa(lp3167
I4
aI4
aI6
aa(lp3168
I4
aI4
aa(lp3169
I4
aI4
aa(lp3170
I4
aI4
aa(lp3171
I4
aI4
aa(lp3172
I4
aI4
aI6
aa(lp3173
I4
aI4
aI6
aa(lp3174
I4
aI4
aI6
aI6
aa(lp3175
I4
aI4
aI6
aI6
aa(lp3176
I4
aI4
aI6
aa(lp3177
I4
aI4
aI6
aa(lp3178
I4
aI4
aI6
aa(lp3179
I4
aI4
aI6
aa(lp3180
I4
aI4
aI6
aa(lp3181
I4
aI4
aI6
aa(lp3182
I4
aI4
aI6
aI6
aa(lp3183
I4
aI4
aI6
aI6
aa(lp3184
I4
aI4
aI6
aI6
aa(lp3185
I4
aI4
aI6
aI6
aa(lp3186
I4
aI4
aI6
aI6
aa(lp3187
I4
aI4
aI6
aI6
aa(lp3188
I4
aI4
aI6
aI6
aa(lp3189
I4
aI4
aI6
aI6
aa(lp3190
I4
aI4
aI6
aI6
aa(lp3191
I4
aI4
aI6
aI6
aa(lp3192
I4
aI4
aI6
aI6
aa(lp3193
I4
aI4
aI6
aI6
aa(lp3194
I4
aI6
aI4
aI6
aa(lp3195
I4
aI6
aI4
aI4
aI6
aa(lp3196
I4
aI6
aI4
aI4
aI6
aa(lp3197
I4
aI6
aI4
aI4
aI6
aa(lp3198
I4
aI6
aI4
aI4
aa(lp3199
I4
aI6
aI4
aI4
aa(lp3200
I4
aI6
aI4
aI4
aI6
aI6
aa(lp3201
I4
aI6
aI4
aI4
aI6
aI6
aa(lp3202
I4
aI6
aI4
aI4
aI6
aI6
aa(lp3203
I4
aI6
aI4
aI4
aI6
aI6
aa(lp3204
I6
aI4
aI4
aI6
aI6
aa(lp3205
I4
aI6
aI4
aI4
aI6
aI6
aa(lp3206
I4
aI6
aI4
aI4
aI6
aI6
aa(lp3207
I4
aI6
aI4
aI6
aI6
aa(lp3208
I4
aI6
aI4
aI6
aI6
aa(lp3209
I4
aI6
aI4
aI4
aI6
aI6
aa(lp3210
I4
aI6
aI4
aI4
aI6
aI6
aa(lp3211
I4
aI6
aI4
aI4
aI6
aI6
aa(lp3212
I4
aI6
aI4
aI4
aI6
aI6
aa(lp3213
I4
aI6
aI4
aI4
aI6
aI6
aa(lp3214
I4
aI6
aI4
aI4
aI6
aI6
aa(lp3215
I4
aI6
aI4
aI4
aI6
aI6
aa(lp3216
I4
aI6
aI4
aI4
aI6
aI6
aa(lp3217
I4
aI6
aI4
aI4
aI6
aI6
aa(lp3218
I4
aI6
aI4
aI4
aI6
aI6
aa(lp3219
I4
aI6
aI4
aI4
aI6
aI6
aa(lp3220
I4
aI6
aI4
aI4
aI6
aI6
aa(lp3221
I4
aI6
aI4
aI4
aI6
aI6
aa(lp3222
I4
aI6
aI4
aI4
aI6
aI6
aa(lp3223
I4
aI6
aI4
aI4
aI6
aI6
aa(lp3224
I4
aI6
aI4
aI4
aI6
aI6
aa(lp3225
I4
aI4
aI4
aI6
aI6
aa(lp3226
I4
aI4
aI4
aI6
aI6
aa(lp3227
I4
aI4
aI4
aI6
aI6
aa(lp3228
I4
aI4
aI4
aI6
aI6
aa(lp3229
I4
aI4
aI4
aI6
aI6
aa(lp3230
I4
aI6
aI4
aI4
aI6
aI6
aa(lp3231
I4
aI6
aI4
aI4
aI6
aI6
aa(lp3232
I4
aI6
aI4
aI4
aI6
aI6
aa(lp3233
I4
aI6
aI4
aI4
aI6
aI6
aa(lp3234
I4
aI6
aI4
aI4
aI6
aI6
aa(lp3235
I4
aI6
aI4
aI4
aI6
aI6
aa(lp3236
I4
aI4
aI4
aI6
aI6
aa(lp3237
I4
aI4
aI4
aI6
aI6
aa(lp3238
I4
aI4
aI4
aI6
aI6
aa(lp3239
I4
aI4
aI4
aI6
aI6
aa(lp3240
I4
aI4
aI4
aI6
aa(lp3241
I4
aI4
aI4
aI6
aI6
aa(lp3242
I4
aI4
aI4
aI6
aI6
aa(lp3243
I4
aI4
aI4
aI6
aI6
aa(lp3244
I4
aI4
aI6
aI6
aa(lp3245
I4
aI4
aI6
aI6
aa(lp3246
I4
aI4
aI6
aI6
aa(lp3247
I4
aI4
aI6
aI6
aa(lp3248
I4
aI4
aI6
aI6
aa(lp3249
I4
aI4
aI6
aI6
aa(lp3250
I4
aI4
aI6
aI6
aa(lp3251
I4
aI4
aI6
aI6
aa(lp3252
I4
aI4
aI6
aI6
aa(lp3253
I6
aI4
aI4
aI6
aI6
aa(lp3254
I6
aI4
aI4
aI6
aI6
aa(lp3255
I6
aI4
aI4
aI6
aI6
aa(lp3256
I6
aI4
aI4
aI6
aa(lp3257
I6
aI4
aI4
aI6
aa(lp3258
I6
aI4
aI4
aI6
aa(lp3259
I12
aI6
aI4
aa(lp3260
I12
aI6
aI4
aa(lp3261
I12
aI6
aI4
aa(lp3262
I12
aI6
aI4
aa(lp3263
I12
aI6
aI4
aa(lp3264
I12
aI6
aI4
aa(lp3265
I12
aI6
aI4
aa(lp3266
I12
aI6
aI6
aI4
aa(lp3267
I12
aI6
aI6
aI4
aa(lp3268
I12
aI6
aI6
aI4
aa(lp3269
I12
aI6
aI6
aI4
aa(lp3270
I12
aI6
aI6
aI4
aa(lp3271
I12
aI6
aI6
aI4
aa(lp3272
I12
aI6
aI6
aI4
aa(lp3273
I12
aI6
aI6
aI4
aa(lp3274
I12
aI6
aI6
aI4
aa(lp3275
I12
aI6
aI6
aI4
aa(lp3276
I12
aI6
aI6
aI4
aa(lp3277
I6
aI6
aI4
aa(lp3278
I6
aI6
aI4
aa(lp3279
I6
aI6
aI4
aa(lp3280
I6
aI6
aa(lp3281
I6
aI6
aa(lp3282
I6
aI6
aa(lp3283
I6
aI6
aa(lp3284
I6
aI6
aa(lp3285
I6
aI6
aa(lp3286
I6
aI6
aa(lp3287
I6
aI6
aa(lp3288
I6
aI6
aa(lp3289
I6
aI6
aa(lp3290
I6
aI6
aa(lp3291
I6
aI6
aa(lp3292
I6
aI6
aa(lp3293
I6
aI6
aa(lp3294
I6
aI6
aa(lp3295
I6
aI6
aa(lp3296
I6
aI4
aI6
aa(lp3297
I6
aI4
aI6
aa(lp3298
I6
aI4
aI6
aa(lp3299
I6
aI4
aI6
aa(lp3300
I6
aI4
aI6
aa(lp3301
I6
aI4
aI6
aa(lp3302
I6
aI4
aI6
aa(lp3303
I6
aI4
aI6
aa(lp3304
I6
aI4
aI6
aa(lp3305
I6
aI4
aI6
aa(lp3306
I6
aI4
aI6
aa(lp3307
I6
aI4
aI6
aa(lp3308
I6
aI4
aI6
aa(lp3309
I6
aI4
aI6
aa(lp3310
I6
aI4
aI6
aa(lp3311
I6
aI4
aI6
aa(lp3312
I6
aI4
aI6
aa(lp3313
I6
aI4
aI6
aa(lp3314
I6
aI4
aI6
aa(lp3315
I10
aI6
aI4
aI6
aa(lp3316
I6
aI4
aI6
aa(lp3317
I6
aI4
aI6
aa(lp3318
I6
aI4
aI6
aa(lp3319
I6
aI4
aI6
aa(lp3320
I6
aI4
aI6
aI6
aa(lp3321
I6
aI4
aI6
aI6
aa(lp3322
I6
aI4
aI6
aI6
aa(lp3323
I6
aI4
aI6
aI6
aa(lp3324
I6
aI4
aI6
aI6
aa(lp3325
I6
aI6
aI4
aI6
aI6
aa(lp3326
I6
aI6
aI4
aI6
aI6
aa(lp3327
I6
aI6
aI4
aI6
aI6
aa(lp3328
I6
aI6
aI4
aI6
aI6
aa(lp3329
I6
aI6
aI4
aI6
aI6
aa(lp3330
I6
aI6
aI4
aI6
aI6
aa(lp3331
I6
aI6
aI4
aI6
aI6
aa(lp3332
I6
aI6
aI4
aI6
aI6
aa(lp3333
I6
aI6
aI4
aI6
aI6
aa(lp3334
I6
aI6
aI4
aI6
aa(lp3335
I6
aI6
aI4
aI6
aa(lp3336
I6
aI6
aI4
aI6
aa(lp3337
I6
aI6
aI4
aI6
aa(lp3338
I6
aI6
aI4
aI6
aa(lp3339
I6
aI6
aI4
aI6
aa(lp3340
I6
aI6
aI4
aI6
aa(lp3341
I6
aI6
aI4
aI6
aa(lp3342
I6
aI6
aI4
aI6
aa(lp3343
I6
aI6
aI4
aI6
aa(lp3344
I6
aI6
aI4
aI6
aa(lp3345
I6
aI6
aI4
aI6
aa(lp3346
I6
aI6
aI4
aI6
aI6
aa(lp3347
I6
aI6
aI4
aI6
aI6
aa(lp3348
I6
aI6
aI4
aI6
aI6
aa(lp3349
I6
aI6
aI4
aI6
aI6
aa(lp3350
I6
aI6
aI4
aI6
aI6
aa(lp3351
I6
aI6
aI4
aI6
aI6
aa(lp3352
I6
aI6
aI4
aI6
aI6
aI6
aa(lp3353
I6
aI6
aI4
aI6
aI6
aI6
aa(lp3354
I6
aI6
aI4
aI6
aI6
aI6
aa(lp3355
I6
aI6
aI4
aI6
aI6
aI6
aa(lp3356
I6
aI6
aI4
aI6
aI6
aI6
aa(lp3357
I6
aI6
aI6
aI6
aa(lp3358
I6
aI6
aI6
aI6
aa(lp3359
I6
aI6
aI6
aI6
aa(lp3360
I6
aI6
aI6
aI6
aa(lp3361
I6
aI6
aI6
aa(lp3362
I6
aI6
aI6
aa(lp3363
I6
aI6
aa(lp3364
I6
aI6
aa(lp3365
I6
aI6
aI6
aa(lp3366
I6
aI6
aI6
aa(lp3367
I6
aI6
aI6
aa(lp3368
I6
aI6
aI6
aa(lp3369
I6
aI6
aI6
aa(lp3370
I6
aI6
aI6
aI6
aa(lp3371
I6
aI6
aI6
aI6
aa(lp3372
I6
aI6
aI6
aI6
aa(lp3373
I6
aI6
aI6
aI6
aa(lp3374
I6
aI6
aa(lp3375
I6
aI6
aI6
aa(lp3376
I6
aI6
aI6
aI6
aa(lp3377
I6
aI6
aI6
aI6
aa(lp3378
I6
aI6
aI6
aI6
aa(lp3379
I6
aI6
aI6
aI6
aa(lp3380
I6
aI6
aI6
aI6
aa(lp3381
I6
aI6
aI6
aI6
aI6
aa(lp3382
I6
aI6
aI6
aI6
aI6
aa(lp3383
I6
aI6
aI6
aI6
aa(lp3384
I6
aI6
aI6
aa(lp3385
I6
aI6
aI6
aa(lp3386
I6
aI6
aI8
aI6
aa(lp3387
I6
aI6
aI8
aI6
aa(lp3388
I6
aI8
aI6
aa(lp3389
I6
aI8
aI6
aa(lp3390
I6
aI8
aI6
aa(lp3391
I6
aI8
aI6
aa(lp3392
I6
aI8
aI6
aI6
aa(lp3393
I6
aI8
aI6
aI6
aI6
aa(lp3394
I6
aI8
aI6
aI6
aI6
aa(lp3395
I6
aI8
aI6
aI6
aI6
aa(lp3396
I6
aI8
aI6
aI6
aI6
aa(lp3397
I6
aI8
aI6
aI6
aa(lp3398
I6
aI8
aI6
aI6
aa(lp3399
I6
aI8
aI6
aI6
aa(lp3400
I6
aI8
aI6
aI6
aa(lp3401
I6
aI8
aI6
aI6
aa(lp3402
I6
aI8
aI6
aI6
aa(lp3403
I6
aI8
aI6
aI6
aa(lp3404
I6
aI8
aI6
aI6
aa(lp3405
I6
aI8
aI6
aI6
aa(lp3406
I6
aI8
aI6
aI6
aa(lp3407
I6
aI8
aI6
aI6
aa(lp3408
I6
aI8
aI6
aI6
aa(lp3409
I6
aI8
aI6
aI6
aa(lp3410
I6
aI8
aI6
aI6
aa(lp3411
I6
aI8
aI6
aI6
aa(lp3412
I6
aI8
aI6
aI6
aa(lp3413
I6
aI8
aI6
aI6
aa(lp3414
I6
aI8
aI6
aI6
aa(lp3415
I6
aI8
aI6
aI6
aa(lp3416
I6
aI8
aI6
aa(lp3417
I6
aI8
aI6
aa(lp3418
I8
aI6
aa(lp3419
I8
aI6
aa(lp3420
I6
aI8
aI6
aa(lp3421
I6
aI8
aI6
aa(lp3422
I6
aI8
aI6
aa(lp3423
I6
aI8
aI6
aa(lp3424
I6
aI8
aI6
aa(lp3425
I6
aI8
aI6
aa(lp3426
I6
aI8
aI6
aa(lp3427
I6
aI8
aI6
aa(lp3428
I6
aI8
aI6
aa(lp3429
I6
aI8
aI6
aa(lp3430
I6
aI8
aI6
aa(lp3431
I6
aI8
aI6
aa(lp3432
I6
aI8
aI6
aa(lp3433
I6
aI6
aI8
aI6
aa(lp3434
I6
aI6
aI8
aI6
aa(lp3435
I6
aI6
aI8
aI6
aa(lp3436
I6
aI6
aI8
aI10
aI6
aa(lp3437
I6
aI6
aI8
aI10
aI6
aa(lp3438
I6
aI6
aI8
aI10
aI6
aa(lp3439
I6
aI6
aI8
aI10
aI6
aa(lp3440
I6
aI6
aI8
aI10
aI6
aa(lp3441
I6
aI6
aI8
aI10
aI6
aa(lp3442
I6
aI6
aI8
aI10
aI6
aa(lp3443
I6
aI6
aI8
aI10
aI6
aa(lp3444
I6
aI6
aI8
aI10
aI6
aa(lp3445
I6
aI6
aI8
aI10
aI6
aa(lp3446
I6
aI6
aI8
aI10
aI6
aa(lp3447
I6
aI6
aI8
aI10
aI6
aa(lp3448
I6
aI8
aI10
aI6
aa(lp3449
I6
aI8
aI10
aI6
aa(lp3450
I8
aI10
aI6
aa(lp3451
I10
aI6
aa(lp3452
I10
aI6
aa(lp3453
I10
aI6
aa(lp3454
I10
aI6
aa(lp3455
I10
aI6
aa(lp3456
I10
aI6
aa(lp3457
I10
aI6
aa(lp3458
I10
aa(lp3459
I10
aa(lp3460
I10
aa(lp3461
I10
aa(lp3462
I10
aa(lp3463
I10
aa(lp3464
I10
aa(lp3465
I10
aa(lp3466
I10
aa(lp3467
I10
aa(lp3468
I8
aI10
aa(lp3469
I10
aa(lp3470
I10
aa(lp3471
I10
aa(lp3472
a(lp3473
a(lp3474
a(lp3475
a(lp3476
a(lp3477
a(lp3478
a(lp3479
a(lp3480
a(lp3481
a(lp3482
a(lp3483
a(lp3484
a(lp3485
a(lp3486
a(lp3487
a(lp3488
a(lp3489
a(lp3490
a(lp3491
a(lp3492
a(lp3493
a(lp3494
a(lp3495
a(lp3496
a(lp3497
a(lp3498
a(lp3499
a(lp3500
a(lp3501
a(lp3502
a(lp3503
a(lp3504
a(lp3505
a(lp3506
a(lp3507
a(lp3508
a(lp3509
a(lp3510
a(lp3511
a(lp3512
a(lp3513
a(lp3514
a(lp3515
a(lp3516
a(lp3517
a(lp3518
a(lp3519
a(lp3520
a(lp3521
I6
aa(lp3522
I6
aa(lp3523
I6
aa(lp3524
I6
aa(lp3525
I6
aa(lp3526
I6
aa(lp3527
I6
aa(lp3528
I6
aI6
aa(lp3529
I6
aI6
aa(lp3530
I6
aI6
aa(lp3531
I6
aI6
aa(lp3532
I6
aI6
aa(lp3533
I6
aa(lp3534
I6
aa(lp3535
I6
aa(lp3536
I6
aa(lp3537
I6
aa(lp3538
I6
aa(lp3539
a(lp3540
a(lp3541
a(lp3542
a(lp3543
a(lp3544
a(lp3545
a(lp3546
a(lp3547
a(lp3548
a(lp3549
a(lp3550
a(lp3551
a(lp3552
a(lp3553
a(lp3554
a(lp3555
a(lp3556
a(lp3557
a(lp3558
a(lp3559
a(lp3560
a(lp3561
a(lp3562
a(lp3563
a(lp3564
a(lp3565
a(lp3566
a(lp3567
a(lp3568
a(lp3569
a(lp3570
a(lp3571
a(lp3572
a(lp3573
a(lp3574
a(lp3575
a(lp3576
a(lp3577
a(lp3578
a(lp3579
a(lp3580
a(lp3581
a(lp3582
a(lp3583
a(lp3584
a(lp3585
a(lp3586
a(lp3587
a(lp3588
a(lp3589
a(lp3590
a(lp3591
a(lp3592
a(lp3593
I10
aa(lp3594
I10
aa(lp3595
I10
aa(lp3596
I10
aa(lp3597
I10
aa(lp3598
I12
aI10
aa(lp3599
I12
aI10
aa(lp3600
I12
aI10
aa(lp3601
I12
aI10
aa(lp3602
I12
aI10
aa(lp3603
I12
aI10
aa(lp3604
I12
aI10
aa(lp3605
I12
aI10
aa(lp3606
I12
aI10
aa(lp3607
I12
aI10
aa(lp3608
I12
aI10
aa(lp3609
I12
aI10
aa(lp3610
I12
aI10
aa(lp3611
I12
aI10
aa(lp3612
I10
aa(lp3613
I10
aa(lp3614
I10
aa(lp3615
I10
aa(lp3616
I10
aa(lp3617
I10
aa(lp3618
I10
aa(lp3619
I10
aa(lp3620
I10
aa(lp3621
I10
aa(lp3622
I10
aa(lp3623
I10
aa(lp3624
I10
aa(lp3625
I16
aI10
aa(lp3626
I16
aI10
aa(lp3627
I16
aI10
aa(lp3628
I16
aI10
aI4
aa(lp3629
I16
aI10
aI4
aa(lp3630
I16
aI10
aI4
aa(lp3631
I16
aI10
aI4
aa(lp3632
I16
aI10
aI4
aa(lp3633
I16
aI10
aI4
aa(lp3634
I16
aI10
aI4
aa(lp3635
I16
aI10
aI4
aa(lp3636
I16
aI10
aI4
aa(lp3637
I16
aI4
aa(lp3638
I16
aI4
aa(lp3639
I16
aI4
aa(lp3640
I16
aI8
aI4
aa(lp3641
I16
aI10
aI8
aI4
aa(lp3642
I16
aI10
aI8
aI4
aa(lp3643
I16
aI10
aI8
aI4
aa(lp3644
I16
aI10
aI8
aI4
aa(lp3645
I16
aI10
aI8
aa(lp3646
I16
aI10
aI8
aa(lp3647
I16
aI10
aI8
aa(lp3648
I16
aI8
aa(lp3649
I8
aa(lp3650
I8
aa(lp3651
I4
aI8
aa(lp3652
I4
aI8
aa(lp3653
I4
aI8
aa(lp3654
I16
aI4
aI8
aa(lp3655
I16
aI4
aI8
aa(lp3656
I16
aI4
aI8
aa(lp3657
I16
aI4
aI4
aa(lp3658
I16
aI4
aI4
aa(lp3659
I16
aI4
aI4
aa(lp3660
I16
aI4
aI4
aa(lp3661
I16
aI4
aa(lp3662
I16
aI4
aa(lp3663
I16
aI4
aa(lp3664
I16
aI4
aa(lp3665
I16
aI4
aa(lp3666
I16
aI4
aI12
aa(lp3667
I16
aI4
aI12
aa(lp3668
I16
aI4
aI12
aa(lp3669
I16
aI4
aI12
aI6
aa(lp3670
I16
aI4
aI12
aI6
aa(lp3671
I16
aI4
aI12
aI6
aa(lp3672
I16
aI4
aI12
aI6
aa(lp3673
I4
aI12
aa(lp3674
I4
aI12
aa(lp3675
I4
aI12
aa(lp3676
I4
aI12
aa(lp3677
I4
aI12
aa(lp3678
I4
aI12
aa(lp3679
I4
aa(lp3680
I4
aa(lp3681
I4
aI6
aa(lp3682
I4
aI6
aa(lp3683
I4
aI6
aa(lp3684
I4
aI6
aa(lp3685
I4
aI6
aa(lp3686
I4
aI6
aa(lp3687
I4
aI6
aa(lp3688
I4
aI6
aa(lp3689
I4
aI6
aa(lp3690
I4
aI6
aa(lp3691
I4
aI6
aa(lp3692
I4
aI6
aa(lp3693
I4
aI6
aa(lp3694
I4
aI6
aa(lp3695
I4
aI6
aa(lp3696
I4
aI6
aa(lp3697
I4
aI6
aa(lp3698
I4
aI6
aa(lp3699
I4
aI6
aa(lp3700
I4
aI6
aa(lp3701
I4
aI6
aa(lp3702
I4
aI8
aI6
aa(lp3703
I4
aI8
aI6
aa(lp3704
I4
aI8
aI6
aa(lp3705
I4
aI8
aI6
aa(lp3706
I4
aI8
aI6
aa(lp3707
I4
aI8
aI6
aa(lp3708
I4
aI8
aI6
aa(lp3709
I4
aI8
aI6
aa(lp3710
I4
aI8
aI6
aa(lp3711
I4
aI8
aI6
aa(lp3712
I4
aI8
aI6
aa(lp3713
I4
aI8
aI6
aa(lp3714
I4
aI8
aI6
aa(lp3715
I4
aI8
aI6
aa(lp3716
I4
aI8
aI6
aa(lp3717
I4
aI8
aI6
aa(lp3718
I4
aI8
aI6
aa(lp3719
I4
aI8
aI6
aa(lp3720
I4
aI8
aI6
aa(lp3721
I4
aI8
aI6
aa(lp3722
I4
aI8
aI6
aa(lp3723
I4
aI8
aI6
aa(lp3724
I4
aI8
aI6
aa(lp3725
I4
aI8
aI6
aa(lp3726
I4
aI8
aI6
aa(lp3727
I4
aI8
aI6
aa(lp3728
I4
aI4
aI8
aI6
aa(lp3729
I4
aI4
aI8
aI6
aa(lp3730
I4
aI4
aI8
aI6
aa(lp3731
I4
aI4
aI8
aI6
aa(lp3732
I4
aI4
aI8
aI6
aa(lp3733
I4
aI4
aI8
aI6
aa(lp3734
I4
aI4
aI8
aI6
aa(lp3735
I4
aI4
aI8
aI6
aa(lp3736
I4
aI4
aI8
aI6
aa(lp3737
I4
aI4
aI8
aI6
aa(lp3738
I4
aI4
aI8
aI6
aa(lp3739
I4
aI4
aI6
aa(lp3740
I4
aI4
aI8
aI6
aa(lp3741
I4
aI4
aI12
aI8
aI6
aa(lp3742
I4
aI4
aI12
aI8
aI6
aa(lp3743
I4
aI4
aI12
aI8
aI6
aa(lp3744
I4
aI4
aI12
aI8
aI6
aa(lp3745
I4
aI4
aI12
aI8
aI6
aa(lp3746
I4
aI4
aI12
aI8
aI6
aa(lp3747
I4
aI4
aI12
aI8
aI6
aa(lp3748
I4
aI4
aI12
aI8
aI6
aa(lp3749
I4
aI4
aI12
aI8
aI6
aa(lp3750
I4
aI4
aI12
aI8
aI6
aa(lp3751
I4
aI4
aI12
aI8
aI6
aa(lp3752
I4
aI4
aI12
aI8
aI6
aa(lp3753
I4
aI4
aI12
aI8
aI6
aa(lp3754
I4
aI4
aI12
aI8
aI6
aa(lp3755
I4
aI4
aI12
aI8
aI6
aa(lp3756
I4
aI4
aI12
aI8
aI6
aa(lp3757
I4
aI4
aI12
aI8
aI6
aa(lp3758
I4
aI4
aI12
aI8
aI6
aa(lp3759
I4
aI4
aI8
aI6
aa(lp3760
I4
aI4
aI8
aI6
aa(lp3761
I4
aI4
aI8
aI6
aa(lp3762
I4
aI4
aI12
aI8
aI6
aa(lp3763
I4
aI4
aI12
aI8
aI6
aa(lp3764
I4
aI4
aI12
aI8
aI6
aa(lp3765
I4
aI4
aI12
aI8
aI6
aa(lp3766
I4
aI4
aI12
aI8
aI6
aa(lp3767
I4
aI4
aI12
aI8
aI6
aa(lp3768
I4
aI4
aI12
aI8
aI6
aa(lp3769
I4
aI4
aI12
aI8
aI6
aa(lp3770
I4
aI4
aI12
aI8
aI6
aa(lp3771
I4
aI4
aI12
aI8
aI6
aa(lp3772
I4
aI4
aI12
aI8
aI6
aa(lp3773
I4
aI4
aI4
aI12
aI8
aI6
aa(lp3774
I4
aI4
aI4
aI12
aI8
aI6
aa(lp3775
I4
aI4
aI4
aI12
aI8
aI6
aa(lp3776
I16
aI4
aI4
aI4
aI12
aI8
aI6
aa(lp3777
I16
aI4
aI4
aI4
aI8
aI6
aa(lp3778
I16
aI4
aI4
aI4
aI12
aI8
aI6
aa(lp3779
I16
aI4
aI4
aI4
aI12
aI8
aI6
aa(lp3780
I16
aI4
aI4
aI4
aI12
aI8
aI6
aa(lp3781
I16
aI4
aI4
aI4
aI12
aI8
aI6
aa(lp3782
I16
aI4
aI4
aI4
aI12
aI8
aI6
aa(lp3783
I16
aI4
aI4
aI4
aI12
aI8
aI6
aa(lp3784
I16
aI4
aI4
aI4
aI12
aI8
aI6
aa(lp3785
I16
aI4
aI4
aI4
aI12
aI8
aI6
aa(lp3786
I16
aI4
aI4
aI4
aI12
aI8
aI6
aa(lp3787
I16
aI4
aI4
aI4
aI12
aI8
aI6
aa(lp3788
I16
aI4
aI4
aI4
aI12
aI6
aa(lp3789
I16
aI4
aI4
aI4
aI12
aI6
aa(lp3790
I16
aI4
aI4
aI4
aI12
aI6
aa(lp3791
I16
aI4
aI4
aI4
aI12
aI6
aa(lp3792
I16
aI4
aI4
aI4
aI6
aa(lp3793
I16
aI4
aI4
aI4
aI6
aa(lp3794
I16
aI4
aI4
aI4
aI6
aa(lp3795
I16
aI4
aI4
aI4
aI6
aa(lp3796
I16
aI4
aI4
aI6
aa(lp3797
I16
aI4
aI4
aI6
aa(lp3798
I16
aI4
aI4
aI6
aa(lp3799
I4
aI4
aI14
aI6
aa(lp3800
I4
aI4
aI14
aI6
aa(lp3801
I4
aI4
aI14
aI6
aa(lp3802
I16
aI4
aI4
aI14
aI6
aa(lp3803
I16
aI4
aI4
aI14
aI6
aa(lp3804
I16
aI4
aI4
aI14
aI6
aa(lp3805
I16
aI4
aI4
aI14
aI6
aa(lp3806
I16
aI4
aI4
aI14
aI6
aa(lp3807
I16
aI4
aI4
aI14
aI6
aa(lp3808
I16
aI4
aI4
aI14
aI6
aa(lp3809
I4
aI4
aI8
aI6
aa(lp3810
I4
aI4
aI8
aI6
aa(lp3811
I4
aI4
aI8
aI6
aa(lp3812
I4
aI8
aa(lp3813
I4
aI8
aa(lp3814
I4
aI8
aa(lp3815
I8
aa(lp3816
I8
aa(lp3817
a(lp3818
I4
aa(lp3819
I4
aa(lp3820
I4
aI6
aa(lp3821
I16
aI4
aI6
aa(lp3822
I16
aI4
aI6
aa(lp3823
I16
aI4
aI6
aa(lp3824
I16
aI4
aI4
aa(lp3825
I16
aI4
aI4
aI6
aa(lp3826
I16
aI4
aI4
aI6
aa(lp3827
I16
aI8
aI4
aI4
aI8
aI6
aa(lp3828
I8
aI4
aI8
aI6
aa(lp3829
I8
aI4
aI8
aI6
aa(lp3830
I16
aI8
aI4
aI4
aI8
aa(lp3831
I8
aI4
aI4
aI8
aa(lp3832
I8
aI4
aI4
aI8
aa(lp3833
I8
aI4
aI4
aI8
aa(lp3834
I8
aI4
aI4
aI8
aa(lp3835
I4
aI4
aI8
aa(lp3836
I4
aI4
aI8
aa(lp3837
I4
aI4
aa(lp3838
I4
aI4
aa(lp3839
I4
aI4
aa(lp3840
I4
aI4
aa(lp3841
I4
aI4
aa(lp3842
I4
aI4
aa(lp3843
I4
aI4
aa(lp3844
I4
aI4
aI10
aa(lp3845
I4
aI4
aI10
aa(lp3846
I4
aI4
aI10
aa(lp3847
I4
aI4
aI10
aa(lp3848
I4
aI4
aI10
aa(lp3849
I4
aI10
aa(lp3850
I4
aI10
aa(lp3851
I4
aI10
aa(lp3852
I4
aI10
aa(lp3853
I10
aa(lp3854
I10
aa(lp3855
I4
aI10
aa(lp3856
I4
aI10
aa(lp3857
I4
aI10
aa(lp3858
I4
aI10
aa(lp3859
I4
aI10
aa(lp3860
I4
aI10
aa(lp3861
I4
aI14
aI10
aa(lp3862
I4
aI14
aI10
aa(lp3863
I4
aI14
aI10
aa(lp3864
I4
aI14
aI10
aa(lp3865
I4
aI14
aI10
aa(lp3866
I4
aI14
aI10
aa(lp3867
I4
aI14
aI10
aa(lp3868
I4
aI14
aI10
aa(lp3869
I4
aI14
aI10
aa(lp3870
I4
aI14
aI10
aa(lp3871
I4
aI10
aa(lp3872
I4
aI10
aa(lp3873
I10
aa(lp3874
I10
aa(lp3875
I10
aa(lp3876
I10
aa(lp3877
I10
aa(lp3878
I10
aa(lp3879
I10
aa(lp3880
I10
aa(lp3881
I10
aa(lp3882
I14
aI10
aI10
aa(lp3883
I10
aI10
aa(lp3884
I10
aI10
aa(lp3885
I10
aI6
aI10
aa(lp3886
I10
aI6
aI10
aa(lp3887
I10
aI6
aI10
aa(lp3888
I10
aI6
aI10
aa(lp3889
I14
aI10
aI6
aa(lp3890
I14
aI10
aI6
aa(lp3891
I14
aI10
aI6
aa(lp3892
I14
aI10
aI6
aa(lp3893
I14
aI10
aI6
aa(lp3894
I14
aI10
aI6
aa(lp3895
I14
aI10
aI6
aa(lp3896
I22
aI14
aI10
aI6
aa(lp3897
I16
aI22
aI14
aI10
aI6
aa(lp3898
I16
aI22
aI14
aI10
aI6
aa(lp3899
I16
aI22
aI14
aI10
aI6
aa(lp3900
I16
aI22
aI14
aI10
aI6
aa(lp3901
I16
aI4
aI14
aI10
aI6
aa(lp3902
I16
aI4
aI22
aI14
aI10
aI6
aa(lp3903
I16
aI4
aI22
aI14
aI10
aa(lp3904
I16
aI4
aI22
aI14
aI10
aa(lp3905
I16
aI4
aI22
aI10
aa(lp3906
I16
aI4
aI22
aI10
aa(lp3907
I16
aI4
aI22
aI10
aa(lp3908
I16
aI4
aI22
aI6
aI10
aa(lp3909
I16
aI4
aI22
aI6
aI10
aI6
aa(lp3910
I16
aI4
aI22
aI6
aI10
aI6
aa(lp3911
I16
aI4
aI22
aI6
aI10
aI6
aa(lp3912
I16
aI4
aI22
aI6
aI6
aa(lp3913
I16
aI4
aI22
aI6
aI6
aa(lp3914
I4
aI22
aI6
aI10
aI6
aa(lp3915
I22
aI10
aI6
aa(lp3916
I22
aI10
aI6
aa(lp3917
I10
aI6
aa(lp3918
I10
aI6
aa(lp3919
I10
aa(lp3920
I10
aa(lp3921
I10
aa(lp3922
I10
aa(lp3923
I10
aa(lp3924
I10
aI6
aa(lp3925
I10
aI6
aa(lp3926
I6
aa(lp3927
I6
aa(lp3928
I6
aa(lp3929
I6
aa(lp3930
I6
aa(lp3931
I6
aa(lp3932
I6
aa(lp3933
I4
aI6
aa(lp3934
I12
aI4
aI6
aa(lp3935
I12
aI4
aI6
aa(lp3936
I12
aI10
aI4
aI6
aa(lp3937
I12
aI10
aI10
aI6
aa(lp3938
I12
aI10
aI6
aa(lp3939
I12
aI10
aI6
aa(lp3940
I12
aI10
aI10
aI6
aa(lp3941
I12
aI10
aI10
aI6
aa(lp3942
I12
aI10
aI10
aI6
aa(lp3943
I12
aI4
aI10
aI6
aa(lp3944
I12
aI4
aI10
aI6
aa(lp3945
I12
aI4
aI10
aI6
aa(lp3946
I12
aI4
aI10
aI6
aa(lp3947
I12
aI4
aI10
aI6
aa(lp3948
I12
aI4
aI10
aI6
aa(lp3949
I4
aI10
aI6
aa(lp3950
I4
aI10
aI6
aa(lp3951
I4
aI10
aI6
aa(lp3952
I4
aI10
aI6
aa(lp3953
I4
aI10
aI6
aa(lp3954
I4
aI10
aI6
aa(lp3955
I16
aI4
aI10
aI6
aa(lp3956
I16
aI4
aI10
aI6
aa(lp3957
I16
aI4
aI10
aI6
aa(lp3958
I12
aI16
aI4
aI10
aI8
aI6
aa(lp3959
I12
aI16
aI4
aI10
aI8
aI6
aa(lp3960
I12
aI16
aI4
aI10
aI8
aI6
aa(lp3961
I12
aI16
aI4
aI10
aI8
aI6
aI4
aa(lp3962
I12
aI16
aI4
aI10
aI8
aI6
aI4
aa(lp3963
I12
aI16
aI4
aI10
aI8
aI6
aI4
aa(lp3964
I12
aI4
aI10
aI8
aI6
aI4
aa(lp3965
I12
aI4
aI10
aI8
aI6
aI4
aa(lp3966
I12
aI4
aI10
aI8
aI6
aI4
aa(lp3967
I12
aI4
aI10
aI8
aI6
aI4
aa(lp3968
I12
aI4
aI8
aI6
aI4
aa(lp3969
I12
aI4
aI8
aI6
aI4
aa(lp3970
I12
aI4
aI8
aI6
aI4
aa(lp3971
I12
aI4
aI8
aI6
aI4
aa(lp3972
I12
aI4
aI8
aI6
aI4
aa(lp3973
I12
aI4
aI6
aI4
aa(lp3974
I12
aI4
aI8
aI6
aI4
aa(lp3975
I12
aI4
aI8
aI6
aI4
aa(lp3976
I12
aI4
aI8
aI6
aI4
aa(lp3977
I12
aI4
aI8
aI6
aI4
aa(lp3978
I4
aI8
aI6
aI4
aa(lp3979
I8
aI6
aI4
aa(lp3980
I6
aI4
aa(lp3981
I12
aI6
aI4
aa(lp3982
I12
aI6
aI4
aa(lp3983
I12
aI6
aI4
aa(lp3984
I12
aI6
aI4
aa(lp3985
I12
aI6
aa(lp3986
I12
aa(lp3987
I12
aa(lp3988
I12
aI6
aa(lp3989
I12
aI6
aa(lp3990
I12
aI6
aa(lp3991
I12
aI6
aa(lp3992
I12
aI6
aa(lp3993
I12
aI6
aa(lp3994
I12
aI6
aa(lp3995
I12
aI6
aa(lp3996
I12
aI6
aa(lp3997
I12
aI6
aa(lp3998
I12
aI6
aa(lp3999
I12
aI6
aa(lp4000
I12
aI6
aa(lp4001
I12
aI6
aa(lp4002
I12
aI6
aa(lp4003
I12
aI6
aa(lp4004
I12
aI6
aa(lp4005
I6
aa(lp4006
I6
aa(lp4007
I6
aa(lp4008
I6
aa(lp4009
I6
aa(lp4010
I6
aa(lp4011
I6
aa(lp4012
I6
aa(lp4013
I8
aI6
aa(lp4014
I8
aI6
aa(lp4015
I8
aa(lp4016
I8
aa(lp4017
I8
aa(lp4018
I8
aa(lp4019
I8
aa(lp4020
I8
aI4
aa(lp4021
I8
aI4
aa(lp4022
I8
aI4
aa(lp4023
I8
aI4
aa(lp4024
I8
aI4
aa(lp4025
I8
aI4
aa(lp4026
I8
aI4
aa(lp4027
I4
aa(lp4028
I4
aa(lp4029
I4
aa(lp4030
I8
aI4
aa(lp4031
I8
aI4
aa(lp4032
I4
aa(lp4033
I4
aa(lp4034
I4
aa(lp4035
I4
aa(lp4036
I4
aa(lp4037
I4
aa(lp4038
I4
aa(lp4039
I4
aa(lp4040
I8
aI4
aa(lp4041
I8
aI4
aa(lp4042
I8
aI4
aa(lp4043
I4
aI8
aI4
aa(lp4044
I4
aI4
aa(lp4045
I4
aa(lp4046
I4
aa(lp4047
I4
aa(lp4048
I4
aa(lp4049
I4
aa(lp4050
I4
aa(lp4051
I4
aa(lp4052
I4
aa(lp4053
I4
aa(lp4054
I4
aI6
aI14
aa(lp4055
I4
aI6
aa(lp4056
I4
aI6
aa(lp4057
I4
aI6
aa(lp4058
I4
aa(lp4059
I4
aa(lp4060
I4
aa(lp4061
I4
aa(lp4062
I4
aa(lp4063
I4
aI4
aa(lp4064
I4
aI4
aa(lp4065
I4
aI4
aa(lp4066
I4
aa(lp4067
I4
aI6
aa(lp4068
I4
aI6
aa(lp4069
I4
aI6
aa(lp4070
I4
aI6
aa(lp4071
I4
aa(lp4072
I4
aa(lp4073
I4
aa(lp4074
I4
aa(lp4075
I4
aa(lp4076
I4
aa(lp4077
I4
aa(lp4078
I4
aa(lp4079
I4
aa(lp4080
I4
aI6
aa(lp4081
I4
aI6
aa(lp4082
I4
aI6
aa(lp4083
I4
aI6
aa(lp4084
I4
aI6
aa(lp4085
I4
aI6
aa(lp4086
I4
aI6
aa(lp4087
I4
aI6
aa(lp4088
I4
aI6
aa(lp4089
I4
aI6
aa(lp4090
I4
aI6
aa(lp4091
I4
aI6
aa(lp4092
I4
aI6
aa(lp4093
I4
aI6
aa(lp4094
I4
aI6
aa(lp4095
I4
aI6
aa(lp4096
I4
aI6
aa(lp4097
I4
aI6
aa(lp4098
I4
aI6
aa(lp4099
I4
aI6
aa(lp4100
I4
aI6
aa(lp4101
I4
aI6
aa(lp4102
I4
aI6
aa(lp4103
I4
aI6
aa(lp4104
I4
aI6
aa(lp4105
I4
aI4
aI6
aa(lp4106
I4
aI4
aI6
aa(lp4107
I4
aI4
aI6
aa(lp4108
I4
aI4
aI6
aa(lp4109
I4
aI4
aI6
aa(lp4110
I4
aI4
aI6
aa(lp4111
I4
aI4
aI6
aa(lp4112
I4
aI4
aI6
aa(lp4113
I4
aI4
aI6
aa(lp4114
I4
aI4
aI6
aa(lp4115
I4
aI4
aI6
aa(lp4116
I4
aI4
aI6
aa(lp4117
I4
aI4
aI6
aa(lp4118
I4
aI4
aI6
aa(lp4119
I4
aI4
aI6
aa(lp4120
I4
aI4
aI6
aa(lp4121
I4
aI4
aI6
aa(lp4122
I4
aI4
aI6
aa(lp4123
I4
aI4
aI6
aa(lp4124
I4
aI4
aI6
aa(lp4125
I4
aI4
aI6
aa(lp4126
I4
aI4
aI6
aI6
aa(lp4127
I4
aI4
aI6
aI6
aa(lp4128
I4
aI4
aI6
aI6
aa(lp4129
I4
aI4
aI6
aI6
aa(lp4130
I4
aI4
aI6
aI6
aa(lp4131
I4
aI4
aI6
aI6
aa(lp4132
I4
aI4
aI6
aa(lp4133
I4
aI4
aI6
aa(lp4134
I4
aI4
aI6
aa(lp4135
I4
aI4
aI6
aa(lp4136
I4
aI4
aI6
aI6
aa(lp4137
I4
aI4
aI6
aI6
aa(lp4138
I4
aI4
aI6
aI6
aa(lp4139
I4
aI4
aI6
aI6
aa(lp4140
I4
aI4
aI6
aI6
aa(lp4141
I4
aI4
aI6
aI6
aa(lp4142
I4
aI4
aI6
aI6
aa(lp4143
I4
aI4
aI6
aI6
aa(lp4144
I4
aI4
aI8
aI6
aI6
aa(lp4145
I4
aI4
aI8
aI6
aI6
aa(lp4146
I4
aI4
aI8
aI6
aI6
aa(lp4147
I4
aI4
aI6
aI6
aa(lp4148
I4
aI4
aI6
aI6
aa(lp4149
I4
aI6
aI6
aa(lp4150
I4
aa(lp4151
I4
aa(lp4152
I4
aa(lp4153
I4
aa(lp4154
I4
aa(lp4155
I4
aa(lp4156
I4
aa(lp4157
I4
aa(lp4158
I4
aa(lp4159
I4
aa(lp4160
I4
aa(lp4161
I4
aa(lp4162
I4
aa(lp4163
I4
aI6
aa(lp4164
I4
aI6
aa(lp4165
I4
aI6
aa(lp4166
I4
aI6
aa(lp4167
I4
aI6
aa(lp4168
I4
aI6
aa(lp4169
I4
aI6
aa(lp4170
I4
aI6
aa(lp4171
I4
aI6
aa(lp4172
I4
aI6
aa(lp4173
I4
aI6
aa(lp4174
I4
aI6
aa(lp4175
I4
aa(lp4176
I4
aa(lp4177
I4
aI6
aa(lp4178
I4
aa(lp4179
I4
aa(lp4180
I4
aa(lp4181
I4
aa(lp4182
I4
aa(lp4183
I4
aa(lp4184
I4
aa(lp4185
I4
aa(lp4186
I4
aa(lp4187
I4
aa(lp4188
I4
aa(lp4189
I4
aa(lp4190
I4
aa(lp4191
I4
aa(lp4192
I4
aa(lp4193
I4
aa(lp4194
I4
aa(lp4195
I4
aa(lp4196
I4
aa(lp4197
I4
aa(lp4198
I4
aa(lp4199
I4
aa(lp4200
I4
aa(lp4201
I4
aa(lp4202
I4
aa(lp4203
I4
aa(lp4204
I4
aa(lp4205
I4
aa(lp4206
I4
aa(lp4207
I4
aa(lp4208
I4
aa(lp4209
I4
aa(lp4210
I4
aa(lp4211
I4
aa(lp4212
I4
aa(lp4213
I4
aa(lp4214
I4
aa(lp4215
I4
aa(lp4216
I4
aa(lp4217
I4
aa(lp4218
I4
aa(lp4219
I4
aa(lp4220
I4
aa(lp4221
I4
aa(lp4222
I4
aa(lp4223
I4
aa(lp4224
I4
aa(lp4225
I4
aa(lp4226
I4
aa(lp4227
a(lp4228
a(lp4229
a(lp4230
I6
aa(lp4231
I4
aI6
aa(lp4232
I4
aI6
aa(lp4233
I4
aI6
aa(lp4234
I4
aI6
aa(lp4235
I4
aI6
aa(lp4236
I4
aI6
aa(lp4237
I4
aa(lp4238
I4
aI6
aa(lp4239
I4
aI6
aa(lp4240
I4
aa(lp4241
I4
aa(lp4242
I4
aa(lp4243
I4
aa(lp4244
I4
aa(lp4245
I4
aa(lp4246
I4
aa(lp4247
I4
aa(lp4248
I4
aa(lp4249
I4
aa(lp4250
I4
aa(lp4251
I4
aa(lp4252
I4
aa(lp4253
I4
aa(lp4254
I4
aI8
aa(lp4255
I8
aa(lp4256
I8
aa(lp4257
I8
aa(lp4258
I8
aa(lp4259
I8
aa(lp4260
I8
aa(lp4261
I8
aa(lp4262
I8
aa(lp4263
I8
aa(lp4264
I8
aa(lp4265
I8
aa(lp4266
I8
aa(lp4267
I8
aa(lp4268
I8
aa(lp4269
I8
aa(lp4270
I8
aa(lp4271
I8
aa(lp4272
I8
aa(lp4273
I8
aa(lp4274
I8
aa(lp4275
I8
aa(lp4276
I8
aa(lp4277
I8
aa(lp4278
I8
aa(lp4279
I8
aa(lp4280
I8
aa(lp4281
I8
aa(lp4282
I8
aa(lp4283
I8
aa(lp4284
I8
aa(lp4285
I8
aa(lp4286
I8
aa(lp4287
I8
aa(lp4288
I8
aa(lp4289
I8
aa(lp4290
I8
aa(lp4291
I8
aa(lp4292
a(lp4293
a(lp4294
a(lp4295
a(lp4296
I8
aa(lp4297
a(lp4298
a(lp4299
a(lp4300
a(lp4301
a(lp4302
a(lp4303
a(lp4304
a(lp4305
I8
aa(lp4306
I6
aI8
aa(lp4307
I6
aI8
aa(lp4308
I6
aI8
aa(lp4309
I6
aI8
aa(lp4310
I6
aI8
aa(lp4311
I6
aI8
aa(lp4312
I6
aI8
aa(lp4313
I6
aI8
aa(lp4314
I6
aI8
aa(lp4315
I6
aI8
aa(lp4316
I6
aI8
aa(lp4317
I6
aI8
aa(lp4318
I6
aI8
aa(lp4319
I6
aI8
aa(lp4320
I6
aI8
aa(lp4321
I6
aI8
aa(lp4322
I6
aI8
aa(lp4323
I6
aI8
aa(lp4324
I6
aI8
aa(lp4325
I6
aI8
aa(lp4326
I6
aI8
aa(lp4327
I8
aa(lp4328
I8
aa(lp4329
I6
aI8
aa(lp4330
I6
aI8
aa(lp4331
I6
aI8
aa(lp4332
I6
aI8
aa(lp4333
I6
aI8
aa(lp4334
I6
aI8
aa(lp4335
I6
aI8
aa(lp4336
I6
aa(lp4337
I6
aa(lp4338
I6
aI8
aa(lp4339
I6
aI8
aI8
aa(lp4340
I6
aI8
aI8
aa(lp4341
I6
aI8
aI8
aa(lp4342
I6
aI8
aI8
aa(lp4343
I6
aI8
aI8
aa(lp4344
I6
aI4
aI6
aI8
aI8
aa(lp4345
I6
aI4
aI6
aI8
aI8
aa(lp4346
I6
aI4
aI6
aI8
aI8
aa(lp4347
I6
aI4
aI6
aI8
aI8
aa(lp4348
I6
aI4
aI6
aI8
aI8
aa(lp4349
I6
aI4
aI6
aI8
aI8
aa(lp4350
I6
aI4
aI6
aI8
aI8
aa(lp4351
I6
aI4
aI6
aI8
aI8
aa(lp4352
I6
aI4
aI6
aI8
aI8
aa(lp4353
I6
aI4
aI6
aI8
aI8
aa(lp4354
I6
aI4
aI6
aI8
aI8
aa(lp4355
I6
aI4
aI6
aI8
aI8
aa(lp4356
I6
aI4
aI8
aI8
aa(lp4357
I6
aI4
aI8
aI8
aa(lp4358
I6
aI4
aI8
aI8
aa(lp4359
I6
aI4
aI6
aI8
aI8
aa(lp4360
I6
aI4
aI6
aI8
aI8
aa(lp4361
I6
aI4
aI6
aI8
aI8
aI4
aa(lp4362
I6
aI4
aI6
aI8
aI8
aI4
aa(lp4363
I6
aI4
aI6
aI8
aI8
aI4
aa(lp4364
I6
aI4
aI6
aI8
aI8
aI4
aa(lp4365
I6
aI4
aI6
aI8
aI8
aI4
aa(lp4366
I6
aI4
aI6
aI8
aI8
aI4
aa(lp4367
I6
aI4
aI6
aI8
aI8
aI4
aa(lp4368
I6
aI4
aI6
aI8
aI8
aI4
aa(lp4369
I6
aI4
aI6
aI8
aI8
aI4
aa(lp4370
I6
aI4
aI6
aI8
aI8
aI4
aa(lp4371
I6
aI4
aI8
aI8
aI4
aa(lp4372
I6
aI4
aI8
aI8
aI4
aa(lp4373
I6
aI4
aI8
aI8
aI8
aI4
aa(lp4374
I4
aI8
aI8
aI4
aa(lp4375
I8
aI4
aI8
aI4
aa(lp4376
I8
aI6
aI4
aI8
aI6
aI4
aa(lp4377
I8
aI6
aI4
aI8
aI6
aI4
aa(lp4378
I8
aI6
aI4
aI8
aI6
aI4
aa(lp4379
I8
aI4
aI8
aI6
aI4
aa(lp4380
I6
aI8
aI4
aI8
aI6
aI4
aa(lp4381
I6
aI8
aI4
aI6
aI8
aI6
aI4
aa(lp4382
I6
aI8
aI4
aI6
aI4
aa(lp4383
I6
aI8
aI6
aI4
aI6
aI4
aa(lp4384
I6
aI8
aI6
aI4
aI6
aI4
aa(lp4385
I6
aI6
aI4
aI6
aI4
aa(lp4386
I6
aI6
aI4
aI6
aI4
aa(lp4387
I6
aI8
aI6
aI4
aI6
aI4
aa(lp4388
I8
aI6
aI4
aI6
aI4
aa(lp4389
I8
aI6
aI4
aI6
aI4
aa(lp4390
I8
aI6
aI4
aI6
aI4
aa(lp4391
I8
aI6
aI4
aI6
aI4
aa(lp4392
I8
aI6
aI4
aI6
aI4
aa(lp4393
I8
aI6
aI4
aI6
aI4
aa(lp4394
I8
aI6
aI4
aI6
aI4
aa(lp4395
I8
aI6
aI4
aI6
aI4
aa(lp4396
I8
aI6
aI4
aI6
aI4
aa(lp4397
I8
aI6
aI4
aI6
aI4
aa(lp4398
I8
aI6
aI4
aI6
aI4
aa(lp4399
I8
aI6
aI4
aI6
aa(lp4400
I8
aI6
aI4
aI6
aa(lp4401
I6
aI4
aI6
aI8
aa(lp4402
I6
aI4
aI6
aI8
aa(lp4403
I6
aI4
aI6
aI8
aa(lp4404
I6
aI4
aI6
aI8
aa(lp4405
I6
aI4
aI6
aa(lp4406
I6
aI4
aI6
aa(lp4407
I6
aI4
aI6
aa(lp4408
I6
aI6
aI4
aI6
aa(lp4409
I6
aI6
aI4
aI6
aa(lp4410
I6
aI6
aI4
aI6
aa(lp4411
I6
aI6
aI4
aI6
aa(lp4412
I6
aI6
aI4
aI6
aa(lp4413
I6
aI6
aa(lp4414
I6
aI8
aI6
aa(lp4415
I6
aI8
aI6
aa(lp4416
I6
aI8
aI4
aI6
aa(lp4417
I6
aI8
aI4
aI6
aa(lp4418
I6
aI8
aI4
aI6
aa(lp4419
I6
aI8
aI4
aI6
aa(lp4420
I6
aI8
aI4
aI6
aa(lp4421
I6
aI8
aI4
aI6
aa(lp4422
I6
aI8
aI4
aI6
aa(lp4423
I6
aI8
aI4
aI6
aa(lp4424
I6
aI8
aI4
aI6
aa(lp4425
I6
aI8
aI4
aI6
aa(lp4426
I6
aI8
aI4
aI6
aa(lp4427
I6
aI8
aI4
aI6
aa(lp4428
I6
aI8
aI4
aI6
aa(lp4429
I6
aI8
aI4
aI6
aa(lp4430
I6
aI8
aI4
aI6
aa(lp4431
I6
aI4
aI6
aa(lp4432
I6
aI4
aI6
aa(lp4433
I6
aI4
aI6
aa(lp4434
I6
aI4
aI6
aa(lp4435
I6
aI4
aI6
aa(lp4436
I6
aI4
aI6
aa(lp4437
I6
aI4
aI6
aa(lp4438
I6
aI4
aI6
aI6
aa(lp4439
I6
aI4
aI6
aI6
aa(lp4440
I6
aI4
aI6
aI6
aa(lp4441
I6
aI4
aI6
aI6
aa(lp4442
I6
aI4
aI6
aI6
aa(lp4443
I4
aI6
aI6
aa(lp4444
I4
aI6
aI6
aa(lp4445
I4
aI6
aI6
aI6
aa(lp4446
I4
aI6
aI6
aI6
aa(lp4447
I4
aI6
aI6
aI6
aI6
aa(lp4448
I4
aI6
aI6
aI6
aI6
aa(lp4449
I6
aI6
aI6
aI6
aa(lp4450
I6
aI6
aI6
aI6
aa(lp4451
I6
aI6
aI6
aI6
aa(lp4452
I6
aI6
aI6
aI6
aa(lp4453
I6
aI6
aI6
aI6
aa(lp4454
I6
aI6
aI6
aa(lp4455
I6
aI6
aI6
aa(lp4456
I6
aI6
aI6
aa(lp4457
I6
aI6
aI6
aa(lp4458
I6
aI6
aI6
aa(lp4459
I6
aI6
aI6
aa(lp4460
I6
aI6
aI6
aa(lp4461
I6
aI6
aI6
aa(lp4462
I6
aI6
aI6
aa(lp4463
I6
aI6
aI6
aI6
aa(lp4464
I6
aI6
aI6
aI6
aa(lp4465
I6
aI6
aI6
aI6
aa(lp4466
I6
aI6
aI6
aI6
aa(lp4467
I6
aI6
aI6
aI6
aa(lp4468
I6
aI6
aI6
aI6
aa(lp4469
I6
aI6
aI6
aa(lp4470
I6
aI6
aI6
aa(lp4471
I6
aI6
aI6
aa(lp4472
I6
aI6
aI6
aa(lp4473
I6
aI6
aI6
aa(lp4474
I6
aI6
aI6
aa(lp4475
I6
aI6
aI6
aa(lp4476
I6
aI6
aI6
aa(lp4477
I6
aI6
aI6
aa(lp4478
I6
aI6
aI6
aa(lp4479
I6
aI6
aI6
aa(lp4480
I6
aI6
aI6
aa(lp4481
I6
aI6
aI6
aa(lp4482
I6
aI6
aI6
aa(lp4483
I6
aI6
aI6
aa(lp4484
I6
aI6
aI6
aa(lp4485
I6
aI6
aa(lp4486
I6
aI6
aa(lp4487
I6
aa(lp4488
I6
aI6
aa(lp4489
I6
aI4
aI6
aa(lp4490
I6
aI4
aI6
aa(lp4491
I6
aI4
aI6
aa(lp4492
I6
aI4
aI6
aI6
aa(lp4493
I6
aI4
aI6
aa(lp4494
I6
aI4
aI6
aa(lp4495
I6
aI4
aI6
aa(lp4496
I6
aI4
aI6
aa(lp4497
I6
aI4
aI6
aa(lp4498
I6
aI4
aI6
aa(lp4499
I6
aI4
aI6
aa(lp4500
I6
aI4
aI6
aa(lp4501
I6
aI4
aI6
aa(lp4502
I6
aI4
aI6
aa(lp4503
I6
aI4
aI6
aa(lp4504
I6
aI4
aI6
aa(lp4505
I6
aI4
aI6
aa(lp4506
I6
aI4
aI6
aa(lp4507
I6
aI4
aI6
aa(lp4508
I6
aI4
aI6
aa(lp4509
I6
aI4
aI6
aa(lp4510
I6
aI4
aI6
aa(lp4511
I6
aI4
aI6
aa(lp4512
I6
aI4
aI6
aa(lp4513
I6
aI4
aI6
aa(lp4514
I6
aI4
aI6
aa(lp4515
I6
aI4
aI6
aa(lp4516
I6
aI4
aI6
aa(lp4517
I4
aI6
aa(lp4518
I4
aI6
aa(lp4519
I4
aI6
aa(lp4520
I4
aI6
aa(lp4521
I4
aI6
aa(lp4522
I4
aI6
aa(lp4523
I4
aI6
aa(lp4524
I4
aI6
aa(lp4525
I4
aI6
aa(lp4526
I4
aa(lp4527
I4
aa(lp4528
I4
aa(lp4529
I4
aa(lp4530
I4
aa(lp4531
I4
aa(lp4532
I4
aa(lp4533
I4
aa(lp4534
I4
aa(lp4535
I4
aa(lp4536
I4
aa(lp4537
I4
aa(lp4538
I4
aa(lp4539
I4
aa(lp4540
I4
aa(lp4541
I4
aa(lp4542
I4
aa(lp4543
I4
aa(lp4544
I4
aa(lp4545
I4
aa(lp4546
I4
aa(lp4547
I4
aa(lp4548
I4
aa(lp4549
I4
aa(lp4550
I4
aa(lp4551
I4
aa(lp4552
I4
aa(lp4553
I4
aa(lp4554
I4
aa(lp4555
I4
aa(lp4556
I4
aI6
aa(lp4557
I6
aI4
aa(lp4558
I6
aI4
aa(lp4559
I6
aI4
aa(lp4560
I4
aa(lp4561
I4
aa(lp4562
I6
aI4
aa(lp4563
I6
aI4
aa(lp4564
I6
aI4
aa(lp4565
I6
aI4
aa(lp4566
I6
aI4
aa(lp4567
I6
aa(lp4568
I6
aa(lp4569
I6
aa(lp4570
I6
aa(lp4571
I6
aa(lp4572
I6
aa(lp4573
I6
aI6
aa(lp4574
I6
aI6
aa(lp4575
I6
aI6
aa(lp4576
I6
aI6
aa(lp4577
I6
aI6
aa(lp4578
I6
aI6
aa(lp4579
I6
aI6
aa(lp4580
I6
aI6
aa(lp4581
I6
aa(lp4582
I6
aa(lp4583
I6
aa(lp4584
I6
aa(lp4585
I6
aa(lp4586
I6
aI4
aa(lp4587
I6
aI4
aa(lp4588
I6
aI4
aa(lp4589
I6
aI4
aa(lp4590
I6
aI4
aa(lp4591
I6
aI4
aa(lp4592
I6
aI4
aa(lp4593
I4
aa(lp4594
I4
aa(lp4595
a(lp4596
a(lp4597
a(lp4598
I6
aa(lp4599
I6
aa(lp4600
a(lp4601
I4
aa(lp4602
I4
aa(lp4603
I4
aa(lp4604
I10
aI4
aa(lp4605
I10
aI4
aa(lp4606
I10
aI4
aa(lp4607
I10
aI4
aa(lp4608
I10
aI4
aa(lp4609
I10
aI4
aa(lp4610
I10
aI4
aa(lp4611
I10
aI4
aa(lp4612
I10
aI4
aa(lp4613
I10
aI4
aa(lp4614
I4
aI4
aa(lp4615
I4
aI4
aa(lp4616
I4
aI4
aa(lp4617
I4
aI4
aa(lp4618
I4
aa(lp4619
I4
aa(lp4620
I10
aI4
aa(lp4621
I10
aI4
aa(lp4622
I10
aI4
aa(lp4623
I10
aI4
aa(lp4624
I10
aI4
aa(lp4625
I10
aI4
aa(lp4626
I10
aI4
aa(lp4627
I10
aI4
aa(lp4628
I10
aI4
aa(lp4629
I10
aI4
aa(lp4630
I10
aI4
aa(lp4631
I10
aI4
aa(lp4632
I10
aI4
aa(lp4633
I10
aI4
aa(lp4634
I10
aI4
aa(lp4635
I10
aI4
aa(lp4636
I10
aI4
aa(lp4637
I10
aI4
aa(lp4638
I10
aI4
aa(lp4639
I10
aI4
aa(lp4640
I10
aI4
aa(lp4641
I10
aI4
aa(lp4642
I10
aI4
aa(lp4643
I10
aI4
aa(lp4644
I10
aI4
aa(lp4645
I10
aI4
aa(lp4646
I10
aI4
aa(lp4647
I10
aI4
aa(lp4648
I10
aI4
aa(lp4649
I10
aI4
aa(lp4650
I10
aI4
aa(lp4651
I10
aI4
aa(lp4652
I10
aI4
aa(lp4653
I10
aI4
aa(lp4654
I10
aI4
aa(lp4655
I10
aI4
aI6
aa(lp4656
I10
aI4
aI6
aa(lp4657
I10
aI4
aI6
aa(lp4658
I10
aI4
aI6
aa(lp4659
I10
aI4
aI6
aa(lp4660
I10
aI4
aI6
aa(lp4661
I4
aI6
aa(lp4662
I4
aI6
aa(lp4663
I4
aI6
aa(lp4664
I4
aI6
aa(lp4665
I4
aI6
aa(lp4666
I6
aI4
aI6
aa(lp4667
I6
aI4
aI6
aa(lp4668
I6
aI4
aa(lp4669
I6
aI4
aa(lp4670
I6
aI4
aa(lp4671
I6
aI4
aa(lp4672
I6
aI4
aa(lp4673
I6
aI4
aa(lp4674
I6
aI4
aa(lp4675
I6
aI4
aa(lp4676
I6
aI4
aa(lp4677
I6
aI4
aa(lp4678
I6
aI4
aa(lp4679
I6
aI4
aa(lp4680
I6
aI4
aa(lp4681
I6
aI4
aa(lp4682
I6
aI4
aa(lp4683
I6
aI4
aa(lp4684
I6
aI4
aa(lp4685
I6
aI4
aa(lp4686
I6
aI4
aa(lp4687
I6
aI4
aa(lp4688
I6
aI4
aa(lp4689
I6
aI4
aa(lp4690
I6
aI4
aa(lp4691
I6
aI4
aa(lp4692
I6
aI4
aa(lp4693
I4
aa(lp4694
I4
aa(lp4695
I4
aa(lp4696
I4
aa(lp4697
I4
aI4
aa(lp4698
I4
aI4
aa(lp4699
I4
aI4
aa(lp4700
I4
aI4
aa(lp4701
I4
aI4
aI6
aa(lp4702
I16
aI4
aI4
aI6
aa(lp4703
I16
aI4
aI4
aa(lp4704
I16
aI4
aI4
aa(lp4705
I16
aI4
aI4
aa(lp4706
I4
aI4
aa(lp4707
I4
aI4
aa(lp4708
I4
aI4
aa(lp4709
I4
aI4
aa(lp4710
I4
aI4
aI4
aa(lp4711
I4
aI4
aI4
aa(lp4712
I4
aI4
aI4
aa(lp4713
I4
aI4
aI4
aa(lp4714
I4
aI4
aI4
aa(lp4715
I4
aI4
aI4
aa(lp4716
I4
aI4
aI4
aa(lp4717
I4
aI4
aI4
aa(lp4718
I4
aI4
aI4
aa(lp4719
I4
aI4
aI4
aa(lp4720
I4
aI4
aI4
aa(lp4721
I4
aI4
aI4
aa(lp4722
I4
aI4
aI4
aa(lp4723
I4
aI4
aI4
aa(lp4724
I4
aI4
aI4
aa(lp4725
I4
aI4
aI4
aa(lp4726
I4
aI4
aI4
aa(lp4727
I4
aI4
aI4
aa(lp4728
I4
aI4
aI4
aa(lp4729
I4
aI4
aI4
aa(lp4730
I6
aI4
aI4
aI4
aa(lp4731
I6
aI4
aI4
aI4
aa(lp4732
I6
aI4
aI4
aI4
aa(lp4733
I6
aI4
aI4
aI4
aa(lp4734
I6
aI4
aI4
aI4
aa(lp4735
I6
aI4
aI4
aI4
aa(lp4736
I6
aI4
aI4
aI4
aa(lp4737
I6
aI4
aI4
aI4
aa(lp4738
I6
aI4
aI4
aI4
aa(lp4739
I6
aI4
aI4
aI4
aa(lp4740
I6
aI4
aI4
aI4
aa(lp4741
I6
aI4
aI4
aI4
aa(lp4742
I4
aI4
aI4
aa(lp4743
I4
aI4
aI4
aa(lp4744
I4
aI4
aI4
aa(lp4745
I4
aI4
aI4
aa(lp4746
I4
aI4
aI4
aa(lp4747
I4
aI4
aI4
aa(lp4748
I4
aI4
aa(lp4749
I4
aa(lp4750
I4
aa(lp4751
I4
aa(lp4752
I4
aa(lp4753
I4
aa(lp4754
I4
aa(lp4755
I4
aa(lp4756
I4
aa(lp4757
I4
aa(lp4758
I4
aa(lp4759
I4
aa(lp4760
I4
aa(lp4761
I4
aa(lp4762
I4
aI6
aa(lp4763
I4
aI6
aa(lp4764
I4
aI6
aa(lp4765
I4
aI6
aa(lp4766
I4
aI6
aa(lp4767
I4
aI6
aa(lp4768
I4
aI6
aa(lp4769
I6
aI6
aa(lp4770
I6
aI6
aa(lp4771
I6
aI6
aa(lp4772
I6
aI4
aI4
aa(lp4773
I6
aI4
aI4
aI6
aa(lp4774
I6
aI4
aI4
aI4
aI6
aa(lp4775
I6
aI4
aI4
aI4
aI6
aa(lp4776
I6
aI4
aI4
aI4
aI6
aa(lp4777
I6
aI4
aI4
aI4
aI6
aa(lp4778
I6
aI4
aI4
aI4
aI6
aa(lp4779
I4
aI4
aI4
aI4
aI6
aa(lp4780
I4
aI4
aI4
aI4
aI6
aa(lp4781
I4
aI4
aI4
aI4
aI6
aa(lp4782
I4
aI4
aI4
aI4
aI6
aa(lp4783
I4
aI4
aI4
aI4
aI6
aa(lp4784
I4
aI4
aI4
aI4
aI6
aa(lp4785
I4
aI4
aI4
aI4
aI6
aa(lp4786
I4
aI4
aI4
aI4
aI6
aa(lp4787
I4
aI4
aI4
aI4
aI6
aa(lp4788
I4
aI4
aI4
aI4
aI6
aa(lp4789
I4
aI4
aI4
aI4
aI6
aa(lp4790
I6
aI4
aI4
aI4
aI4
aI6
aa(lp4791
I6
aI4
aI4
aI4
aI4
aI6
aa(lp4792
I6
aI4
aI4
aI4
aI4
aI8
aI6
aa(lp4793
I6
aI4
aI4
aI4
aI4
aI4
aI8
aI6
aa(lp4794
I8
aI6
aI4
aI4
aI4
aI4
aI4
aI6
aa(lp4795
I8
aI6
aI4
aI4
aI4
aI4
aI4
aI6
aa(lp4796
I8
aI6
aI4
aI4
aI4
aI4
aI6
aa(lp4797
I8
aI6
aI4
aI4
aI4
aI4
aI6
aa(lp4798
I8
aI6
aI4
aI4
aI4
aI6
aa(lp4799
I8
aI6
aI4
aI4
aI4
aI4
aI6
aa(lp4800
I8
aI6
aI4
aI4
aI4
aI4
aI6
aa(lp4801
I8
aI6
aI4
aI4
aI4
aI4
aI6
aa(lp4802
I8
aI6
aI4
aI4
aI4
aI4
aI6
aa(lp4803
I8
aI6
aI4
aI4
aI4
aI4
aI4
aI6
aa(lp4804
I8
aI6
aI4
aI4
aI4
aI4
aI4
aI6
aa(lp4805
I8
aI6
aI4
aI4
aI4
aI4
aI4
aI6
aa(lp4806
I8
aI6
aI4
aI4
aI4
aI4
aI4
aI6
aa(lp4807
I8
aI6
aI4
aI4
aI4
aI4
aI4
aI6
aa(lp4808
I8
aI10
aI6
aI4
aI4
aI4
aI4
aI4
aI6
aa(lp4809
I8
aI10
aI6
aI4
aI4
aI4
aI4
aI6
aa(lp4810
I8
aI10
aI6
aI4
aI4
aI4
aI4
aI6
aa(lp4811
I8
aI10
aI6
aI4
aI4
aI4
aI4
aI6
aa(lp4812
I8
aI10
aI6
aI4
aI4
aI4
aI4
aI6
aa(lp4813
I8
aI10
aI4
aI4
aI4
aI4
aI6
aa(lp4814
I8
aI10
aI4
aI4
aI4
aI4
aI6
aa(lp4815
I8
aI10
aI4
aI4
aI4
aI4
aI6
aa(lp4816
I8
aI10
aI4
aI4
aI4
aI4
aI6
aa(lp4817
I8
aI10
aI4
aI4
aI4
aI4
aI6
aa(lp4818
I8
aI10
aI4
aI4
aI4
aI4
aI6
aa(lp4819
I8
aI10
aI4
aI4
aI4
aI4
aI6
aa(lp4820
I8
aI10
aI4
aI4
aI4
aI4
aI6
aa(lp4821
I8
aI10
aI4
aI4
aI4
aa(lp4822
I8
aI10
aI4
aI4
aI4
aI6
aa(lp4823
I8
aI10
aI4
aI4
aI4
aI6
aa(lp4824
I10
aI4
aI4
aI4
aI6
aI6
aa(lp4825
I10
aI4
aI4
aI4
aI6
aI6
aa(lp4826
I10
aI4
aI4
aI4
aI6
aI6
aa(lp4827
I10
aI4
aI4
aI6
aI6
aa(lp4828
I10
aI4
aI4
aI6
aI6
aa(lp4829
I10
aI4
aI4
aI6
aI6
aa(lp4830
I10
aI4
aI4
aI6
aI6
aa(lp4831
I10
aI4
aI4
aI6
aI6
aa(lp4832
I10
aI4
aI4
aI6
aI6
aa(lp4833
I10
aI4
aI4
aI6
aI6
aa(lp4834
I10
aI4
aI4
aI6
aI6
aa(lp4835
I10
aI4
aI4
aI6
aI6
aa(lp4836
I10
aI4
aI4
aI6
aI6
aa(lp4837
I10
aI4
aI4
aI6
aI6
aa(lp4838
I10
aI4
aI4
aI6
aI6
aa(lp4839
I10
aI4
aI6
aa(lp4840
I10
aI4
aI6
aa(lp4841
I10
aI4
aI6
aa(lp4842
I10
aI4
aI6
aa(lp4843
I10
aI4
aI6
aa(lp4844
I4
aI6
aa(lp4845
I4
aI6
aa(lp4846
I4
aI6
aa(lp4847
I4
aI6
aa(lp4848
I22
aI4
aI6
aa(lp4849
I22
aI4
aI6
aa(lp4850
I4
aI6
aa(lp4851
I4
aI6
aa(lp4852
I4
aI6
aa(lp4853
I4
aI6
aa(lp4854
I4
aI6
aa(lp4855
I4
aa(lp4856
I4
aa(lp4857
I4
aa(lp4858
I4
aa(lp4859
I4
aa(lp4860
I4
aa(lp4861
I4
aa(lp4862
I4
aa(lp4863
I4
aa(lp4864
I4
aI6
aa(lp4865
I4
aI6
aa(lp4866
I4
aI6
aa(lp4867
I4
aI6
aa(lp4868
I4
aI6
aa(lp4869
I4
aI6
aa(lp4870
I4
aI6
aa(lp4871
I4
aI6
aa(lp4872
I4
aI6
aa(lp4873
I4
aI6
aa(lp4874
I4
aI6
aa(lp4875
I4
aI6
aa(lp4876
I4
aI6
aa(lp4877
I4
aI6
aa(lp4878
I4
aI6
aa(lp4879
I4
aI6
aa(lp4880
I4
aI6
aa(lp4881
I4
aI6
aa(lp4882
I4
aI6
aa(lp4883
I4
aI6
aa(lp4884
I4
aI6
aa(lp4885
I4
aI6
aa(lp4886
I6
aa(lp4887
I6
aa(lp4888
I6
aa(lp4889
I6
aa(lp4890
I6
aa(lp4891
I6
aa(lp4892
I6
aa(lp4893
I6
aI6
aa(lp4894
I6
aI6
aa(lp4895
I6
aI6
aa(lp4896
I6
aI6
aa(lp4897
I6
aI6
aa(lp4898
I6
aI6
aa(lp4899
I6
aI6
aa(lp4900
I6
aI6
aa(lp4901
I6
aI6
aa(lp4902
I6
aI6
aa(lp4903
I6
aI6
aa(lp4904
I6
aa(lp4905
I6
aa(lp4906
I6
aa(lp4907
a(lp4908
a(lp4909
a(lp4910
a(lp4911
a(lp4912
a(lp4913
a(lp4914
a(lp4915
a(lp4916
a(lp4917
a(lp4918
a(lp4919
a(lp4920
a(lp4921
a(lp4922
a(lp4923
a(lp4924
a(lp4925
a(lp4926
a(lp4927
a(lp4928
a(lp4929
a(lp4930
a(lp4931
a(lp4932
a(lp4933
a(lp4934
a(lp4935
a(lp4936
a(lp4937
a(lp4938
a(lp4939
a(lp4940
a(lp4941
a(lp4942
a(lp4943
a(lp4944
a(lp4945
a(lp4946
a(lp4947
a(lp4948
a(lp4949
a(lp4950
a(lp4951
a(lp4952
a(lp4953
a(lp4954
a(lp4955
a(lp4956
a(lp4957
a(lp4958
a(lp4959
I4
aa(lp4960
I4
aa(lp4961
I4
aa(lp4962
I4
aa(lp4963
I4
aa(lp4964
I4
aa(lp4965
I4
aa(lp4966
I4
aa(lp4967
I4
aa(lp4968
I4
aa(lp4969
I4
aa(lp4970
I4
aa(lp4971
I4
aa(lp4972
I4
aa(lp4973
I4
aa(lp4974
I4
aa(lp4975
I4
aa(lp4976
I4
aa(lp4977
I4
aa(lp4978
I4
aI6
aa(lp4979
I4
aI10
aI6
aa(lp4980
I4
aI10
aI6
aa(lp4981
I4
aI10
aI4
aI6
aa(lp4982
I4
aI10
aI4
aI6
aa(lp4983
I4
aI4
aI6
aa(lp4984
I4
aI4
aI6
aa(lp4985
I4
aI4
aI6
aa(lp4986
I4
aI4
aI6
aa(lp4987
I4
aI4
aI6
aa(lp4988
I4
aI4
aI6
aa(lp4989
I4
aI4
aI6
aa(lp4990
I4
aI4
aI6
aa(lp4991
I4
aI4
aI6
aa(lp4992
I4
aI4
aI6
aa(lp4993
I4
aI4
aI6
aa(lp4994
I8
aI4
aI4
aI6
aa(lp4995
I8
aI4
aI4
aI6
aa(lp4996
I8
aI4
aI4
aI6
aa(lp4997
I8
aI4
aI4
aI6
aa(lp4998
I8
aI4
aI4
aI6
aa(lp4999
I8
aI4
aI4
aI6
aa(lp5000
I4
aI4
aI6
aa(lp5001
I4
aI4
aI6
aa(lp5002
I4
aI4
aI6
aI6
aa.