(lp1
(lp2
a(lp3
a(lp4
a(lp5
a(lp6
a(lp7
a(lp8
a(lp9
a(lp10
a(lp11
a(lp12
a(lp13
a(lp14
a(lp15
a(lp16
a(lp17
a(lp18
a(lp19
a(lp20
a(lp21
a(lp22
a(lp23
a(lp24
a(lp25
a(lp26
a(lp27
a(lp28
a(lp29
a(lp30
a(lp31
a(lp32
a(lp33
a(lp34
a(lp35
a(lp36
a(lp37
a(lp38
a(lp39
a(lp40
a(lp41
a(lp42
a(lp43
a(lp44
a(lp45
a(lp46
a(lp47
a(lp48
a(lp49
a(lp50
a(lp51
I8
aa(lp52
I8
aa(lp53
I8
aa(lp54
I8
aa(lp55
I8
aa(lp56
I8
aa(lp57
I8
aa(lp58
I8
aa(lp59
I8
aa(lp60
I8
aa(lp61
I8
aa(lp62
I8
aa(lp63
I8
aa(lp64
I8
aa(lp65
I8
aa(lp66
I8
aa(lp67
I8
aa(lp68
I8
aa(lp69
I8
aa(lp70
I8
aa(lp71
I8
aa(lp72
I8
aa(lp73
I8
aa(lp74
I6
aI8
aa(lp75
I6
aI8
aa(lp76
I6
aI8
aa(lp77
I6
aI8
aa(lp78
I6
aI8
aa(lp79
I6
aI8
aa(lp80
I8
aa(lp81
I8
aa(lp82
I8
aa(lp83
I8
aa(lp84
I8
aI6
aa(lp85
I8
aI6
aa(lp86
I8
aI6
aa(lp87
I8
aI6
aa(lp88
I8
aI6
aa(lp89
I8
aI6
aa(lp90
I8
aI6
aa(lp91
I8
aI6
aa(lp92
I8
aI6
aa(lp93
I8
aI6
aa(lp94
I8
aI6
aa(lp95
I8
aI6
aa(lp96
I8
aa(lp97
I8
aa(lp98
I8
aa(lp99
I10
aI8
aa(lp100
I10
aI8
aa(lp101
I10
aI8
aa(lp102
I10
aI8
aa(lp103
I10
aI8
aa(lp104
I10
aI8
aa(lp105
I10
aI8
aa(lp106
I10
aI8
aa(lp107
I10
aI8
aa(lp108
I10
aI8
aa(lp109
I10
aI8
aa(lp110
I10
aI8
aa(lp111
I10
aI8
aa(lp112
I10
aI8
aa(lp113
I8
aa(lp114
I10
aI8
aa(lp115
I10
aI8
aa(lp116
I10
aI8
aa(lp117
I10
aI8
aa(lp118
I10
aI8
aa(lp119
I10
aI8
aa(lp120
I10
aI8
aa(lp121
I10
aI8
aa(lp122
I10
aI8
aI8
aa(lp123
I10
aI8
aI8
aa(lp124
I10
aI8
aI8
aa(lp125
I8
aI8
aa(lp126
I8
aa(lp127
I8
aa(lp128
I8
aI8
aa(lp129
I8
aI8
aa(lp130
I8
aI8
aI4
aa(lp131
I8
aI8
aI4
aa(lp132
I8
aI8
aI4
aa(lp133
I8
aI8
aI4
aa(lp134
I8
aI8
aI4
aa(lp135
I8
aI8
aI4
aa(lp136
I8
aI8
aI4
aa(lp137
I8
aI8
aI4
aa(lp138
I8
aI8
aI4
aa(lp139
I8
aI8
aI4
aa(lp140
I8
aI8
aI4
aa(lp141
I8
aI8
aI4
aa(lp142
I8
aI4
aa(lp143
I8
aI4
aa(lp144
I8
aI4
aa(lp145
I8
aI4
aa(lp146
I8
aI4
aa(lp147
I8
aI4
aa(lp148
I8
aI4
aI6
aa(lp149
I8
aI4
aI6
aa(lp150
I8
aI4
aI6
aa(lp151
I8
aI4
aI6
aa(lp152
I8
aI4
aI6
aa(lp153
I8
aI4
aI6
aa(lp154
I8
aI4
aI6
aa(lp155
I8
aI4
aI6
aa(lp156
I8
aI4
aI6
aa(lp157
I8
aI4
aI6
aa(lp158
I4
aI6
aa(lp159
I4
aI6
aa(lp160
I4
aI6
aa(lp161
I6
aa(lp162
I6
aa(lp163
I6
aa(lp164
I6
aa(lp165
I6
aa(lp166
I6
aa(lp167
I6
aa(lp168
I6
aa(lp169
I6
aa(lp170
I6
aa(lp171
I6
aa(lp172
I6
aa(lp173
I6
aa(lp174
I8
aI6
aa(lp175
I8
aI6
aa(lp176
I8
aI6
aa(lp177
I8
aI6
aa(lp178
I8
aa(lp179
I8
aa(lp180
a(lp181
a(lp182
I8
aa(lp183
I8
aa(lp184
I8
aa(lp185
I8
aa(lp186
I8
aa(lp187
I8
aa(lp188
I8
aa(lp189
I8
aa(lp190
I8
aa(lp191
I8
aa(lp192
I8
aa(lp193
I8
aa(lp194
I8
aa(lp195
I8
aa(lp196
I8
aa(lp197
I8
aa(lp198
I8
aa(lp199
I8
aa(lp200
I8
aa(lp201
I8
aa(lp202
I8
aa(lp203
I8
aa(lp204
I8
aa(lp205
I8
aa(lp206
I8
aa(lp207
I8
aa(lp208
I8
aa(lp209
I8
aa(lp210
I8
aa(lp211
I8
aa(lp212
I8
aa(lp213
I8
aa(lp214
I8
aa(lp215
I8
aa(lp216
I8
aa(lp217
I8
aa(lp218
I8
aa(lp219
I8
aa(lp220
I8
aa(lp221
I8
aa(lp222
I8
aa(lp223
I8
aa(lp224
I8
aa(lp225
I8
aa(lp226
I8
aa(lp227
I8
aa(lp228
I8
aa(lp229
I8
aa(lp230
I8
aa(lp231
I8
aa(lp232
I8
aa(lp233
I8
aa(lp234
I8
aa(lp235
I8
aI10
aa(lp236
I8
aI10
aa(lp237
I8
aI10
aa(lp238
I8
aI10
aa(lp239
I8
aI10
aa(lp240
I8
aI10
aa(lp241
I8
aa(lp242
I8
aa(lp243
I8
aa(lp244
I8
aa(lp245
I8
aa(lp246
I8
aa(lp247
a(lp248
a(lp249
a(lp250
a(lp251
a(lp252
a(lp253
a(lp254
a(lp255
a(lp256
a(lp257
a(lp258
a(lp259
a(lp260
a(lp261
a(lp262
a(lp263
a(lp264
a(lp265
a(lp266
a(lp267
a(lp268
a(lp269
a(lp270
a(lp271
I6
aa(lp272
I6
aa(lp273
I6
aa(lp274
I4
aI6
aa(lp275
I4
aI6
aa(lp276
I6
aa(lp277
I6
aa(lp278
I6
aa(lp279
I6
aa(lp280
I6
aa(lp281
I6
aa(lp282
a(lp283
a(lp284
a(lp285
a(lp286
a(lp287
a(lp288
a(lp289
I6
aa(lp290
I6
aa(lp291
I6
aa(lp292
I6
aa(lp293
I6
aI4
aa(lp294
I6
aI4
aa(lp295
I6
aI4
aa(lp296
I6
aI4
aa(lp297
I6
aI4
aa(lp298
I6
aI4
aa(lp299
I6
aI4
aa(lp300
I6
aI4
aa(lp301
I6
aI4
aa(lp302
I6
aI4
aa(lp303
I6
aI4
aa(lp304
I6
aI4
aa(lp305
I6
aI4
aa(lp306
I6
aI4
aa(lp307
I6
aI4
aa(lp308
I6
aI4
aa(lp309
I6
aI4
aa(lp310
I6
aI4
aa(lp311
I6
aI4
aa(lp312
I6
aI4
aa(lp313
I6
aI4
aa(lp314
I8
aI6
aI4
aa(lp315
I8
aI6
aI4
aa(lp316
I8
aI6
aI4
aa(lp317
I8
aI6
aI4
aa(lp318
I8
aI6
aI4
aa(lp319
I8
aI6
aI4
aa(lp320
I8
aI6
aI4
aa(lp321
I8
aI6
aI4
aa(lp322
I8
aI6
aI4
aa(lp323
I8
aI6
aI4
aa(lp324
I8
aI6
aI4
aa(lp325
I8
aI6
aI4
aa(lp326
I8
aI6
aI4
aa(lp327
I8
aI6
aI4
aa(lp328
I8
aI6
aI4
aa(lp329
I8
aI6
aI4
aa(lp330
I8
aI6
aI4
aa(lp331
I8
aI6
aI4
aa(lp332
I8
aI6
aI4
aa(lp333
I8
aI6
aI4
aa(lp334
I8
aI6
aI4
aa(lp335
I8
aI6
aI4
aa(lp336
I8
aI6
aI4
aa(lp337
I8
aI6
aI4
aa(lp338
I8
aI6
aI4
aa(lp339
I4
aI8
aI6
aI4
aa(lp340
I4
aI8
aI6
aI4
aa(lp341
I4
aI8
aI6
aI4
aa(lp342
I4
aI8
aI6
aI4
aa(lp343
I4
aI8
aI6
aI4
aa(lp344
I4
aI8
aI6
aI4
aa(lp345
I4
aI8
aI6
aI6
aI4
aa(lp346
I4
aI8
aI6
aI6
aI4
aa(lp347
I4
aI8
aI6
aI6
aI4
aa(lp348
I4
aI8
aI6
aI6
aa(lp349
I4
aI8
aI6
aa(lp350
I4
aI4
aI8
aa(lp351
I4
aI4
aI8
aa(lp352
I4
aI4
aI8
aa(lp353
I4
aI4
aI8
aa(lp354
I4
aI4
aI8
aa(lp355
I4
aI4
aI8
aI6
aa(lp356
I4
aI4
aI8
aI6
aa(lp357
I4
aI4
aI8
aI6
aa(lp358
I4
aI4
aI8
aI4
aI6
aa(lp359
I4
aI4
aI8
aI4
aI6
aa(lp360
I4
aI4
aI8
aI4
aI6
aa(lp361
I4
aI4
aI8
aI4
aI6
aa(lp362
I4
aI4
aI8
aI4
aI6
aa(lp363
I4
aI4
aI8
aI4
aI6
aa(lp364
I4
aI4
aI8
aI4
aI6
aa(lp365
I4
aI4
aI8
aI4
aa(lp366
I4
aI4
aI8
aI4
aa(lp367
I4
aI4
aI8
aI4
aI6
aa(lp368
I4
aI4
aI8
aI4
aI6
aa(lp369
I4
aI4
aI8
aI4
aI6
aa(lp370
I4
aI4
aI8
aI4
aI6
aa(lp371
I4
aI4
aI8
aI4
aI6
aI6
aa(lp372
I4
aI4
aI8
aI4
aI6
aa(lp373
I4
aI4
aI8
aI4
aI6
aa(lp374
I4
aI4
aI4
aI6
aa(lp375
I4
aI4
aI4
aI6
aa(lp376
I4
aI4
aI4
aI6
aa(lp377
I4
aI4
aI4
aI6
aa(lp378
I4
aI4
aI4
aI6
aa(lp379
I4
aI4
aI4
aI6
aa(lp380
I4
aI4
aI4
aI6
aa(lp381
I4
aI4
aI4
aI6
aa(lp382
I4
aI4
aI4
aI6
aa(lp383
I4
aI4
aI4
aI6
aa(lp384
I4
aI4
aI4
aI6
aa(lp385
I4
aI4
aI4
aI6
aa(lp386
I4
aI4
aI4
aI6
aa(lp387
I4
aI4
aI4
aI6
aa(lp388
I4
aI4
aI4
aI6
aa(lp389
I4
aI4
aI4
aI6
aa(lp390
I4
aI4
aI6
aa(lp391
I4
aI4
aI6
aa(lp392
I4
aI4
aI6
aa(lp393
I4
aI4
aI10
aI6
aa(lp394
I4
aI4
aI10
aI6
aa(lp395
I4
aI4
aI10
aI6
aa(lp396
I4
aI4
aI10
aI6
aa(lp397
I4
aI4
aI10
aI6
aa(lp398
I4
aI4
aI10
aI6
aa(lp399
I4
aI4
aI10
aI6
aa(lp400
I4
aI4
aI10
aI6
aa(lp401
I4
aI4
aI10
aI6
aa(lp402
I4
aI4
aI10
aI6
aa(lp403
I4
aI4
aI10
aI6
aa(lp404
I4
aI4
aI10
aI6
aa(lp405
I4
aI4
aI10
aI6
aa(lp406
I4
aI4
aI10
aI6
aa(lp407
I4
aI4
aI10
aI6
aa(lp408
I4
aI4
aI10
aI6
aa(lp409
I4
aI4
aI6
aa(lp410
I4
aI4
aI8
aI6
aa(lp411
I4
aI4
aI4
aI8
aI6
aa(lp412
I4
aI4
aI4
aI8
aI6
aa(lp413
I4
aI4
aI4
aI8
aI6
aa(lp414
I4
aI4
aI4
aI8
aI6
aa(lp415
I4
aI4
aI4
aI6
aa(lp416
I4
aI4
aI4
aI6
aa(lp417
I4
aI4
aI4
aI6
aa(lp418
I4
aI4
aI4
aI6
aa(lp419
I4
aI4
aI4
aI4
aI6
aa(lp420
I4
aI4
aI4
aI4
aI6
aa(lp421
I4
aI4
aI4
aI4
aI8
aI6
aa(lp422
I4
aI4
aI4
aI4
aI4
aI8
aI6
aa(lp423
I4
aI4
aI4
aI4
aI4
aI8
aI6
aa(lp424
I4
aI4
aI4
aI4
aI4
aI8
aI6
aa(lp425
I4
aI4
aI4
aI4
aI4
aI8
aI6
aa(lp426
I4
aI4
aI4
aI4
aI4
aI8
aI6
aa(lp427
I4
aI4
aI4
aI4
aI8
aI6
aa(lp428
I4
aI4
aI4
aI4
aI8
aI6
aa(lp429
I4
aI4
aI4
aI4
aI8
aI6
aa(lp430
I4
aI4
aI4
aI8
aI6
aa(lp431
I4
aI4
aI4
aI8
aI6
aa(lp432
I4
aI4
aI4
aI8
aI6
aa(lp433
I4
aI4
aI4
aI8
aI6
aa(lp434
I4
aI4
aI4
aI8
aI6
aa(lp435
I4
aI4
aI4
aI8
aI6
aa(lp436
I4
aI4
aI4
aI8
aI6
aa(lp437
I4
aI4
aI4
aI8
aI6
aa(lp438
I4
aI4
aI4
aI8
aI6
aa(lp439
I4
aI4
aI4
aI8
aI6
aa(lp440
I4
aI4
aI4
aI8
aI6
aa(lp441
I4
aI4
aI4
aI8
aI8
aI6
aa(lp442
I4
aI4
aI4
aI8
aI8
aI6
aa(lp443
I4
aI4
aI4
aI8
aI8
aI6
aa(lp444
I4
aI4
aI4
aI8
aI6
aa(lp445
I4
aI4
aI4
aI8
aI6
aa(lp446
I4
aI4
aI4
aI8
aI6
aa(lp447
I4
aI4
aI4
aI6
aa(lp448
I4
aI4
aI4
aI6
aa(lp449
I4
aI4
aI4
aI6
aa(lp450
I4
aI4
aI4
aI6
aa(lp451
I4
aI4
aI4
aI6
aI6
aa(lp452
I4
aI4
aI4
aI6
aI6
aa(lp453
I4
aI4
aI4
aI6
aI6
aa(lp454
I4
aI4
aI4
aI6
aI6
aa(lp455
I4
aI4
aI4
aI6
aI6
aa(lp456
I4
aI4
aI4
aI6
aI6
aa(lp457
I4
aI4
aI4
aI8
aI6
aI6
aa(lp458
I4
aI4
aI4
aI8
aI6
aI6
aa(lp459
I4
aI4
aI4
aI8
aI6
aI6
aa(lp460
I4
aI4
aI4
aI8
aI6
aI6
aa(lp461
I4
aI4
aI4
aI8
aI6
aI6
aa(lp462
I8
aI4
aI4
aI4
aI8
aI6
aI6
aa(lp463
I8
aI4
aI4
aI4
aI8
aI6
aI6
aa(lp464
I8
aI4
aI4
aI4
aI8
aI6
aI6
aa(lp465
I8
aI4
aI4
aI4
aI8
aI6
aI6
aa(lp466
I8
aI4
aI4
aI4
aI8
aI6
aI6
aa(lp467
I8
aI4
aI4
aI4
aI8
aI6
aI6
aa(lp468
I4
aI4
aI4
aI8
aI6
aI6
aa(lp469
I4
aI4
aI4
aI8
aI6
aI6
aa(lp470
I4
aI4
aI4
aI6
aI6
aa(lp471
I4
aI4
aI4
aI6
aa(lp472
I4
aI4
aI4
aI6
aa(lp473
I4
aI4
aI4
aI6
aa(lp474
I4
aI4
aI4
aI6
aa(lp475
I8
aI4
aI4
aI4
aI6
aa(lp476
I8
aI4
aI4
aI4
aI6
aa(lp477
I8
aI4
aI4
aI4
aI6
aa(lp478
I8
aI4
aI4
aI4
aI6
aa(lp479
I8
aI4
aI4
aI4
aI6
aa(lp480
I8
aI4
aI4
aI4
aI6
aa(lp481
I8
aI4
aI4
aI4
aI6
aa(lp482
I8
aI4
aI4
aI4
aI6
aa(lp483
I8
aI4
aI4
aI4
aI6
aa(lp484
I8
aI4
aI4
aI4
aI6
aa(lp485
I8
aI4
aI4
aI4
aI6
aa(lp486
I8
aI4
aI4
aI4
aI6
aI6
aa(lp487
I8
aI4
aI4
aI4
aI6
aI6
aa(lp488
I4
aI4
aI4
aI6
aI6
aa(lp489
I4
aI4
aI4
aI6
aI6
aa(lp490
I4
aI4
aI4
aI6
aa(lp491
I4
aI4
aI6
aI4
aI6
aa(lp492
I4
aI4
aI6
aI4
aI6
aa(lp493
I4
aI4
aI6
aI4
aI6
aa(lp494
I4
aI4
aI6
aI4
aI6
aa(lp495
I4
aI4
aI6
aI4
aI6
aa(lp496
I4
aI4
aI6
aI4
aI6
aa(lp497
I4
aI6
aI4
aI6
aa(lp498
I4
aI6
aI4
aI6
aa(lp499
I4
aI6
aI4
aI6
aa(lp500
I4
aI6
aI4
aI6
aa(lp501
I4
aI6
aI4
aI6
aa(lp502
I4
aI6
aI4
aI6
aa(lp503
I4
aI6
aI4
aI6
aa(lp504
I4
aI6
aI4
aI6
aa(lp505
I4
aI6
aI4
aI6
aI6
aa(lp506
I4
aI6
aI4
aI6
aa(lp507
I4
aI6
aI4
aI6
aa(lp508
I4
aI6
aI4
aI6
aa(lp509
I4
aI6
aI4
aI6
aa(lp510
I4
aI6
aI4
aI6
aa(lp511
I4
aI6
aI4
aI6
aI6
aa(lp512
I6
aI4
aI6
aI6
aa(lp513
I6
aI4
aI6
aI6
aa(lp514
I6
aI4
aI6
aI6
aa(lp515
I6
aI4
aI6
aI6
aa(lp516
I6
aI4
aI6
aI6
aa(lp517
I6
aI4
aI6
aI6
aa(lp518
I6
aI4
aI6
aI6
aa(lp519
I6
aI4
aI6
aI6
aa(lp520
I6
aI4
aI6
aI6
aa(lp521
I6
aI4
aI6
aa(lp522
I6
aI4
aI6
aa(lp523
I6
aa(lp524
I6
aa(lp525
I6
aa(lp526
I6
aa(lp527
I6
aa(lp528
I6
aI10
aI4
aa(lp529
I6
aI10
aI4
aa(lp530
I6
aI10
aI4
aa(lp531
I6
aI10
aI4
aa(lp532
I6
aI10
aI4
aa(lp533
I6
aI4
aa(lp534
I6
aI10
aI4
aa(lp535
I6
aI10
aI4
aa(lp536
I6
aI10
aI4
aa(lp537
I6
aI10
aI4
aa(lp538
I6
aI10
aI4
aI6
aa(lp539
I6
aI10
aI4
aI6
aa(lp540
I6
aI10
aI4
aI6
aa(lp541
I6
aI10
aI4
aI6
aa(lp542
I6
aI10
aI4
aI6
aa(lp543
I10
aI4
aI6
aa(lp544
I10
aI4
aI6
aa(lp545
I10
aI4
aI6
aa(lp546
I10
aI4
aI6
aa(lp547
I10
aI4
aI6
aa(lp548
I10
aI4
aI8
aI4
aI6
aa(lp549
I10
aI4
aI8
aI6
aa(lp550
I10
aI4
aI8
aI6
aa(lp551
I10
aI4
aI8
aI6
aI6
aa(lp552
I10
aI4
aI8
aI6
aI6
aa(lp553
I10
aI4
aI8
aI6
aI6
aa(lp554
I10
aI4
aI8
aI6
aI6
aa(lp555
I10
aI4
aI8
aI6
aI6
aa(lp556
I10
aI4
aI8
aI4
aI6
aI6
aa(lp557
I10
aI4
aI4
aI6
aI6
aa(lp558
I10
aI4
aI4
aI6
aI6
aa(lp559
I10
aI4
aI4
aI6
aI6
aI6
aa(lp560
I10
aI4
aI4
aI6
aI6
aI6
aa(lp561
I10
aI4
aI4
aI6
aI6
aI6
aa(lp562
I10
aI4
aI4
aI6
aI6
aI6
aa(lp563
I10
aI4
aI6
aI4
aI6
aI6
aa(lp564
I10
aI4
aI6
aI4
aI6
aI6
aa(lp565
I4
aI6
aI4
aI6
aI6
aa(lp566
I4
aI6
aI4
aI6
aI6
aa(lp567
I4
aI6
aI4
aI6
aI6
aa(lp568
I4
aI6
aI4
aI6
aI6
aa(lp569
I4
aI6
aI4
aI6
aI6
aa(lp570
I4
aI6
aI4
aI6
aI6
aa(lp571
I4
aI4
aI6
aI6
aa(lp572
I6
aI4
aI4
aI6
aa(lp573
I6
aI6
aI4
aI4
aI6
aa(lp574
I6
aI6
aI4
aI4
aI6
aa(lp575
I6
aI6
aI4
aI4
aI6
aa(lp576
I6
aI6
aI4
aI4
aI6
aa(lp577
I6
aI6
aI4
aI4
aI6
aa(lp578
I6
aI6
aI4
aI4
aI6
aa(lp579
I6
aI6
aI4
aI6
aI4
aI6
aa(lp580
I6
aI6
aI4
aI6
aI4
aa(lp581
I6
aI6
aI4
aI6
aI4
aa(lp582
I6
aI6
aI4
aI6
aI4
aa(lp583
I6
aI6
aI4
aI6
aI4
aa(lp584
I6
aI6
aI4
aI6
aI4
aa(lp585
I6
aI6
aI4
aI6
aI4
aa(lp586
I6
aI6
aI4
aI6
aI4
aa(lp587
I6
aI6
aI4
aI4
aa(lp588
I6
aI6
aI4
aI4
aa(lp589
I6
aI6
aI4
aI4
aa(lp590
I6
aI6
aI4
aI4
aa(lp591
I6
aI6
aI4
aI4
aa(lp592
I6
aI6
aI4
aI4
aa(lp593
I6
aI6
aI4
aI4
aa(lp594
I6
aI6
aI4
aI4
aa(lp595
I6
aI6
aI4
aI4
aa(lp596
I6
aI4
aI6
aI4
aI4
aa(lp597
I6
aI4
aI6
aI4
aI4
aa(lp598
I6
aI4
aI6
aI4
aI6
aI4
aa(lp599
I6
aI4
aI6
aI4
aI6
aI4
aa(lp600
I6
aI4
aI6
aI4
aI6
aI4
aa(lp601
I4
aI6
aI4
aI6
aI4
aa(lp602
I4
aI6
aI4
aI6
aI4
aI4
aa(lp603
I4
aI6
aI4
aI6
aI4
aI4
aa(lp604
I4
aI6
aI4
aI6
aI4
aI4
aa(lp605
I4
aI6
aI6
aI4
aI4
aa(lp606
I4
aI6
aI6
aI4
aI4
aa(lp607
I4
aI6
aI6
aI4
aa(lp608
I4
aI6
aI4
aI6
aI4
aa(lp609
I4
aI6
aI4
aI6
aa(lp610
I4
aI6
aI4
aI6
aa(lp611
I4
aI6
aI4
aI6
aa(lp612
I4
aI6
aI4
aI6
aa(lp613
I4
aI6
aI4
aI6
aa(lp614
I4
aI6
aI4
aI6
aa(lp615
I4
aI6
aI4
aI6
aa(lp616
I4
aI6
aI4
aI6
aa(lp617
I4
aI6
aI4
aI6
aa(lp618
I4
aI6
aI4
aI6
aa(lp619
I10
aI4
aI6
aI4
aI6
aa(lp620
I10
aI4
aI6
aI4
aI4
aI6
aa(lp621
I10
aI4
aI6
aI4
aI4
aI6
aa(lp622
I10
aI4
aI6
aI4
aI4
aI6
aa(lp623
I10
aI4
aI6
aI4
aI6
aI4
aa(lp624
I10
aI4
aI6
aI4
aI6
aI4
aa(lp625
I10
aI4
aI6
aI4
aI6
aI4
aa(lp626
I10
aI4
aI6
aI4
aI6
aI4
aa(lp627
I10
aI4
aI6
aI4
aI6
aI4
aa(lp628
I10
aI4
aI6
aI4
aI6
aI4
aa(lp629
I10
aI4
aI6
aI4
aI6
aI4
aa(lp630
I4
aI6
aI4
aI6
aI4
aa(lp631
I4
aI6
aI4
aI6
aI4
aa(lp632
I4
aI6
aI4
aI6
aI4
aa(lp633
I6
aI4
aI6
aI4
aa(lp634
I6
aI4
aI6
aI4
aa(lp635
I6
aI4
aI6
aI4
aa(lp636
I6
aI4
aI6
aI4
aa(lp637
I6
aI4
aI6
aI4
aa(lp638
I6
aI4
aI6
aI4
aa(lp639
I6
aI4
aI6
aI4
aa(lp640
I6
aI4
aI6
aI4
aa(lp641
I6
aI4
aI6
aI4
aa(lp642
I6
aI4
aI6
aI4
aa(lp643
I10
aI6
aI4
aI6
aI4
aa(lp644
I10
aI6
aI4
aI6
aI4
aa(lp645
I10
aI6
aI4
aI6
aI4
aa(lp646
I10
aI6
aI10
aI4
aI6
aI4
aa(lp647
I10
aI10
aI4
aI4
aa(lp648
I10
aI10
aI4
aI4
aa(lp649
I10
aI10
aI4
aI4
aa(lp650
I10
aI4
aI4
aa(lp651
I10
aI10
aI4
aa(lp652
I10
aI10
aI4
aa(lp653
I10
aI10
aI4
aa(lp654
I10
aI10
aI4
aa(lp655
I10
aI10
aI4
aa(lp656
I10
aI10
aI4
aa(lp657
I10
aI10
aI4
aa(lp658
I10
aI10
aI4
aa(lp659
I10
aI10
aI4
aa(lp660
I10
aI10
aI4
aa(lp661
I10
aI10
aI10
aI4
aa(lp662
I10
aI10
aI10
aI4
aa(lp663
I10
aI10
aI10
aI4
aa(lp664
I10
aI4
aa(lp665
I10
aI4
aa(lp666
I10
aI10
aI6
aI4
aa(lp667
I10
aI14
aI10
aI6
aI4
aa(lp668
I10
aI14
aI6
aI10
aI6
aI4
aa(lp669
I10
aI14
aI6
aI10
aI6
aI4
aa(lp670
I10
aI14
aI6
aI10
aI6
aI4
aa(lp671
I10
aI14
aI6
aI10
aI6
aI4
aa(lp672
I10
aI14
aI6
aI10
aI6
aI4
aa(lp673
I10
aI14
aI6
aI10
aI6
aI4
aa(lp674
I10
aI14
aI6
aI10
aI6
aI4
aa(lp675
I10
aI14
aI10
aI6
aI4
aa(lp676
I10
aI14
aI10
aI6
aI4
aa(lp677
I10
aI14
aI10
aI6
aI4
aa(lp678
I10
aI14
aI10
aI6
aa(lp679
I10
aI14
aI10
aI6
aa(lp680
I10
aI14
aI10
aI6
aa(lp681
I10
aI14
aI10
aI6
aa(lp682
I10
aI10
aI6
aa(lp683
I10
aI10
aI6
aa(lp684
I10
aI10
aI6
aa(lp685
I10
aI10
aI6
aa(lp686
I10
aI10
aI6
aa(lp687
I10
aI10
aI6
aa(lp688
I10
aI10
aI6
aa(lp689
I10
aI10
aI6
aa(lp690
I10
aI10
aI6
aa(lp691
I10
aI10
aI6
aa(lp692
I10
aI10
aI6
aa(lp693
I10
aI6
aa(lp694
I10
aI6
aa(lp695
I10
aI6
aa(lp696
I6
aa(lp697
I6
aa(lp698
I6
aa(lp699
I6
aa(lp700
I6
aa(lp701
I6
aa(lp702
I6
aa(lp703
I6
aa(lp704
I6
aa(lp705
I6
aa(lp706
I6
aa(lp707
I6
aa(lp708
I6
aa(lp709
I6
aa(lp710
I6
aa(lp711
I6
aa(lp712
I6
aa(lp713
I6
aa(lp714
I6
aa(lp715
I6
aa(lp716
I6
aa(lp717
I6
aa(lp718
I6
aa(lp719
I6
aa(lp720
I6
aa(lp721
I6
aa(lp722
I6
aa(lp723
I6
aa(lp724
I6
aa(lp725
I6
aa(lp726
I6
aa(lp727
I6
aa(lp728
a(lp729
a(lp730
a(lp731
a(lp732
a(lp733
a(lp734
a(lp735
a(lp736
a(lp737
a(lp738
a(lp739
a(lp740
a(lp741
a(lp742
a(lp743
a(lp744
a(lp745
I4
aa(lp746
I4
aa(lp747
I4
aa(lp748
I4
aa(lp749
I4
aa(lp750
I4
aa(lp751
I4
aa(lp752
I4
aa(lp753
I4
aa(lp754
I4
aa(lp755
I4
aa(lp756
I4
aa(lp757
I4
aa(lp758
I4
aa(lp759
I4
aa(lp760
I22
aI4
aa(lp761
I22
aI4
aa(lp762
I22
aI4
aa(lp763
I22
aI4
aa(lp764
I22
aI4
aa(lp765
I4
aa(lp766
I4
aa(lp767
I4
aa(lp768
I4
aa(lp769
I4
aI4
aa(lp770
I4
aI4
aa(lp771
I4
aI4
aa(lp772
I4
aI4
aa(lp773
I4
aI4
aa(lp774
I4
aI6
aI4
aa(lp775
I4
aI6
aI4
aa(lp776
I4
aI6
aI4
aa(lp777
I4
aI6
aI4
aa(lp778
I4
aI6
aI4
aa(lp779
I4
aI6
aI4
aa(lp780
I4
aI6
aI4
aa(lp781
I4
aI6
aI4
aa(lp782
I6
aI4
aI6
aI4
aa(lp783
I6
aI4
aI6
aI4
aa(lp784
I6
aI4
aI6
aI4
aI4
aa(lp785
I6
aI4
aI6
aI4
aI4
aa(lp786
I6
aI4
aI6
aI4
aa(lp787
I6
aI4
aI6
aI4
aa(lp788
I6
aI4
aI6
aI4
aa(lp789
I6
aI4
aI6
aI4
aa(lp790
I6
aI6
aI4
aI6
aI4
aa(lp791
I6
aI6
aI4
aI6
aI4
aa(lp792
I6
aI6
aI4
aI6
aI4
aa(lp793
I6
aI6
aI4
aI6
aI4
aa(lp794
I6
aI6
aI4
aI4
aa(lp795
I6
aI6
aI4
aI4
aa(lp796
I6
aI6
aI4
aI4
aa(lp797
I6
aI6
aI4
aI4
aa(lp798
I6
aI6
aI4
aI4
aa(lp799
I6
aI6
aI4
aI4
aa(lp800
I6
aI6
aI4
aI4
aa(lp801
I6
aI6
aI4
aI4
aI4
aI6
aa(lp802
I6
aI6
aI4
aI4
aI4
aI6
aa(lp803
I6
aI6
aI4
aI4
aI4
aI6
aa(lp804
I6
aI6
aI4
aI4
aI4
aI6
aa(lp805
I6
aI6
aI4
aI4
aI4
aI6
aa(lp806
I6
aI6
aI4
aI4
aI4
aI6
aa(lp807
I6
aI6
aI4
aI4
aI4
aI6
aa(lp808
I6
aI6
aI4
aI4
aI4
aI6
aa(lp809
I6
aI6
aI4
aI4
aI4
aI6
aa(lp810
I6
aI4
aI4
aI4
aI6
aa(lp811
I6
aI4
aI4
aI4
aI6
aa(lp812
I6
aI4
aI4
aI4
aI6
aa(lp813
I6
aI4
aI4
aI6
aI4
aa(lp814
I6
aI4
aI4
aI6
aI4
aa(lp815
I6
aI6
aI4
aI4
aI6
aI4
aa(lp816
I6
aI6
aI4
aI4
aI10
aI6
aI4
aa(lp817
I6
aI6
aI4
aI4
aI10
aI6
aI4
aa(lp818
I6
aI6
aI4
aI4
aI10
aI6
aI4
aa(lp819
I6
aI6
aI4
aI4
aI10
aI6
aI4
aa(lp820
I6
aI6
aI4
aI4
aI10
aI6
aI4
aa(lp821
I6
aI6
aI4
aI4
aI10
aI6
aI4
aa(lp822
I6
aI6
aI4
aI4
aI10
aI6
aI4
aa(lp823
I6
aI6
aI4
aI4
aI6
aI4
aa(lp824
I6
aI4
aI4
aI10
aI6
aI4
aa(lp825
I6
aI4
aI4
aI10
aI6
aa(lp826
I6
aI4
aI4
aI10
aI6
aa(lp827
I6
aI4
aI4
aI10
aI6
aa(lp828
I6
aI4
aI4
aI10
aI6
aa(lp829
I6
aI4
aI4
aI10
aI6
aa(lp830
I6
aI4
aI4
aI10
aI6
aa(lp831
I6
aI4
aI4
aI10
aI6
aa(lp832
I6
aI4
aI4
aI10
aI6
aa(lp833
I6
aI4
aI4
aI10
aI6
aa(lp834
I6
aI4
aI4
aI10
aI6
aa(lp835
I6
aI4
aI4
aI10
aI6
aa(lp836
I6
aI4
aI4
aI10
aI6
aa(lp837
I6
aI4
aI4
aI10
aI6
aa(lp838
I6
aI4
aI4
aI10
aI6
aa(lp839
I6
aI4
aI4
aI6
aa(lp840
I6
aI4
aI4
aI6
aa(lp841
I6
aI4
aI4
aI6
aa(lp842
I6
aI4
aI4
aI6
aa(lp843
I6
aI4
aI4
aI6
aa(lp844
I4
aI6
aa(lp845
I4
aI4
aI6
aa(lp846
I4
aI4
aI6
aa(lp847
I6
aI4
aI4
aI6
aa(lp848
I6
aI4
aI4
aI6
aa(lp849
I6
aI4
aI4
aa(lp850
I6
aI4
aI4
aa(lp851
I6
aI4
aI4
aa(lp852
I6
aI4
aI4
aa(lp853
I6
aI4
aI4
aa(lp854
I6
aI4
aI4
aa(lp855
I6
aI4
aI4
aI4
aa(lp856
I6
aI4
aI4
aI4
aa(lp857
I6
aI4
aI4
aa(lp858
I6
aI4
aI4
aa(lp859
I6
aI4
aI4
aa(lp860
I4
aI4
aa(lp861
I4
aI4
aa(lp862
I4
aI4
aa(lp863
I4
aI4
aa(lp864
I4
aI4
aa(lp865
I4
aI4
aa(lp866
I4
aI4
aI4
aa(lp867
I4
aI4
aI4
aa(lp868
I4
aI4
aI4
aa(lp869
I4
aI4
aI4
aa(lp870
I4
aI4
aI4
aa(lp871
I4
aI4
aI4
aa(lp872
I4
aI4
aI4
aa(lp873
I4
aI4
aI4
aa(lp874
I4
aI4
aI4
aa(lp875
I4
aI4
aI10
aI4
aa(lp876
I4
aI4
aI10
aI4
aa(lp877
I4
aI4
aI10
aI4
aa(lp878
I4
aI4
aI10
aI4
aa(lp879
I4
aI4
aI10
aI4
aa(lp880
I4
aI4
aI10
aI4
aa(lp881
I4
aI4
aI10
aI4
aa(lp882
I4
aI4
aI4
aa(lp883
I4
aI4
aa(lp884
I4
aI10
aI4
aa(lp885
I4
aI10
aI4
aa(lp886
I4
aI10
aI4
aa(lp887
I4
aI10
aI4
aa(lp888
I4
aI10
aI4
aa(lp889
I4
aI10
aI4
aa(lp890
I4
aI10
aI4
aa(lp891
I4
aI10
aI4
aa(lp892
I4
aI4
aa(lp893
I4
aI4
aa(lp894
I4
aI4
aa(lp895
I4
aI4
aa(lp896
I4
aI10
aI4
aa(lp897
I4
aI10
aI4
aa(lp898
I4
aI10
aI4
aa(lp899
I4
aI10
aI4
aa(lp900
I4
aI10
aI4
aa(lp901
I4
aI10
aI4
aa(lp902
I4
aI10
aI4
aa(lp903
I4
aI10
aI4
aa(lp904
I4
aI10
aI4
aa(lp905
I4
aI10
aI4
aa(lp906
I4
aI10
aI4
aa(lp907
I4
aI10
aI4
aa(lp908
I4
aI10
aI4
aa(lp909
I4
aI10
aI4
aa(lp910
I4
aI10
aI4
aa(lp911
I4
aI10
aI4
aa(lp912
I4
aI10
aI4
aa(lp913
I4
aI10
aI4
aa(lp914
I4
aI10
aI4
aa(lp915
I4
aI10
aI4
aa(lp916
I4
aI10
aI4
aI4
aa(lp917
I4
aI10
aI4
aI4
aa(lp918
I4
aI10
aI4
aI4
aa(lp919
I4
aI4
aI4
aa(lp920
I4
aI4
aI4
aa(lp921
I4
aI4
aI4
aa(lp922
I4
aI4
aI4
aa(lp923
I4
aI4
aI4
aa(lp924
I4
aI4
aI4
aa(lp925
I4
aI4
aI4
aa(lp926
I4
aI4
aI4
aa(lp927
I4
aI4
aI4
aa(lp928
I4
aI4
aI4
aa(lp929
I4
aI4
aa(lp930
I4
aI4
aa(lp931
I4
aI4
aa(lp932
I4
aI4
aa(lp933
I4
aI6
aI4
aa(lp934
I4
aI6
aI4
aa(lp935
I4
aI6
aI4
aa(lp936
I4
aI6
aI4
aa(lp937
I4
aI6
aI4
aa(lp938
I4
aI6
aI4
aa(lp939
I4
aI6
aI4
aa(lp940
I4
aI6
aI4
aa(lp941
I4
aI6
aI4
aa(lp942
I4
aI6
aI4
aI6
aa(lp943
I4
aI6
aI4
aI6
aa(lp944
I4
aI6
aI4
aI6
aa(lp945
I4
aI6
aI4
aI6
aa(lp946
I4
aI6
aI4
aI6
aa(lp947
I4
aI6
aI4
aI6
aa(lp948
I4
aI6
aI4
aI6
aa(lp949
I4
aI6
aI4
aI6
aa(lp950
I4
aI6
aI4
aI6
aa(lp951
I4
aI6
aI4
aI6
aa(lp952
I4
aI6
aI4
aI6
aa(lp953
I4
aI6
aI4
aI6
aa(lp954
I4
aI6
aI4
aI6
aa(lp955
I4
aI6
aI6
aa(lp956
I4
aI6
aI6
aa(lp957
I4
aI6
aI6
aa(lp958
I4
aI6
aI6
aa(lp959
I4
aI6
aI6
aa(lp960
I4
aI6
aI6
aa(lp961
I4
aI6
aI6
aa(lp962
I4
aI6
aI6
aa(lp963
I4
aI6
aI6
aa(lp964
I4
aI6
aI6
aa(lp965
I4
aI6
aa(lp966
I4
aI6
aa(lp967
I4
aI6
aa(lp968
I4
aI6
aa(lp969
I4
aI6
aI6
aa(lp970
I4
aI6
aI6
aa(lp971
I4
aI6
aI6
aa(lp972
I4
aI6
aI6
aa(lp973
I4
aI6
aI4
aI6
aa(lp974
I4
aI6
aI4
aI4
aI6
aa(lp975
I4
aI6
aI4
aI4
aa(lp976
I4
aI6
aI4
aI4
aa(lp977
I4
aI6
aI4
aI4
aI6
aa(lp978
I4
aI6
aI4
aI4
aa(lp979
I4
aI6
aI4
aI4
aa(lp980
I4
aI6
aI4
aI4
aa(lp981
I4
aI6
aI4
aI4
aa(lp982
I4
aI6
aI4
aI4
aa(lp983
I4
aI6
aI4
aI4
aa(lp984
I4
aI4
aI4
aa(lp985
I4
aI4
aI4
aa(lp986
I4
aI4
aI4
aa(lp987
I4
aI4
aI4
aa(lp988
I4
aI4
aI4
aa(lp989
I4
aI4
aI6
aI4
aa(lp990
I4
aI4
aI6
aI4
aa(lp991
I4
aI4
aI4
aa(lp992
I4
aI4
aI4
aI6
aa(lp993
I4
aI4
aI4
aI6
aa(lp994
I4
aI4
aI4
aI6
aa(lp995
I4
aI4
aI4
aI6
aa(lp996
I4
aI4
aI4
aI6
aa(lp997
I4
aI4
aI4
aI6
aa(lp998
I4
aI4
aI4
aI6
aa(lp999
I4
aI4
aI4
aI6
aa(lp1000
I4
aI4
aI4
aa(lp1001
I4
aI4
aI4
aa(lp1002
I4
aI4
aI4
aa(lp1003
I4
aI4
aa(lp1004
I4
aI4
aI6
aa(lp1005
I4
aI4
aI6
aa(lp1006
I4
aI4
aI4
aI6
aI6
aa(lp1007
I4
aI4
aI4
aI6
aa(lp1008
I4
aI4
aI4
aI6
aa(lp1009
I4
aI4
aI4
aI6
aa(lp1010
I4
aI4
aI6
aa(lp1011
I4
aI4
aI6
aa(lp1012
I4
aI4
aI4
aI6
aI4
aa(lp1013
I4
aI4
aI4
aI6
aI4
aa(lp1014
I4
aI4
aI4
aI6
aI4
aa(lp1015
I4
aI4
aI6
aI4
aa(lp1016
I4
aI4
aI4
aI6
aI4
aa(lp1017
I4
aI4
aI4
aI6
aI4
aa(lp1018
I4
aI4
aI4
aI6
aI4
aa(lp1019
I4
aI4
aI4
aI6
aI4
aa(lp1020
I4
aI4
aI4
aI6
aI4
aa(lp1021
I4
aI4
aI4
aI4
aa(lp1022
I4
aI4
aI4
aI4
aa(lp1023
I4
aI4
aI4
aI4
aa(lp1024
I4
aI4
aI4
aI4
aa(lp1025
I4
aI10
aI4
aI4
aI4
aa(lp1026
I4
aI10
aI4
aI4
aa(lp1027
I4
aI10
aI4
aI4
aa(lp1028
I4
aI10
aI4
aI4
aa(lp1029
I4
aI10
aI4
aI4
aa(lp1030
I4
aI10
aI4
aI4
aa(lp1031
I4
aI10
aI4
aI4
aa(lp1032
I4
aI10
aI4
aI4
aa(lp1033
I4
aI10
aI4
aI4
aa(lp1034
I4
aI10
aI4
aI4
aa(lp1035
I4
aI10
aI4
aI4
aa(lp1036
I4
aI10
aI4
aI4
aa(lp1037
I4
aI10
aI4
aI4
aa(lp1038
I4
aI10
aI4
aI4
aa(lp1039
I4
aI10
aI4
aI4
aa(lp1040
I4
aI10
aI4
aa(lp1041
I4
aI10
aI4
aa(lp1042
I10
aI4
aa(lp1043
I10
aI4
aa(lp1044
I10
aI4
aa(lp1045
I10
aI4
aa(lp1046
I10
aI4
aa(lp1047
I10
aI4
aa(lp1048
I10
aI4
aa(lp1049
I10
aI4
aa(lp1050
I10
aI4
aa(lp1051
I10
aI4
aa(lp1052
I10
aI4
aa(lp1053
I10
aI4
aa(lp1054
I10
aI4
aa(lp1055
I10
aI4
aa(lp1056
I10
aI4
aa(lp1057
I10
aI4
aa(lp1058
I10
aI10
aI4
aa(lp1059
I10
aI10
aI4
aa(lp1060
I10
aI10
aI4
aa(lp1061
I10
aI10
aI4
aa(lp1062
I10
aI10
aI4
aa(lp1063
I10
aI10
aI4
aa(lp1064
I10
aI10
aI4
aa(lp1065
I10
aI4
aa(lp1066
I4
aa(lp1067
I4
aa(lp1068
I4
aa(lp1069
I6
aI4
aa(lp1070
I6
aI4
aa(lp1071
I6
aa(lp1072
I6
aI10
aa(lp1073
I6
aI10
aa(lp1074
I10
aI4
aa(lp1075
I10
aI4
aa(lp1076
I10
aI4
aa(lp1077
I6
aI4
aa(lp1078
I6
aI4
aa(lp1079
I6
aI4
aa(lp1080
I6
aI4
aa(lp1081
I6
aI4
aa(lp1082
I6
aI4
aa(lp1083
I10
aI6
aI4
aa(lp1084
I10
aI6
aI4
aa(lp1085
I6
aI4
aa(lp1086
I6
aI4
aa(lp1087
I10
aI6
aI4
aa(lp1088
I6
aI4
aa(lp1089
I4
aa(lp1090
I4
aI8
aa(lp1091
I4
aI8
aa(lp1092
I4
aI8
aa(lp1093
I4
aI8
aa(lp1094
I4
aI8
aa(lp1095
I4
aI8
aa(lp1096
I8
aa(lp1097
a(lp1098
I6
aa(lp1099
I6
aa(lp1100
I6
aI6
aa(lp1101
I6
aI6
aa(lp1102
I6
aI6
aa(lp1103
I6
aI6
aa(lp1104
I6
aI6
aa(lp1105
I6
aI6
aa(lp1106
I6
aI6
aa(lp1107
I6
aa(lp1108
I6
aI6
aa(lp1109
I6
aI6
aa(lp1110
I6
aI6
aa(lp1111
I6
aI6
aa(lp1112
I6
aI6
aI6
aa(lp1113
I6
aI6
aI6
aI6
aa(lp1114
I6
aI6
aI6
aI6
aa(lp1115
I6
aI6
aI6
aI6
aa(lp1116
I6
aI6
aI6
aI6
aa(lp1117
I6
aI6
aI6
aI6
aa(lp1118
I6
aI6
aI6
aI6
aa(lp1119
I6
aI6
aI6
aa(lp1120
I6
aI6
aI6
aa(lp1121
I6
aI6
aI6
aa(lp1122
I6
aI6
aI6
aI6
aa(lp1123
I6
aI6
aI6
aI6
aa(lp1124
I6
aI6
aI6
aI6
aa(lp1125
I6
aI6
aI6
aI6
aa(lp1126
I6
aI6
aI6
aI6
aa(lp1127
I6
aI6
aI6
aI8
aa(lp1128
I6
aI6
aI6
aI8
aa(lp1129
I6
aI6
aI6
aI8
aa(lp1130
I6
aI6
aI6
aI8
aa(lp1131
I6
aI6
aI6
aI8
aa(lp1132
I6
aI6
aI6
aa(lp1133
I6
aI6
aI6
aa(lp1134
I6
aI6
aI6
aa(lp1135
I6
aI6
aI6
aa(lp1136
I6
aI6
aI6
aa(lp1137
I6
aI6
aI6
aa(lp1138
I6
aI6
aI6
aa(lp1139
I6
aI6
aI6
aa(lp1140
I6
aI6
aI6
aa(lp1141
I6
aI6
aI6
aa(lp1142
I6
aI6
aI6
aa(lp1143
I6
aI6
aI6
aa(lp1144
I6
aI6
aI6
aa(lp1145
I6
aI6
aI6
aa(lp1146
I6
aI6
aI6
aa(lp1147
I6
aI6
aI6
aa(lp1148
I6
aI6
aI6
aa(lp1149
I6
aI6
aa(lp1150
I6
aa(lp1151
I6
aa(lp1152
I6
aa(lp1153
I6
aa(lp1154
I6
aa(lp1155
I6
aI6
aa(lp1156
I6
aI6
aI6
aa(lp1157
I6
aI6
aa(lp1158
I6
aI6
aa(lp1159
I6
aI6
aa(lp1160
I6
aI6
aa(lp1161
I6
aa(lp1162
I6
aa(lp1163
I6
aa(lp1164
I6
aa(lp1165
I6
aa(lp1166
I6
aa(lp1167
I6
aa(lp1168
I6
aa(lp1169
I6
aa(lp1170
I6
aa(lp1171
I6
aa(lp1172
I6
aa(lp1173
I6
aa(lp1174
I6
aa(lp1175
I6
aa(lp1176
I6
aa(lp1177
I6
aa(lp1178
I6
aa(lp1179
I6
aI10
aa(lp1180
I6
aI10
aI4
aa(lp1181
I6
aI10
aI4
aa(lp1182
I6
aI10
aI4
aa(lp1183
I6
aI10
aI4
aa(lp1184
I6
aI10
aI4
aa(lp1185
I6
aI10
aI4
aa(lp1186
I6
aI10
aI4
aa(lp1187
I6
aI6
aI10
aI4
aa(lp1188
I6
aI6
aI10
aI4
aa(lp1189
I6
aI6
aI10
aI4
aI6
aa(lp1190
I6
aI6
aI10
aI4
aI6
aa(lp1191
I6
aI6
aI10
aI4
aI6
aa(lp1192
I6
aI6
aI10
aI4
aI6
aa(lp1193
I6
aI6
aI10
aI4
aI6
aa(lp1194
I6
aI6
aI10
aI4
aI6
aa(lp1195
I6
aI6
aI10
aI4
aI6
aa(lp1196
I6
aI6
aI10
aI4
aI6
aI6
aa(lp1197
I6
aI6
aI10
aI4
aI6
aI6
aa(lp1198
I6
aI6
aI10
aI4
aI6
aI6
aa(lp1199
I6
aI6
aI10
aI4
aI6
aI6
aa(lp1200
I6
aI6
aI10
aI4
aI6
aI6
aa(lp1201
I6
aI6
aI10
aI4
aI6
aI6
aa(lp1202
I6
aI6
aI10
aI4
aI6
aI6
aa(lp1203
I6
aI6
aI10
aI4
aI6
aI6
aa(lp1204
I6
aI6
aI10
aI4
aI6
aI6
aa(lp1205
I6
aI6
aI10
aI4
aI6
aI6
aa(lp1206
I6
aI6
aI10
aI4
aI6
aI6
aa(lp1207
I6
aI6
aI10
aI4
aI6
aI6
aa(lp1208
I6
aI6
aI10
aI4
aI6
aI6
aa(lp1209
I6
aI4
aI6
aI10
aI4
aI6
aI4
aI6
aa(lp1210
I6
aI4
aI6
aI10
aI4
aI6
aI4
aI6
aa(lp1211
I6
aI4
aI6
aI10
aI4
aI6
aI4
aI6
aa(lp1212
I6
aI4
aI6
aI10
aI4
aI4
aI6
aI4
aI6
aa(lp1213
I6
aI4
aI6
aI10
aI4
aI4
aI6
aI4
aI6
aI6
aa(lp1214
I6
aI4
aI6
aI10
aI4
aI4
aI6
aI4
aI6
aI6
aa(lp1215
I6
aI4
aI6
aI10
aI4
aI4
aI6
aI4
aI6
aI6
aa(lp1216
I6
aI4
aI6
aI10
aI4
aI4
aI6
aI4
aI6
aI6
aa(lp1217
I6
aI4
aI6
aI10
aI4
aI4
aI6
aI4
aI6
aI6
aa(lp1218
I4
aI6
aI10
aI4
aI6
aI4
aI6
aI6
aa(lp1219
I4
aI6
aI10
aI4
aI6
aI4
aI6
aa(lp1220
I4
aI6
aI10
aI4
aI6
aI4
aI6
aa(lp1221
I4
aI6
aI10
aI4
aI6
aI4
aI6
aa(lp1222
I4
aI6
aI10
aI4
aI6
aI4
aI6
aa(lp1223
I6
aI10
aI4
aI6
aI4
aI6
aa(lp1224
I6
aI10
aI4
aI6
aI4
aI6
aI6
aa(lp1225
I6
aI10
aI4
aI6
aI4
aI6
aI6
aa(lp1226
I6
aI4
aI6
aI4
aI6
aI6
aa(lp1227
I6
aI4
aI6
aI4
aI6
aI6
aa(lp1228
I6
aI4
aI6
aI4
aI6
aI6
aa(lp1229
I6
aI4
aI6
aI4
aI6
aI6
aa(lp1230
I6
aI4
aI6
aI4
aI6
aI6
aa(lp1231
I6
aI4
aI6
aI6
aa(lp1232
I6
aI4
aI6
aI6
aa(lp1233
I6
aI4
aI6
aI6
aa(lp1234
I6
aI4
aI6
aI6
aa(lp1235
I6
aI4
aI6
aI6
aa(lp1236
I6
aI4
aI6
aI6
aa(lp1237
I6
aI4
aI6
aI6
aa(lp1238
I6
aI4
aI6
aI6
aa(lp1239
I6
aI4
aI6
aI6
aa(lp1240
I6
aI4
aI6
aI6
aa(lp1241
I6
aI6
aI4
aI6
aI6
aa(lp1242
I6
aI6
aI4
aI6
aI6
aa(lp1243
I6
aI6
aI4
aI6
aI6
aa(lp1244
I6
aI6
aI4
aI6
aI6
aa(lp1245
I6
aI6
aI4
aI6
aI6
aa(lp1246
I6
aI6
aI4
aI6
aI6
aa(lp1247
I6
aI6
aI6
aI6
aa(lp1248
I6
aI6
aI4
aI6
aI6
aa(lp1249
I6
aI4
aI6
aI6
aa(lp1250
I6
aI4
aI6
aa(lp1251
I6
aI8
aI4
aI6
aa(lp1252
I6
aI8
aI4
aI6
aa(lp1253
I6
aI8
aI4
aI6
aa(lp1254
I6
aI8
aI4
aa(lp1255
I6
aI8
aI4
aa(lp1256
I6
aI8
aI4
aa(lp1257
I6
aI8
aI4
aa(lp1258
I6
aI8
aI4
aa(lp1259
I6
aI8
aI4
aa(lp1260
I6
aI8
aI4
aa(lp1261
I6
aI8
aI4
aa(lp1262
I6
aI8
aI4
aa(lp1263
I6
aI8
aa(lp1264
I6
aI8
aa(lp1265
I6
aI8
aa(lp1266
I6
aI8
aI6
aa(lp1267
I8
aI6
aa(lp1268
I8
aI6
aa(lp1269
I8
aa(lp1270
I8
aa(lp1271
I8
aa(lp1272
I8
aa(lp1273
I8
aI6
aa(lp1274
I8
aI6
aa(lp1275
I8
aI6
aa(lp1276
I8
aI6
aa(lp1277
I8
aI6
aa(lp1278
I8
aI6
aa(lp1279
I8
aI6
aa(lp1280
I8
aI6
aa(lp1281
I8
aI6
aa(lp1282
I8
aI6
aa(lp1283
I8
aI6
aa(lp1284
I8
aI6
aa(lp1285
I8
aI6
aa(lp1286
I8
aI6
aa(lp1287
I8
aI6
aa(lp1288
I8
aI6
aa(lp1289
I8
aI6
aa(lp1290
I8
aI6
aa(lp1291
I8
aI6
aa(lp1292
I8
aI6
aa(lp1293
I8
aI6
aa(lp1294
I8
aI6
aa(lp1295
I8
aI6
aa(lp1296
I6
aa(lp1297
I6
aa(lp1298
I6
aa(lp1299
I6
aa(lp1300
I6
aa(lp1301
I6
aa(lp1302
I6
aa(lp1303
I6
aa(lp1304
I6
aa(lp1305
I6
aa(lp1306
I6
aI6
aa(lp1307
I6
aI6
aa(lp1308
I6
aa(lp1309
I6
aa(lp1310
I6
aI6
aa(lp1311
I6
aI6
aa(lp1312
I6
aI6
aa(lp1313
I6
aI6
aI6
aa(lp1314
I6
aI6
aI6
aa(lp1315
I6
aI6
aI6
aa(lp1316
I6
aI6
aI6
aa(lp1317
I6
aI6
aI6
aa(lp1318
I6
aI6
aI6
aa(lp1319
I6
aI6
aI6
aa(lp1320
I6
aI6
aa(lp1321
I6
aI6
aa(lp1322
I6
aI6
aa(lp1323
I6
aI6
aa(lp1324
I6
aI6
aa(lp1325
I6
aa(lp1326
I6
aa(lp1327
I6
aa(lp1328
I6
aa(lp1329
a(lp1330
a(lp1331
a(lp1332
a(lp1333
a(lp1334
a(lp1335
a(lp1336
a(lp1337
I8
aa(lp1338
I8
aa(lp1339
I8
aI6
aa(lp1340
I8
aI6
aa(lp1341
I8
aI6
aa(lp1342
I8
aI6
aI8
aI6
aa(lp1343
I6
aI8
aI6
aa(lp1344
I6
aI8
aI6
aa(lp1345
I6
aI8
aI6
aa(lp1346
I6
aI8
aI6
aa(lp1347
I6
aI8
aI6
aa(lp1348
I6
aI8
aI6
aa(lp1349
I6
aI8
aI6
aa(lp1350
I6
aI8
aI6
aa(lp1351
I6
aI8
aI6
aa(lp1352
I6
aI8
aI6
aa(lp1353
I6
aI8
aI6
aa(lp1354
I6
aa(lp1355
I6
aa(lp1356
I6
aa(lp1357
I6
aI6
aa(lp1358
I6
aI6
aa(lp1359
I6
aI6
aa(lp1360
I6
aI6
aa(lp1361
I6
aI6
aa(lp1362
I6
aI6
aa(lp1363
I6
aI6
aa(lp1364
I6
aI6
aa(lp1365
I6
aI6
aa(lp1366
I6
aI6
aa(lp1367
I6
aI6
aa(lp1368
I6
aI6
aa(lp1369
I6
aa(lp1370
I6
aa(lp1371
I6
aI4
aa(lp1372
I6
aI4
aa(lp1373
I6
aI4
aa(lp1374
I6
aI4
aa(lp1375
I6
aI4
aa(lp1376
I6
aI4
aa(lp1377
I6
aI4
aa(lp1378
I6
aI4
aa(lp1379
I6
aI4
aa(lp1380
I6
aI4
aa(lp1381
I6
aI4
aa(lp1382
I6
aI4
aa(lp1383
I6
aI4
aa(lp1384
I6
aI4
aa(lp1385
I6
aI4
aa(lp1386
I6
aI4
aa(lp1387
I6
aI4
aa(lp1388
I6
aI4
aa(lp1389
I6
aI4
aa(lp1390
I6
aI4
aa(lp1391
I6
aI4
aa(lp1392
I16
aI6
aI4
aa(lp1393
I8
aI16
aI6
aI4
aa(lp1394
I8
aI16
aI6
aI4
aa(lp1395
I8
aI16
aI4
aI6
aI4
aa(lp1396
I8
aI16
aI4
aI4
aI6
aI4
aa(lp1397
I16
aI4
aI4
aI6
aI4
aa(lp1398
I16
aI4
aI4
aI6
aI4
aa(lp1399
I16
aI4
aI4
aI6
aI4
aa(lp1400
I4
aI16
aI4
aI4
aI6
aI4
aa(lp1401
I4
aI16
aI4
aI4
aI6
aI4
aa(lp1402
I4
aI16
aI4
aI4
aI6
aI4
aa(lp1403
I4
aI16
aI4
aI4
aI6
aI4
aa(lp1404
I4
aI16
aI4
aI4
aI6
aI4
aa(lp1405
I4
aI16
aI4
aI4
aI6
aI4
aa(lp1406
I4
aI16
aI4
aI4
aI6
aI4
aa(lp1407
I16
aI4
aI4
aI6
aI4
aa(lp1408
I16
aI4
aI4
aI6
aI4
aa(lp1409
I16
aI4
aI6
aI4
aa(lp1410
I4
aI6
aI4
aa(lp1411
I4
aI6
aI4
aa(lp1412
I4
aI4
aI4
aa(lp1413
I4
aI4
aI6
aI4
aa(lp1414
I4
aI4
aI4
aa(lp1415
I4
aI4
aI4
aa(lp1416
I4
aI4
aI4
aa(lp1417
I4
aI4
aI4
aa(lp1418
I4
aI4
aI4
aa(lp1419
I4
aI4
aI4
aa(lp1420
I4
aI4
aI4
aa(lp1421
I4
aI4
aI4
aa(lp1422
I4
aI4
aI4
aa(lp1423
I4
aI4
aI4
aa(lp1424
I4
aI4
aI4
aa(lp1425
I4
aI4
aI4
aa(lp1426
I4
aI4
aI4
aa(lp1427
I4
aI4
aI4
aa(lp1428
I4
aI4
aI4
aa(lp1429
I4
aI4
aI4
aa(lp1430
I4
aI4
aI4
aa(lp1431
I4
aI4
aI4
aa(lp1432
I4
aI4
aI4
aa(lp1433
I4
aI4
aI4
aa(lp1434
I4
aI4
aI4
aa(lp1435
I4
aI4
aI4
aa(lp1436
I4
aI4
aI4
aa(lp1437
I4
aI4
aI4
aa(lp1438
I4
aI4
aI4
aa(lp1439
I4
aI4
aI4
aa(lp1440
I4
aI4
aI4
aa(lp1441
I4
aI4
aI4
aa(lp1442
I4
aI4
aI4
aa(lp1443
I4
aI4
aI4
aa(lp1444
I4
aI4
aI4
aa(lp1445
I4
aI4
aI4
aa(lp1446
I4
aI4
aI4
aa(lp1447
I4
aI4
aI4
aa(lp1448
I4
aI4
aI4
aa(lp1449
I4
aI4
aI4
aa(lp1450
I4
aI4
aI4
aa(lp1451
I4
aI4
aI4
aa(lp1452
I4
aI4
aI6
aI4
aa(lp1453
I22
aI4
aI4
aI6
aI4
aa(lp1454
I22
aI4
aI4
aI4
aI6
aI4
aa(lp1455
I22
aI4
aI4
aI6
aI4
aa(lp1456
I22
aI4
aI4
aI6
aI4
aa(lp1457
I22
aI4
aI4
aI6
aI4
aa(lp1458
I22
aI4
aI4
aI6
aI4
aa(lp1459
I22
aI4
aI4
aI6
aI4
aa(lp1460
I22
aI4
aI4
aI6
aI4
aa(lp1461
I4
aI4
aI4
aI6
aI4
aa(lp1462
I4
aI4
aI4
aI6
aI4
aa(lp1463
I22
aI4
aI4
aI4
aI6
aI4
aa(lp1464
I22
aI4
aI4
aI4
aI6
aI4
aa(lp1465
I22
aI4
aI4
aI4
aI6
aI4
aa(lp1466
I22
aI4
aI4
aI4
aI6
aI4
aa(lp1467
I22
aI4
aI4
aI4
aI6
aI4
aa(lp1468
I22
aI4
aI4
aI4
aI6
aI4
aa(lp1469
I22
aI4
aI4
aI4
aI4
aa(lp1470
I22
aI4
aI4
aI4
aI4
aa(lp1471
I4
aI4
aI4
aI4
aa(lp1472
I4
aI4
aI4
aI4
aa(lp1473
I4
aI4
aI4
aI4
aa(lp1474
I10
aI4
aI4
aI4
aI4
aa(lp1475
I10
aI4
aI4
aI4
aI6
aa(lp1476
I4
aI4
aI4
aI6
aa(lp1477
I4
aI4
aI4
aI6
aa(lp1478
I4
aI4
aI4
aI6
aa(lp1479
I10
aI4
aI4
aI6
aa(lp1480
I4
aI10
aI4
aI4
aI6
aa(lp1481
I4
aI10
aI4
aI4
aI4
aI6
aa(lp1482
I4
aI10
aI4
aI4
aI4
aI6
aa(lp1483
I4
aI4
aI4
aI4
aI6
aa(lp1484
I4
aI4
aI4
aI4
aI6
aa(lp1485
I4
aI4
aI4
aI4
aI6
aa(lp1486
I4
aI4
aI4
aI4
aI6
aa(lp1487
I4
aI4
aI4
aI4
aI6
aa(lp1488
I4
aI4
aI4
aI4
aI6
aa(lp1489
I4
aI4
aI4
aI4
aI6
aa(lp1490
I4
aI6
aI4
aI4
aI6
aa(lp1491
I4
aI6
aI4
aI4
aI6
aa(lp1492
I4
aI14
aI6
aI4
aI4
aI6
aa(lp1493
I4
aI14
aI6
aI4
aI4
aI6
aa(lp1494
I4
aI14
aI6
aI4
aI4
aI4
aI6
aa(lp1495
I4
aI14
aI6
aI4
aI4
aI4
aI6
aa(lp1496
I4
aI14
aI6
aI4
aI4
aI4
aI6
aa(lp1497
I4
aI14
aI6
aI4
aI4
aI6
aa(lp1498
I4
aI14
aI6
aI4
aI4
aI6
aa(lp1499
I4
aI14
aI6
aI4
aI4
aI6
aa(lp1500
I4
aI14
aI6
aI4
aI4
aa(lp1501
I4
aI14
aI6
aI4
aI4
aI4
aa(lp1502
I4
aI14
aI6
aI4
aI4
aI4
aa(lp1503
I4
aI14
aI6
aI4
aI4
aa(lp1504
I4
aI14
aI6
aI4
aI4
aa(lp1505
I4
aI14
aI6
aI4
aI4
aa(lp1506
I4
aI14
aI6
aI4
aI4
aa(lp1507
I4
aI14
aI6
aI4
aI4
aa(lp1508
I4
aI14
aI6
aI4
aI4
aa(lp1509
I4
aI14
aI6
aI4
aI4
aa(lp1510
I4
aI14
aI6
aI4
aI4
aa(lp1511
I4
aI14
aI6
aI4
aI4
aa(lp1512
I4
aI14
aI6
aI4
aI4
aa(lp1513
I4
aI14
aI6
aI4
aI4
aa(lp1514
I4
aI14
aI6
aI4
aI4
aa(lp1515
I4
aI14
aI6
aI4
aI4
aa(lp1516
I4
aI14
aI6
aI4
aI4
aa(lp1517
I4
aI14
aI6
aI4
aI4
aa(lp1518
I4
aI14
aI4
aI4
aa(lp1519
I4
aI14
aI4
aI4
aa(lp1520
I4
aI14
aI4
aI4
aa(lp1521
I4
aI14
aI4
aI4
aa(lp1522
I4
aI14
aI6
aI4
aa(lp1523
I4
aI14
aI6
aI4
aa(lp1524
I4
aI14
aI6
aI4
aa(lp1525
I4
aI14
aI4
aI6
aI4
aa(lp1526
I4
aI14
aI4
aI6
aI4
aa(lp1527
I4
aI14
aI4
aI6
aI4
aa(lp1528
I4
aI14
aI4
aI6
aI4
aa(lp1529
I4
aI14
aI4
aI6
aI4
aa(lp1530
I4
aI14
aI4
aI6
aI4
aa(lp1531
I4
aI6
aI4
aa(lp1532
I4
aI6
aI4
aa(lp1533
I4
aI6
aI4
aa(lp1534
I4
aI6
aI4
aa(lp1535
I4
aI4
aI6
aI4
aa(lp1536
I4
aI4
aI6
aI4
aa(lp1537
I4
aI4
aI4
aI6
aI4
aa(lp1538
I4
aI4
aI4
aI6
aI4
aa(lp1539
I4
aI4
aI6
aI4
aa(lp1540
I4
aI4
aI6
aI4
aa(lp1541
I4
aI4
aI6
aI4
aa(lp1542
I4
aI4
aI6
aI4
aa(lp1543
I4
aI4
aI6
aI4
aa(lp1544
I4
aI8
aI6
aI4
aa(lp1545
I4
aI8
aI6
aI4
aa(lp1546
I4
aI4
aI8
aI6
aI4
aa(lp1547
I4
aI4
aI6
aI4
aa(lp1548
I4
aI4
aI6
aI4
aa(lp1549
I4
aI4
aI6
aI4
aa(lp1550
I4
aI4
aI6
aI4
aa(lp1551
I4
aI4
aI6
aI4
aa(lp1552
I4
aI4
aI6
aa(lp1553
I4
aI4
aI6
aa(lp1554
I4
aI4
aI6
aa(lp1555
I4
aI4
aI6
aa(lp1556
I4
aI4
aI6
aa(lp1557
I4
aI4
aI6
aa(lp1558
I4
aI6
aa(lp1559
I4
aI6
aa(lp1560
I8
aI6
aa(lp1561
I8
aI6
aI6
aa(lp1562
I8
aI6
aI6
aa(lp1563
I8
aI6
aI6
aa(lp1564
I8
aI4
aI6
aI6
aa(lp1565
I8
aI4
aI6
aI6
aa(lp1566
I8
aI4
aI6
aI6
aa(lp1567
I8
aI4
aI6
aI6
aa(lp1568
I8
aI4
aI6
aa(lp1569
I8
aI4
aI6
aa(lp1570
I8
aI4
aI6
aa(lp1571
I8
aI4
aI6
aa(lp1572
I8
aI4
aI6
aa(lp1573
I8
aI4
aI6
aa(lp1574
I4
aI8
aI4
aI6
aa(lp1575
I4
aI8
aI4
aI6
aa(lp1576
I4
aI8
aI4
aI6
aa(lp1577
I4
aI8
aI4
aI6
aa(lp1578
I4
aI8
aI4
aI4
aI6
aa(lp1579
I4
aI8
aI4
aI4
aI6
aa(lp1580
I4
aI4
aI4
aI6
aa(lp1581
I4
aI4
aI4
aI6
aa(lp1582
I4
aI4
aI6
aa(lp1583
I4
aI4
aI6
aa(lp1584
I4
aI4
aI6
aa(lp1585
I4
aI4
aI6
aa(lp1586
I4
aI4
aI6
aa(lp1587
I4
aI4
aI8
aI6
aa(lp1588
I4
aI4
aI8
aI6
aa(lp1589
I4
aI4
aI6
aa(lp1590
I4
aI4
aI4
aI6
aa(lp1591
I4
aI4
aI4
aI6
aa(lp1592
I4
aI4
aI4
aa(lp1593
I4
aI4
aI4
aa(lp1594
I4
aI4
aI4
aI4
aa(lp1595
I4
aI4
aI4
aI4
aa(lp1596
I4
aI4
aI4
aI4
aa(lp1597
I4
aI4
aI4
aI4
aa(lp1598
I4
aI4
aI4
aa(lp1599
I4
aI4
aI4
aa(lp1600
I4
aI4
aI4
aa(lp1601
I4
aI4
aI4
aa(lp1602
I4
aI4
aI4
aa(lp1603
I4
aI4
aI4
aa(lp1604
I4
aI4
aI4
aI6
aa(lp1605
I4
aI4
aI4
aI6
aa(lp1606
I4
aI4
aI4
aI6
aa(lp1607
I4
aI4
aI4
aI6
aa(lp1608
I4
aI4
aI4
aI6
aa(lp1609
I4
aI4
aI4
aI6
aa(lp1610
I4
aI4
aI4
aI6
aa(lp1611
I4
aI4
aI4
aI6
aa(lp1612
I4
aI4
aI4
aI6
aa(lp1613
I4
aI4
aI4
aI6
aa(lp1614
I4
aI4
aI4
aI6
aa(lp1615
I4
aI4
aI4
aI6
aa(lp1616
I4
aI4
aI4
aI6
aa(lp1617
I4
aI4
aI4
aI6
aa(lp1618
I4
aI4
aI4
aI6
aa(lp1619
I4
aI4
aI4
aI6
aa(lp1620
I4
aI4
aI4
aI6
aa(lp1621
I4
aI4
aI4
aI6
aa(lp1622
I4
aI4
aI4
aI6
aa(lp1623
I4
aI4
aI4
aI6
aa(lp1624
I4
aI4
aI4
aI6
aa(lp1625
I4
aI4
aI4
aI6
aa(lp1626
I4
aI4
aI4
aI6
aa(lp1627
I4
aI4
aI4
aI6
aa(lp1628
I4
aI4
aI4
aI6
aa(lp1629
I4
aI4
aI6
aa(lp1630
I4
aI4
aI6
aa(lp1631
I4
aI4
aI4
aI6
aa(lp1632
I4
aI4
aI6
aa(lp1633
I4
aI4
aI6
aa(lp1634
I4
aI4
aI6
aa(lp1635
I4
aI4
aI6
aa(lp1636
I4
aI4
aI6
aa(lp1637
I4
aI4
aI6
aa(lp1638
I4
aI4
aI6
aI8
aa(lp1639
I4
aI4
aI6
aI8
aa(lp1640
I4
aI4
aI6
aI8
aa(lp1641
I4
aI4
aI6
aI8
aa(lp1642
I4
aI4
aI6
aI8
aa(lp1643
I4
aI4
aI6
aI8
aa(lp1644
I4
aI4
aI6
aI8
aa(lp1645
I4
aI6
aI8
aa(lp1646
I4
aI6
aI8
aa(lp1647
I4
aI6
aI8
aa(lp1648
I4
aI6
aI8
aa(lp1649
I4
aI6
aI8
aa(lp1650
I4
aI6
aI6
aI8
aa(lp1651
I4
aI6
aI6
aI8
aa(lp1652
I4
aI6
aI6
aI8
aa(lp1653
I4
aI6
aI6
aI8
aa(lp1654
I4
aI6
aI6
aa(lp1655
I6
aI4
aI6
aI6
aa(lp1656
I6
aI4
aI6
aI6
aa(lp1657
I6
aI4
aI6
aI6
aa(lp1658
I6
aI4
aI6
aI6
aa(lp1659
I6
aI4
aI6
aI6
aa(lp1660
I6
aI4
aI6
aI6
aa(lp1661
I4
aI6
aI6
aa(lp1662
I4
aI6
aI6
aa(lp1663
I4
aI6
aI6
aa(lp1664
I4
aI6
aI6
aa(lp1665
I6
aI6
aa(lp1666
I6
aI6
aa(lp1667
I6
aI6
aI6
aa(lp1668
I6
aI6
aI6
aa(lp1669
I6
aI6
aI6
aa(lp1670
I6
aI6
aI6
aa(lp1671
I6
aI6
aI6
aa(lp1672
I6
aI6
aI6
aa(lp1673
I6
aI6
aI6
aa(lp1674
I6
aI6
aa(lp1675
I6
aI6
aa(lp1676
I6
aI6
aa(lp1677
I6
aI6
aa(lp1678
I6
aI6
aa(lp1679
I6
aI6
aa(lp1680
I6
aI6
aa(lp1681
I6
aI6
aa(lp1682
I6
aI6
aa(lp1683
I6
aI6
aa(lp1684
I6
aI6
aa(lp1685
I6
aI6
aa(lp1686
I6
aI6
aa(lp1687
I6
aI6
aa(lp1688
I6
aI6
aa(lp1689
I6
aI6
aa(lp1690
I6
aI6
aa(lp1691
I6
aI6
aa(lp1692
I6
aI6
aa(lp1693
I6
aI6
aI6
aa(lp1694
I6
aI6
aI6
aa(lp1695
I6
aI6
aI6
aa(lp1696
I6
aI6
aI6
aa(lp1697
I6
aI6
aI6
aa(lp1698
I6
aI6
aa(lp1699
I6
aI6
aa(lp1700
I6
aI6
aa(lp1701
I6
aI6
aa(lp1702
I6
aI6
aa(lp1703
I6
aI6
aa(lp1704
I6
aI6
aa(lp1705
I6
aI6
aa(lp1706
I6
aa(lp1707
I8
aI6
aa(lp1708
I8
aI6
aa(lp1709
I8
aI6
aa(lp1710
I8
aI6
aa(lp1711
I8
aI6
aa(lp1712
I8
aI6
aa(lp1713
I8
aI6
aa(lp1714
I8
aI6
aa(lp1715
I8
aI6
aa(lp1716
I8
aI6
aa(lp1717
I8
aI6
aa(lp1718
I8
aI10
aI6
aI6
aa(lp1719
I8
aI10
aI6
aI6
aa(lp1720
I8
aI10
aI6
aI6
aa(lp1721
I8
aI10
aI6
aI4
aI6
aa(lp1722
I8
aI10
aI6
aI4
aI6
aa(lp1723
I8
aI10
aI6
aI4
aI6
aI4
aa(lp1724
I8
aI10
aI6
aI4
aI6
aI4
aa(lp1725
I8
aI10
aI6
aI4
aI6
aI4
aa(lp1726
I8
aI10
aI6
aI4
aI6
aI4
aa(lp1727
I8
aI10
aI6
aI4
aI6
aI4
aa(lp1728
I8
aI10
aI6
aI4
aI6
aI4
aa(lp1729
I8
aI10
aI6
aI4
aI6
aI4
aa(lp1730
I8
aI10
aI6
aI4
aI6
aI4
aa(lp1731
I8
aI10
aI6
aI4
aI6
aI4
aa(lp1732
I8
aI10
aI6
aI4
aI6
aI4
aa(lp1733
I8
aI10
aI6
aI4
aI6
aI4
aa(lp1734
I10
aI6
aI4
aI6
aI4
aa(lp1735
I6
aI4
aI6
aI4
aa(lp1736
I6
aI4
aI6
aI4
aa(lp1737
I6
aI4
aI6
aI4
aa(lp1738
I6
aI4
aI6
aI4
aa(lp1739
I6
aI4
aI6
aI4
aa(lp1740
I10
aI6
aI4
aI6
aI4
aa(lp1741
I10
aI4
aI6
aI4
aa(lp1742
I10
aI4
aI6
aI4
aa(lp1743
I10
aI6
aI4
aI6
aI4
aa(lp1744
I10
aI6
aI4
aI6
aI4
aa(lp1745
I10
aI6
aI4
aI6
aI4
aa(lp1746
I10
aI6
aI4
aI6
aI4
aa(lp1747
I10
aI6
aI4
aI6
aI4
aa(lp1748
I10
aI6
aI4
aI6
aI4
aa(lp1749
I10
aI6
aI4
aI6
aI4
aI4
aa(lp1750
I10
aI6
aI4
aI6
aI4
aI4
aa(lp1751
I10
aI6
aI4
aI6
aI4
aI4
aa(lp1752
I10
aI6
aI4
aI6
aI4
aI4
aa(lp1753
I10
aI6
aI4
aI6
aI4
aI4
aa(lp1754
I10
aI6
aI4
aI6
aI4
aI4
aa(lp1755
I10
aI6
aI4
aI6
aI4
aI4
aa(lp1756
I10
aI6
aI4
aI6
aI4
aI4
aa(lp1757
I10
aI6
aI4
aI6
aI4
aI4
aa(lp1758
I10
aI6
aI4
aI6
aI4
aI4
aa(lp1759
I10
aI6
aI4
aI6
aI4
aI4
aa(lp1760
I10
aI6
aI6
aI4
aI6
aI4
aa(lp1761
I10
aI6
aI4
aI6
aI4
aa(lp1762
I10
aI6
aI4
aI6
aI4
aa(lp1763
I6
aI4
aI6
aI4
aa(lp1764
I6
aI6
aI4
aI6
aI4
aa(lp1765
I6
aI6
aI4
aI6
aI4
aa(lp1766
I6
aI6
aI4
aI6
aI4
aa(lp1767
I6
aI6
aI4
aI6
aI4
aa(lp1768
I6
aI6
aI4
aI6
aI4
aa(lp1769
I6
aI6
aI4
aI6
aI4
aa(lp1770
I6
aI6
aI4
aI6
aI4
aa(lp1771
I6
aI6
aI4
aI6
aI4
aa(lp1772
I6
aI6
aI4
aI6
aI4
aa(lp1773
I6
aI6
aI4
aI6
aI4
aa(lp1774
I6
aI6
aI4
aI6
aI4
aa(lp1775
I6
aI6
aI4
aI6
aI4
aa(lp1776
I6
aI6
aI4
aI6
aI4
aa(lp1777
I6
aI4
aI6
aI4
aa(lp1778
I6
aI4
aI6
aI4
aa(lp1779
I6
aI4
aI6
aI4
aa(lp1780
I6
aI4
aI6
aI4
aa(lp1781
I6
aI4
aI4
aa(lp1782
I6
aI4
aI4
aa(lp1783
I6
aI4
aI4
aa(lp1784
I6
aI4
aI4
aa(lp1785
I6
aI4
aI4
aa(lp1786
I6
aI4
aI4
aa(lp1787
I4
aI6
aI4
aI4
aa(lp1788
I4
aI6
aI4
aI4
aa(lp1789
I4
aI6
aI4
aI4
aa(lp1790
I4
aI6
aI4
aI4
aa(lp1791
I4
aI6
aI4
aI4
aa(lp1792
I4
aI6
aI4
aI4
aa(lp1793
I4
aI6
aI4
aI4
aa(lp1794
I4
aI6
aI4
aI4
aa(lp1795
I4
aI6
aI4
aI4
aa(lp1796
I4
aI6
aI4
aI4
aa(lp1797
I4
aI6
aI4
aI4
aa(lp1798
I6
aI4
aI4
aa(lp1799
I6
aI4
aa(lp1800
I6
aI4
aa(lp1801
I6
aa(lp1802
I6
aa(lp1803
I6
aa(lp1804
I6
aa(lp1805
I6
aI4
aa(lp1806
I6
aI4
aa(lp1807
I6
aI4
aa(lp1808
I6
aI4
aa(lp1809
I6
aI4
aa(lp1810
I6
aI4
aa(lp1811
I6
aI4
aa(lp1812
I6
aI4
aa(lp1813
I6
aI4
aa(lp1814
I6
aI4
aa(lp1815
I4
aI6
aI4
aI4
aa(lp1816
I4
aI6
aI4
aI4
aa(lp1817
I4
aI6
aI4
aI4
aa(lp1818
I4
aI6
aI4
aI4
aa(lp1819
I4
aI6
aI4
aI4
aa(lp1820
I4
aI6
aI4
aI4
aa(lp1821
I4
aI6
aI4
aI4
aa(lp1822
I4
aI6
aI4
aI4
aa(lp1823
I4
aI6
aI4
aI4
aa(lp1824
I4
aI6
aI4
aI4
aa(lp1825
I4
aI6
aI4
aI4
aa(lp1826
I4
aI6
aI4
aI4
aa(lp1827
I4
aI6
aI4
aI4
aa(lp1828
I4
aI6
aI4
aa(lp1829
I4
aI6
aI4
aa(lp1830
I4
aI4
aa(lp1831
I4
aI6
aI4
aa(lp1832
I4
aI6
aI4
aa(lp1833
I4
aI6
aI4
aa(lp1834
I4
aI6
aI4
aa(lp1835
I4
aI6
aI4
aa(lp1836
I4
aI6
aI4
aa(lp1837
I4
aI6
aI4
aa(lp1838
I4
aI6
aI4
aa(lp1839
I4
aI6
aa(lp1840
I4
aI6
aa(lp1841
I4
aI6
aa(lp1842
I4
aI6
aa(lp1843
I4
aI4
aa(lp1844
I4
aI4
aa(lp1845
I4
aI4
aa(lp1846
I4
aI4
aa(lp1847
I4
aI4
aa(lp1848
I4
aI4
aa(lp1849
I4
aI4
aa(lp1850
I4
aI4
aI6
aa(lp1851
I4
aI4
aI6
aa(lp1852
I4
aI4
aa(lp1853
I4
aI4
aa(lp1854
I4
aI4
aa(lp1855
I4
aI4
aa(lp1856
I4
aI4
aa(lp1857
I4
aI4
aa(lp1858
I4
aI4
aa(lp1859
I4
aI4
aa(lp1860
I4
aI4
aa(lp1861
I4
aI4
aa(lp1862
I4
aI4
aa(lp1863
I4
aI4
aa(lp1864
I4
aI4
aa(lp1865
I4
aI4
aa(lp1866
I4
aI4
aa(lp1867
I4
aI4
aa(lp1868
I4
aI4
aa(lp1869
I4
aI4
aa(lp1870
I4
aI4
aa(lp1871
I4
aI4
aa(lp1872
I4
aI4
aa(lp1873
I4
aI4
aa(lp1874
I4
aI4
aa(lp1875
I4
aI4
aa(lp1876
I4
aI4
aa(lp1877
I4
aI4
aa(lp1878
I4
aI4
aa(lp1879
I4
aI4
aa(lp1880
I4
aI4
aa(lp1881
I4
aI4
aa(lp1882
I4
aI4
aa(lp1883
I4
aI4
aa(lp1884
I4
aI4
aa(lp1885
I4
aI4
aa(lp1886
I4
aI4
aa(lp1887
I4
aI4
aa(lp1888
I4
aI4
aa(lp1889
I4
aI4
aa(lp1890
I4
aI4
aI4
aa(lp1891
I4
aI4
aa(lp1892
I4
aI4
aa(lp1893
I4
aI4
aa(lp1894
I4
aI4
aa(lp1895
I4
aI4
aa(lp1896
I4
aI4
aa(lp1897
I4
aI4
aa(lp1898
I4
aI4
aa(lp1899
I4
aI4
aa(lp1900
I4
aI4
aa(lp1901
I4
aI4
aa(lp1902
I4
aI4
aI4
aa(lp1903
I4
aI4
aI4
aa(lp1904
I4
aI4
aI4
aI4
aa(lp1905
I4
aI4
aI4
aI4
aa(lp1906
I4
aI4
aI4
aI4
aa(lp1907
I4
aI4
aI4
aI4
aa(lp1908
I4
aI4
aI4
aI4
aa(lp1909
I4
aI4
aI4
aI4
aa(lp1910
I4
aI4
aI4
aI4
aa(lp1911
I4
aI4
aI4
aI4
aa(lp1912
I4
aI4
aI4
aI4
aa(lp1913
I4
aI4
aI4
aI4
aa(lp1914
I4
aI4
aI4
aa(lp1915
I4
aI4
aI4
aa(lp1916
I4
aI4
aa(lp1917
I4
aI4
aa(lp1918
I4
aI4
aa(lp1919
I4
aI4
aa(lp1920
I4
aI4
aa(lp1921
I4
aI4
aa(lp1922
I4
aI4
aa(lp1923
I4
aI4
aa(lp1924
I4
aI4
aa(lp1925
I4
aI4
aa(lp1926
I4
aI4
aa(lp1927
I4
aI4
aa(lp1928
I4
aI4
aa(lp1929
I4
aI4
aa(lp1930
I4
aI4
aa(lp1931
I4
aI4
aa(lp1932
I4
aI4
aa(lp1933
I4
aI4
aa(lp1934
I4
aI4
aa(lp1935
I4
aI4
aa(lp1936
I4
aI4
aa(lp1937
I4
aI4
aI6
aa(lp1938
I4
aI4
aI6
aa(lp1939
I4
aI6
aa(lp1940
I4
aI6
aa(lp1941
I4
aI6
aa(lp1942
I4
aI6
aa(lp1943
I4
aI4
aI6
aa(lp1944
I4
aI4
aI6
aa(lp1945
I4
aI4
aI6
aa(lp1946
I4
aI4
aI6
aa(lp1947
I4
aI4
aI6
aa(lp1948
I4
aI4
aI6
aa(lp1949
I4
aI6
aa(lp1950
I4
aI4
aI6
aa(lp1951
I4
aI4
aI6
aa(lp1952
I4
aI4
aI6
aa(lp1953
I4
aI4
aI6
aa(lp1954
I4
aI4
aI6
aa(lp1955
I4
aI6
aa(lp1956
I4
aI6
aa(lp1957
I4
aI6
aa(lp1958
I4
aI6
aa(lp1959
I4
aI6
aa(lp1960
I4
aI6
aa(lp1961
I4
aI6
aa(lp1962
I4
aI6
aa(lp1963
I4
aI6
aa(lp1964
I4
aI6
aa(lp1965
I4
aI6
aa(lp1966
I4
aI6
aa(lp1967
I4
aI6
aa(lp1968
I4
aI6
aa(lp1969
I4
aI6
aa(lp1970
I4
aI6
aa(lp1971
I4
aI6
aa(lp1972
I4
aI6
aa(lp1973
I4
aI6
aa(lp1974
I4
aI6
aa(lp1975
I4
aI6
aa(lp1976
I6
aa(lp1977
I6
aa(lp1978
I6
aa(lp1979
I6
aa(lp1980
I6
aa(lp1981
I6
aa(lp1982
I6
aa(lp1983
I6
aa(lp1984
I6
aa(lp1985
I6
aa(lp1986
I6
aa(lp1987
I4
aI6
aa(lp1988
I4
aI6
aa(lp1989
I4
aI6
aa(lp1990
I4
aI6
aa(lp1991
I4
aI6
aa(lp1992
I4
aI6
aa(lp1993
I4
aI6
aa(lp1994
I4
aI6
aa(lp1995
I4
aI6
aa(lp1996
I4
aI6
aa(lp1997
I4
aI6
aa(lp1998
I4
aI6
aI4
aa(lp1999
I4
aI6
aI4
aa(lp2000
I4
aI6
aI4
aa(lp2001
I4
aI12
aI6
aI4
aa(lp2002
I4
aI6
aI4
aa(lp2003
I4
aI6
aI4
aa(lp2004
I4
aI6
aI4
aa(lp2005
I4
aI6
aI4
aa(lp2006
I4
aI6
aI4
aa(lp2007
I4
aI4
aa(lp2008
I4
aI4
aa(lp2009
I4
aI4
aa(lp2010
I4
aa(lp2011
I4
aa(lp2012
I4
aa(lp2013
I4
aI4
aa(lp2014
I4
aI4
aa(lp2015
I4
aI4
aa(lp2016
I4
aI4
aa(lp2017
I4
aI4
aa(lp2018
I4
aI4
aa(lp2019
I4
aa(lp2020
I4
aa(lp2021
I6
aI4
aa(lp2022
I6
aI4
aa(lp2023
I6
aI4
aa(lp2024
I6
aI4
aa(lp2025
I6
aI4
aa(lp2026
I6
aI4
aa(lp2027
I6
aI4
aa(lp2028
I6
aI4
aa(lp2029
I6
aI4
aa(lp2030
I6
aI6
aI4
aa(lp2031
I6
aI6
aI4
aa(lp2032
I6
aI6
aI4
aa(lp2033
I6
aI6
aI4
aa(lp2034
I6
aI6
aI4
aa(lp2035
I6
aI6
aI4
aa(lp2036
I6
aI6
aI4
aa(lp2037
I6
aI6
aI4
aa(lp2038
I6
aI6
aI4
aa(lp2039
I4
aI6
aI6
aI4
aa(lp2040
I4
aI6
aI6
aI4
aa(lp2041
I4
aI6
aI4
aa(lp2042
I4
aI6
aI4
aa(lp2043
I4
aI6
aI4
aa(lp2044
I4
aI6
aI4
aa(lp2045
I4
aI6
aI4
aa(lp2046
I4
aI6
aI4
aa(lp2047
I4
aI6
aI4
aa(lp2048
I4
aI6
aI4
aa(lp2049
I4
aI6
aI4
aa(lp2050
I4
aI6
aI4
aa(lp2051
I4
aI4
aI6
aI4
aa(lp2052
I4
aI4
aI6
aI4
aa(lp2053
I4
aI4
aI6
aI4
aa(lp2054
I4
aI4
aa(lp2055
I4
aI4
aa(lp2056
I4
aI4
aa(lp2057
I4
aI4
aa(lp2058
I4
aI4
aa(lp2059
I4
aI4
aa(lp2060
I4
aI6
aI4
aa(lp2061
I4
aI4
aa(lp2062
I4
aI4
aa(lp2063
I4
aI4
aa(lp2064
I4
aI4
aa(lp2065
I4
aI4
aa(lp2066
I4
aI4
aI4
aa(lp2067
I4
aI4
aI4
aa(lp2068
I4
aI4
aI4
aa(lp2069
I4
aI4
aI4
aa(lp2070
I4
aI4
aI4
aa(lp2071
I4
aI4
aI4
aa(lp2072
I4
aI4
aI4
aa(lp2073
I4
aI4
aI4
aa(lp2074
I4
aI4
aI4
aa(lp2075
I4
aI4
aI4
aa(lp2076
I4
aI4
aI4
aa(lp2077
I4
aI4
aa(lp2078
I4
aI4
aa(lp2079
I4
aI4
aa(lp2080
I4
aI4
aa(lp2081
I4
aI4
aa(lp2082
I4
aI4
aa(lp2083
I4
aI4
aa(lp2084
I4
aI4
aa(lp2085
I4
aI4
aa(lp2086
I4
aI4
aa(lp2087
I4
aI4
aa(lp2088
I4
aI4
aa(lp2089
I4
aI4
aa(lp2090
I4
aI4
aa(lp2091
I4
aI4
aa(lp2092
I4
aI4
aa(lp2093
I4
aI4
aa(lp2094
I4
aI4
aa(lp2095
I4
aI4
aa(lp2096
I6
aI4
aI4
aa(lp2097
I6
aI4
aI6
aI4
aI6
aa(lp2098
I6
aI4
aI6
aI4
aI6
aa(lp2099
I6
aI4
aI6
aI4
aI6
aa(lp2100
I6
aI4
aI4
aI6
aa(lp2101
I6
aI4
aI4
aI6
aa(lp2102
I6
aI4
aI4
aI6
aa(lp2103
I6
aI4
aI4
aI6
aa(lp2104
I6
aI4
aI4
aI6
aa(lp2105
I6
aI4
aI4
aI6
aa(lp2106
I6
aI4
aI4
aI6
aa(lp2107
I6
aI4
aI4
aI6
aa(lp2108
I6
aI4
aI4
aI6
aa(lp2109
I6
aI4
aI4
aI6
aa(lp2110
I6
aI4
aI4
aa(lp2111
I6
aI4
aI4
aa(lp2112
I6
aI4
aI4
aa(lp2113
I6
aI4
aI4
aa(lp2114
I6
aI4
aI4
aa(lp2115
I6
aI4
aI4
aa(lp2116
I6
aI4
aI4
aa(lp2117
I6
aI4
aI4
aa(lp2118
I6
aI4
aI4
aa(lp2119
I6
aI4
aI4
aa(lp2120
I6
aI4
aI4
aa(lp2121
I6
aI4
aI4
aa(lp2122
I6
aI4
aI4
aa(lp2123
I6
aI4
aI4
aa(lp2124
I6
aI4
aI4
aI4
aa(lp2125
I6
aI4
aI4
aI4
aa(lp2126
I6
aI4
aI4
aI4
aa(lp2127
I6
aI4
aI4
aI4
aa(lp2128
I6
aI4
aI4
aI4
aa(lp2129
I6
aI4
aI4
aI4
aa(lp2130
I6
aI4
aI6
aI4
aI4
aa(lp2131
I6
aI4
aI6
aI4
aI4
aa(lp2132
I6
aI4
aI6
aI4
aI4
aa(lp2133
I4
aI6
aI4
aI4
aa(lp2134
I4
aI6
aI4
aI4
aa(lp2135
I4
aI6
aI4
aI4
aa(lp2136
I4
aI6
aI4
aI4
aa(lp2137
I4
aI6
aI4
aI4
aa(lp2138
I4
aI6
aI4
aI4
aa(lp2139
I6
aI4
aI6
aI4
aI4
aa(lp2140
I6
aI4
aI6
aI4
aI4
aa(lp2141
I6
aI4
aI6
aI4
aI4
aa(lp2142
I6
aI4
aI6
aI4
aI4
aa(lp2143
I6
aI4
aI6
aI4
aI4
aa(lp2144
I6
aI4
aI6
aI4
aI4
aI4
aa(lp2145
I6
aI4
aI6
aI4
aI4
aI4
aa(lp2146
I6
aI4
aI6
aI4
aI4
aI4
aa(lp2147
I6
aI4
aI6
aI4
aI4
aI4
aa(lp2148
I6
aI4
aI6
aI4
aI4
aI4
aa(lp2149
I6
aI4
aI6
aI4
aI4
aI4
aa(lp2150
I6
aI4
aI6
aI4
aI4
aI4
aa(lp2151
I6
aI4
aI6
aI4
aI4
aI4
aa(lp2152
I6
aI4
aI6
aI4
aI4
aI4
aa(lp2153
I6
aI4
aI6
aI4
aI4
aI4
aa(lp2154
I6
aI4
aI6
aI4
aI4
aI4
aa(lp2155
I6
aI4
aI6
aI4
aI4
aI4
aa(lp2156
I6
aI4
aI6
aI4
aI4
aI4
aa(lp2157
I6
aI4
aI6
aI4
aI4
aa(lp2158
I4
aI6
aI4
aI4
aI6
aa(lp2159
I4
aI6
aI4
aI6
aa(lp2160
I4
aI6
aI4
aI6
aa(lp2161
I4
aI6
aI4
aI4
aI4
aI6
aa(lp2162
I4
aI6
aI4
aI4
aI4
aI6
aa(lp2163
I4
aI6
aI4
aI4
aI4
aI6
aa(lp2164
I4
aI6
aI4
aI4
aI4
aI6
aa(lp2165
I4
aI6
aI4
aI4
aI4
aI6
aa(lp2166
I4
aI6
aI4
aI4
aI4
aI6
aa(lp2167
I4
aI6
aI4
aI4
aI4
aI6
aa(lp2168
I4
aI6
aI4
aI4
aI4
aI4
aI6
aa(lp2169
I4
aI6
aI4
aI4
aI4
aI4
aI6
aa(lp2170
I4
aI6
aI4
aI4
aI4
aI4
aI6
aa(lp2171
I4
aI6
aI4
aI4
aI4
aI4
aI6
aa(lp2172
I4
aI6
aI4
aI4
aI4
aI4
aI6
aa(lp2173
I4
aI6
aI4
aI4
aI4
aI4
aI6
aa(lp2174
I4
aI6
aI4
aI4
aI4
aI4
aI6
aa(lp2175
I4
aI6
aI4
aI4
aI4
aI4
aI6
aa(lp2176
I4
aI6
aI4
aI6
aI4
aI4
aI4
aa(lp2177
I4
aI6
aI4
aI6
aI4
aI4
aI4
aa(lp2178
I4
aI6
aI6
aI4
aI4
aI4
aa(lp2179
I4
aI6
aI4
aI6
aI4
aI4
aI4
aa(lp2180
I4
aI6
aI4
aI6
aI4
aI4
aI4
aa(lp2181
I4
aI6
aI4
aI6
aI4
aI4
aI4
aa(lp2182
I4
aI6
aI4
aI6
aI4
aI4
aI4
aa(lp2183
I4
aI6
aI4
aI6
aI4
aI4
aa(lp2184
I4
aI6
aI4
aI6
aI4
aI4
aa(lp2185
I4
aI6
aI4
aI4
aI4
aa(lp2186
I4
aI6
aI4
aI4
aI4
aa(lp2187
I4
aI6
aI4
aI4
aa(lp2188
I4
aI6
aI4
aI4
aa(lp2189
I8
aI4
aI6
aI4
aI4
aa(lp2190
I8
aI4
aI6
aI4
aI4
aa(lp2191
I8
aI4
aI6
aI4
aI4
aa(lp2192
I8
aI4
aI6
aI4
aI4
aI4
aa(lp2193
I8
aI4
aI6
aI4
aI4
aa(lp2194
I8
aI4
aI4
aI4
aa(lp2195
I8
aI4
aI4
aI4
aa(lp2196
I8
aI4
aI4
aI4
aa(lp2197
I8
aI4
aI4
aI4
aa(lp2198
I8
aI4
aI4
aI4
aa(lp2199
I8
aI4
aI4
aI4
aa(lp2200
I8
aI4
aI4
aI4
aa(lp2201
I8
aI4
aI4
aI4
aa(lp2202
I8
aI4
aI4
aI4
aa(lp2203
I8
aI4
aI4
aI4
aa(lp2204
I8
aI4
aI4
aI4
aa(lp2205
I8
aI4
aI4
aI8
aI4
aa(lp2206
I8
aI4
aI4
aI8
aI4
aa(lp2207
I8
aI4
aI4
aI8
aI4
aa(lp2208
I8
aI4
aI4
aI8
aI4
aa(lp2209
I8
aI4
aI4
aI8
aI4
aa(lp2210
I8
aI4
aI4
aI8
aI4
aa(lp2211
I8
aI4
aI4
aI8
aI6
aI4
aa(lp2212
I4
aI4
aI8
aI6
aI4
aa(lp2213
I4
aI4
aI8
aI6
aI4
aa(lp2214
I4
aI4
aI8
aI6
aI4
aa(lp2215
I4
aI4
aI8
aI6
aI4
aa(lp2216
I4
aI4
aI8
aI6
aI4
aa(lp2217
I8
aI4
aI4
aI6
aI4
aa(lp2218
I8
aI4
aI4
aI6
aI4
aa(lp2219
I8
aI4
aI4
aI6
aI4
aa(lp2220
I8
aI4
aI4
aI6
aI4
aa(lp2221
I8
aI4
aI4
aI6
aI4
aa(lp2222
I8
aI4
aI4
aI8
aI6
aI4
aa(lp2223
I8
aI4
aI4
aI8
aI6
aI4
aa(lp2224
I8
aI4
aI8
aI6
aI4
aa(lp2225
I8
aI4
aI4
aI8
aI4
aa(lp2226
I8
aI4
aI4
aI8
aI4
aa(lp2227
I4
aI4
aI8
aI4
aa(lp2228
I4
aI4
aI8
aI4
aa(lp2229
I4
aI4
aI8
aI4
aa(lp2230
I4
aI4
aI8
aI4
aI6
aa(lp2231
I4
aI4
aI8
aI4
aI6
aa(lp2232
I4
aI4
aI8
aI4
aI6
aa(lp2233
I4
aI4
aI8
aI4
aI6
aa(lp2234
I4
aI4
aI8
aI4
aa(lp2235
I4
aI4
aI8
aI4
aa(lp2236
I4
aI4
aI8
aI4
aa(lp2237
I4
aI4
aI8
aI4
aa(lp2238
I4
aI4
aI8
aI4
aa(lp2239
I4
aI4
aI8
aI4
aa(lp2240
I4
aI4
aI8
aI4
aa(lp2241
I4
aI4
aI8
aI4
aa(lp2242
I4
aI4
aI8
aI4
aa(lp2243
I4
aI4
aI8
aI4
aa(lp2244
I4
aI4
aI8
aI4
aa(lp2245
I4
aI4
aI8
aI4
aa(lp2246
I4
aI4
aI8
aI4
aa(lp2247
I4
aI4
aI8
aI4
aa(lp2248
I4
aI4
aI8
aI4
aa(lp2249
I4
aI4
aI8
aI4
aa(lp2250
I4
aI4
aI4
aa(lp2251
I4
aI4
aI8
aI4
aa(lp2252
I4
aI4
aI8
aI4
aa(lp2253
I4
aI4
aI8
aI4
aa(lp2254
I4
aI4
aI8
aI4
aa(lp2255
I4
aI4
aI8
aI4
aa(lp2256
I4
aI6
aI4
aI4
aa(lp2257
I4
aI4
aI4
aa(lp2258
I4
aI4
aI4
aa(lp2259
I4
aI4
aI4
aa(lp2260
I4
aI4
aI4
aa(lp2261
I4
aI4
aI4
aa(lp2262
I4
aI4
aI4
aa(lp2263
I4
aI4
aI4
aa(lp2264
I4
aI4
aI4
aa(lp2265
I4
aI4
aI4
aa(lp2266
I4
aI4
aI4
aa(lp2267
I4
aI4
aI4
aa(lp2268
I4
aI4
aI4
aI4
aa(lp2269
I4
aI4
aI4
aI4
aa(lp2270
I4
aI4
aI4
aI4
aa(lp2271
I4
aI4
aI4
aI4
aa(lp2272
I4
aI4
aI4
aI4
aa(lp2273
I4
aI4
aI4
aI4
aa(lp2274
I4
aI4
aI4
aa(lp2275
I4
aI4
aI4
aa(lp2276
I4
aI4
aI4
aa(lp2277
I4
aI4
aI4
aa(lp2278
I4
aI4
aI4
aI4
aa(lp2279
I4
aI4
aI4
aI4
aa(lp2280
I4
aI4
aI4
aI4
aa(lp2281
I4
aI4
aI4
aI4
aa(lp2282
I4
aI4
aI4
aa(lp2283
I6
aI4
aI4
aI4
aa(lp2284
I6
aI4
aI4
aI4
aI4
aa(lp2285
I6
aI4
aI4
aI4
aI4
aa(lp2286
I6
aI4
aI4
aI4
aI4
aa(lp2287
I6
aI4
aI4
aI4
aI4
aa(lp2288
I6
aI4
aI4
aI4
aI4
aa(lp2289
I6
aI4
aI4
aI4
aI4
aa(lp2290
I6
aI4
aI4
aI4
aI4
aa(lp2291
I6
aI4
aI4
aI4
aI4
aa(lp2292
I6
aI4
aI4
aI4
aI4
aa(lp2293
I6
aI14
aI4
aI4
aI4
aI4
aa(lp2294
I6
aI14
aI4
aI8
aI4
aI4
aI4
aa(lp2295
I6
aI14
aI4
aI8
aI4
aI4
aI4
aa(lp2296
I6
aI14
aI4
aI8
aI4
aI4
aI4
aa(lp2297
I6
aI14
aI4
aI8
aI4
aI4
aI4
aa(lp2298
I4
aI6
aI14
aI4
aI8
aI4
aI4
aI4
aa(lp2299
I4
aI6
aI14
aI4
aI8
aI4
aI4
aI4
aa(lp2300
I4
aI6
aI14
aI4
aI8
aI4
aI4
aI4
aa(lp2301
I4
aI6
aI14
aI4
aI8
aI4
aI4
aI4
aa(lp2302
I4
aI6
aI4
aI8
aI4
aI4
aI4
aa(lp2303
I4
aI6
aI4
aI8
aI4
aI4
aI4
aa(lp2304
I4
aI6
aI4
aI8
aI4
aI4
aI4
aa(lp2305
I4
aI6
aI4
aI4
aI4
aI4
aa(lp2306
I4
aI6
aI4
aI4
aI4
aI4
aa(lp2307
I4
aI6
aI4
aI4
aI4
aa(lp2308
I4
aI6
aI4
aI4
aI4
aa(lp2309
I4
aI6
aI6
aI4
aI8
aI4
aI4
aI4
aa(lp2310
I4
aI6
aI6
aI4
aI8
aI4
aI4
aI4
aa(lp2311
I4
aI6
aI6
aI4
aI4
aI4
aI4
aa(lp2312
I4
aI6
aI6
aI4
aI4
aI4
aI4
aa(lp2313
I4
aI6
aI6
aI4
aI4
aI4
aI4
aa(lp2314
I4
aI6
aI6
aI4
aI4
aI4
aI4
aa(lp2315
I4
aI6
aI6
aI4
aI4
aI4
aI4
aa(lp2316
I4
aI6
aI4
aI4
aI4
aI4
aa(lp2317
I4
aI6
aI4
aI8
aI4
aI4
aa(lp2318
I4
aI6
aI4
aI8
aI4
aI4
aI6
aa(lp2319
I4
aI6
aI4
aI8
aI4
aI4
aI6
aa(lp2320
I4
aI6
aI4
aI8
aI4
aI4
aI6
aa(lp2321
I4
aI6
aI4
aI8
aI4
aI4
aI6
aa(lp2322
I4
aI6
aI4
aI8
aI4
aI4
aI6
aa(lp2323
I4
aI6
aI4
aI4
aI4
aI6
aa(lp2324
I4
aI6
aI4
aI4
aI4
aI6
aa(lp2325
I4
aI6
aI4
aI4
aI4
aI6
aa(lp2326
I4
aI6
aI4
aI4
aI4
aI6
aa(lp2327
I4
aI6
aI4
aI4
aI4
aa(lp2328
I4
aI6
aI4
aI4
aI4
aa(lp2329
I4
aI6
aI4
aI4
aI4
aa(lp2330
I4
aI6
aI4
aI4
aI4
aa(lp2331
I4
aI6
aI4
aI4
aI4
aa(lp2332
I4
aI6
aI4
aI4
aI4
aa(lp2333
I4
aI6
aI4
aI4
aI4
aa(lp2334
I4
aI6
aI4
aI4
aI4
aa(lp2335
I4
aI6
aI4
aI4
aI4
aa(lp2336
I4
aI6
aI4
aI4
aI4
aa(lp2337
I4
aI6
aI4
aI4
aI4
aa(lp2338
I4
aI6
aI4
aI4
aI4
aa(lp2339
I4
aI6
aI4
aI4
aI4
aa(lp2340
I4
aI6
aI4
aI4
aI4
aa(lp2341
I4
aI6
aI4
aI4
aI4
aa(lp2342
I4
aI6
aI4
aI4
aI4
aa(lp2343
I4
aI6
aI4
aI4
aI4
aa(lp2344
I4
aI6
aI4
aI4
aI4
aa(lp2345
I4
aI6
aI4
aI4
aI4
aa(lp2346
I4
aI6
aI4
aI4
aI4
aa(lp2347
I4
aI6
aI4
aI4
aI4
aa(lp2348
I4
aI6
aI4
aI4
aI4
aa(lp2349
I4
aI6
aI4
aI4
aI4
aa(lp2350
I4
aI6
aI4
aI4
aI4
aa(lp2351
I4
aI6
aI4
aI4
aI4
aa(lp2352
I4
aI6
aI4
aI10
aI4
aI4
aa(lp2353
I4
aI6
aI4
aI10
aI4
aI4
aa(lp2354
I4
aI6
aI4
aI4
aI4
aa(lp2355
I4
aI6
aI4
aI4
aI4
aa(lp2356
I4
aI6
aI4
aI4
aI4
aa(lp2357
I4
aI6
aI4
aI4
aI4
aa(lp2358
I18
aI4
aI6
aI4
aI4
aI4
aa(lp2359
I18
aI4
aI6
aI4
aI4
aI4
aa(lp2360
I18
aI4
aI6
aI4
aI4
aI4
aa(lp2361
I4
aI6
aI4
aI4
aI4
aa(lp2362
I4
aI6
aI4
aI4
aI4
aa(lp2363
I4
aI6
aI4
aI4
aI4
aa(lp2364
I4
aI6
aI4
aI4
aI4
aa(lp2365
I4
aI6
aI4
aI4
aI4
aa(lp2366
I18
aI4
aI6
aI4
aI4
aI6
aI4
aa(lp2367
I18
aI4
aI6
aI4
aI4
aI6
aI4
aa(lp2368
I18
aI4
aI6
aI4
aI4
aI6
aI4
aa(lp2369
I18
aI4
aI6
aI4
aI4
aI6
aI4
aa(lp2370
I18
aI4
aI6
aI4
aI4
aI6
aI4
aa(lp2371
I4
aI6
aI4
aI4
aI6
aI4
aa(lp2372
I4
aI6
aI4
aI4
aI6
aI4
aa(lp2373
I4
aI4
aI10
aI4
aI6
aI4
aa(lp2374
I4
aI10
aI4
aI6
aI4
aa(lp2375
I4
aI10
aI4
aI6
aI4
aa(lp2376
I18
aI4
aI10
aI4
aI6
aI4
aa(lp2377
I18
aI4
aI10
aI4
aI6
aI4
aa(lp2378
I18
aI4
aI10
aI4
aI6
aI4
aa(lp2379
I18
aI4
aI10
aI4
aI6
aI4
aa(lp2380
I18
aI4
aI10
aI4
aI6
aI4
aa(lp2381
I18
aI4
aI10
aI4
aI6
aI4
aa(lp2382
I18
aI6
aI4
aI10
aI4
aI6
aI4
aa(lp2383
I18
aI6
aI4
aI10
aI4
aI6
aI4
aa(lp2384
I18
aI6
aI4
aI10
aI4
aI6
aI4
aa(lp2385
I18
aI6
aI4
aI10
aI4
aI6
aI4
aa(lp2386
I18
aI6
aI4
aI10
aI4
aI6
aI4
aa(lp2387
I18
aI6
aI4
aI10
aI4
aI6
aI4
aa(lp2388
I18
aI6
aI4
aI10
aI4
aI6
aI4
aa(lp2389
I18
aI6
aI4
aI10
aI4
aI6
aI4
aa(lp2390
I18
aI6
aI4
aI10
aI4
aI6
aI4
aa(lp2391
I18
aI6
aI4
aI10
aI4
aI6
aI4
aa(lp2392
I18
aI10
aI6
aI4
aI10
aI4
aI6
aI4
aa(lp2393
I18
aI10
aI6
aI4
aI10
aI4
aI6
aI4
aa(lp2394
I18
aI10
aI6
aI4
aI10
aI4
aI6
aI4
aa(lp2395
I18
aI10
aI6
aI4
aI10
aI4
aI6
aI4
aa(lp2396
I18
aI10
aI6
aI4
aI10
aI4
aI6
aI4
aa(lp2397
I18
aI10
aI6
aI4
aI10
aI4
aI6
aI4
aa(lp2398
I18
aI6
aI4
aI10
aI4
aI4
aI6
aI4
aa(lp2399
I18
aI6
aI4
aI10
aI4
aI4
aI6
aI4
aa(lp2400
I18
aI6
aI4
aI10
aI4
aI4
aI6
aI4
aa(lp2401
I18
aI6
aI4
aI10
aI4
aI4
aI6
aI4
aa(lp2402
I18
aI10
aI6
aI4
aI10
aI4
aI4
aI6
aI4
aa(lp2403
I18
aI10
aI6
aI4
aI10
aI4
aI4
aI6
aI4
aa(lp2404
I18
aI10
aI6
aI4
aI10
aI4
aI4
aI4
aa(lp2405
I18
aI10
aI6
aI4
aI10
aI4
aI4
aI6
aI4
aa(lp2406
I18
aI10
aI6
aI4
aI10
aI4
aI4
aI6
aI4
aa(lp2407
I18
aI4
aI10
aI6
aI4
aI10
aI4
aI10
aI4
aI6
aI4
aa(lp2408
I18
aI4
aI10
aI6
aI4
aI10
aI4
aI4
aI6
aI4
aa(lp2409
I18
aI4
aI10
aI6
aI4
aI10
aI4
aI4
aI6
aI4
aa(lp2410
I18
aI4
aI10
aI6
aI4
aI10
aI4
aI4
aI6
aI4
aa(lp2411
I18
aI4
aI10
aI6
aI4
aI10
aI4
aI4
aI6
aI4
aa(lp2412
I18
aI4
aI10
aI6
aI4
aI10
aI4
aI4
aI6
aI4
aa(lp2413
I18
aI4
aI10
aI6
aI4
aI10
aI4
aI4
aI6
aI4
aa(lp2414
I18
aI4
aI10
aI6
aI4
aI10
aI4
aI4
aI6
aI4
aa(lp2415
I18
aI4
aI10
aI6
aI4
aI10
aI4
aI4
aI6
aI4
aa(lp2416
I18
aI4
aI10
aI6
aI4
aI10
aI4
aI4
aI4
aa(lp2417
I18
aI4
aI10
aI6
aI4
aI10
aI4
aI4
aI4
aa(lp2418
I18
aI4
aI10
aI6
aI4
aI10
aI4
aI4
aI4
aa(lp2419
I18
aI4
aI6
aI4
aI10
aI4
aI4
aI4
aa(lp2420
I18
aI4
aI10
aI6
aI4
aI10
aI4
aI4
aI4
aa(lp2421
I18
aI4
aI4
aI10
aI4
aI4
aI4
aa(lp2422
I4
aI4
aI10
aI4
aI4
aI4
aa(lp2423
I4
aI10
aI4
aI10
aI4
aI4
aI4
aa(lp2424
I4
aI4
aI10
aI4
aI10
aI4
aI4
aI4
aa(lp2425
I4
aI4
aI10
aI4
aI4
aI4
aI4
aa(lp2426
I4
aI4
aI10
aI4
aI4
aI4
aI4
aa(lp2427
I4
aI4
aI10
aI4
aI10
aI4
aI4
aI4
aa(lp2428
I4
aI4
aI10
aI4
aI10
aI4
aI4
aI4
aa(lp2429
I4
aI4
aI10
aI4
aI10
aI4
aI4
aI4
aa(lp2430
I4
aI4
aI10
aI4
aI10
aI4
aI4
aI4
aa(lp2431
I4
aI4
aI10
aI4
aI10
aI4
aI4
aI4
aa(lp2432
I4
aI4
aI10
aI4
aI10
aI4
aI4
aI4
aa(lp2433
I4
aI4
aI10
aI4
aI10
aI4
aI4
aI4
aa(lp2434
I4
aI4
aI10
aI4
aI10
aI4
aI4
aI4
aa(lp2435
I4
aI4
aI10
aI4
aI10
aI4
aI4
aI4
aa(lp2436
I4
aI4
aI10
aI4
aI6
aI10
aI4
aI4
aI4
aI8
aa(lp2437
I4
aI4
aI10
aI4
aI6
aI10
aI4
aI4
aI4
aI8
aa(lp2438
I4
aI4
aI10
aI4
aI6
aI10
aI4
aI4
aI4
aI8
aa(lp2439
I4
aI4
aI10
aI4
aI6
aI10
aI4
aI4
aI4
aI8
aa(lp2440
I4
aI4
aI10
aI4
aI6
aI10
aI4
aI4
aI4
aI8
aa(lp2441
I4
aI4
aI4
aI6
aI10
aI4
aI4
aI4
aI8
aa(lp2442
I4
aI4
aI4
aI6
aI10
aI4
aI4
aI4
aI8
aa(lp2443
I4
aI4
aI4
aI6
aI10
aI4
aI4
aI8
aa(lp2444
I4
aI4
aI4
aI6
aI10
aI4
aI4
aI8
aa(lp2445
I4
aI4
aI4
aI6
aI10
aI4
aI4
aI8
aa(lp2446
I4
aI4
aI10
aI4
aI6
aI10
aI4
aI4
aI8
aa(lp2447
I4
aI4
aI10
aI4
aI6
aI10
aI4
aI4
aI8
aa(lp2448
I4
aI4
aI10
aI4
aI6
aI10
aI4
aI4
aI8
aa(lp2449
I4
aI4
aI10
aI4
aI6
aI10
aI4
aI4
aI8
aa(lp2450
I4
aI4
aI10
aI4
aI6
aI10
aI4
aI4
aa(lp2451
I4
aI4
aI10
aI4
aI6
aI10
aI4
aI4
aI8
aa(lp2452
I4
aI4
aI10
aI4
aI6
aI10
aI4
aI4
aI8
aa(lp2453
I4
aI4
aI10
aI4
aI6
aI10
aI4
aI4
aI8
aa(lp2454
I4
aI4
aI10
aI4
aI6
aI10
aI4
aI4
aI8
aa(lp2455
I4
aI4
aI10
aI4
aI6
aI10
aI4
aI4
aI8
aa(lp2456
I4
aI4
aI10
aI4
aI6
aI10
aI4
aI4
aI8
aa(lp2457
I4
aI4
aI10
aI4
aI6
aI10
aI4
aI4
aI8
aa(lp2458
I4
aI4
aI10
aI4
aI6
aI10
aI4
aI4
aI8
aa(lp2459
I4
aI4
aI10
aI4
aI6
aI10
aI4
aI4
aI8
aa(lp2460
I4
aI4
aI10
aI4
aI6
aI10
aI4
aI4
aI8
aa(lp2461
I4
aI4
aI10
aI4
aI6
aI10
aI4
aI4
aI8
aa(lp2462
I4
aI4
aI10
aI4
aI6
aI10
aI4
aI4
aI8
aa(lp2463
I4
aI4
aI10
aI4
aI6
aI10
aI4
aI4
aI8
aa(lp2464
I4
aI4
aI10
aI4
aI6
aI10
aI8
aI4
aI8
aa(lp2465
I4
aI4
aI10
aI4
aI6
aI20
aI8
aI4
aI8
aa(lp2466
I4
aI4
aI10
aI4
aI6
aI20
aI8
aI4
aI8
aa(lp2467
I4
aI4
aI10
aI4
aI6
aI20
aI8
aI4
aa(lp2468
I4
aI4
aI10
aI4
aI6
aI20
aI8
aI4
aa(lp2469
I4
aI4
aI10
aI4
aI6
aI20
aI8
aI4
aa(lp2470
I4
aI4
aI10
aI4
aI6
aI20
aI8
aI4
aa(lp2471
I4
aI4
aI10
aI4
aI6
aI8
aI4
aa(lp2472
I4
aI4
aI10
aI4
aI6
aI8
aI4
aa(lp2473
I4
aI4
aI10
aI4
aI6
aI8
aI4
aa(lp2474
I4
aI4
aI10
aI4
aI6
aI8
aI4
aa(lp2475
I4
aI4
aI10
aI4
aI6
aI4
aa(lp2476
I4
aI4
aI10
aI4
aI6
aI4
aa(lp2477
I4
aI10
aI4
aI6
aI4
aa(lp2478
I4
aI10
aI4
aI6
aI4
aa(lp2479
I4
aI10
aI4
aI6
aI4
aa(lp2480
I4
aI10
aI4
aI20
aI4
aa(lp2481
I4
aI10
aI4
aI20
aI4
aa(lp2482
I4
aI10
aI4
aI20
aI4
aa(lp2483
I4
aI4
aI20
aI4
aa(lp2484
I4
aI4
aI6
aI20
aI4
aI8
aa(lp2485
I4
aI4
aI6
aI8
aI4
aI8
aa(lp2486
I4
aI4
aI6
aI4
aI8
aa(lp2487
I4
aI8
aI4
aI6
aI8
aI4
aI8
aa(lp2488
I4
aI8
aI4
aI6
aI8
aI4
aI8
aa(lp2489
I4
aI8
aI4
aI6
aI8
aI4
aa(lp2490
I4
aI8
aI4
aI6
aI8
aI4
aa(lp2491
I4
aI8
aI4
aI6
aI8
aa(lp2492
I4
aI8
aI4
aI6
aa(lp2493
I4
aI8
aI4
aI6
aI4
aa(lp2494
I8
aI4
aI6
aI4
aa(lp2495
I8
aI4
aI6
aI4
aI4
aa(lp2496
I8
aI4
aI6
aI4
aI4
aa(lp2497
I8
aI4
aI6
aI4
aI4
aa(lp2498
I8
aI4
aI6
aI4
aI4
aa(lp2499
I8
aI4
aI6
aI4
aI4
aa(lp2500
I8
aI4
aI6
aI4
aa(lp2501
I8
aI4
aI6
aI4
aa(lp2502
I8
aI4
aI6
aI4
aa(lp2503
I8
aI4
aI4
aI8
aa(lp2504
I8
aI4
aI6
aI4
aa(lp2505
I8
aI4
aI6
aI4
aa(lp2506
I8
aI4
aI6
aI4
aa(lp2507
I8
aI4
aI6
aI4
aa(lp2508
I8
aI4
aI6
aI4
aa(lp2509
I8
aI4
aI6
aI4
aa(lp2510
I8
aI4
aI6
aI4
aa(lp2511
I8
aI4
aI6
aI4
aa(lp2512
I8
aI4
aI6
aI4
aa(lp2513
I8
aI4
aI6
aI4
aa(lp2514
I8
aI4
aI6
aI4
aa(lp2515
I8
aI4
aI6
aI4
aa(lp2516
I8
aI4
aI6
aI4
aa(lp2517
I8
aI4
aI6
aI4
aa(lp2518
I8
aI4
aI6
aI4
aa(lp2519
I8
aI4
aI6
aI8
aI4
aa(lp2520
I8
aI4
aI6
aI4
aa(lp2521
I8
aI4
aI6
aI4
aa(lp2522
I8
aI4
aI6
aI4
aa(lp2523
I8
aI4
aI6
aI4
aa(lp2524
I8
aI4
aI6
aI4
aa(lp2525
I8
aI4
aI6
aI4
aa(lp2526
I8
aI4
aI6
aI4
aa(lp2527
I8
aI6
aI4
aa(lp2528
I8
aI6
aI4
aa(lp2529
I8
aI6
aI4
aa(lp2530
I8
aI6
aI8
aI4
aa(lp2531
I6
aI8
aI4
aa(lp2532
I6
aI8
aI4
aa(lp2533
I6
aI6
aI8
aI4
aa(lp2534
I6
aI6
aI8
aI4
aa(lp2535
I6
aI6
aI8
aI4
aa(lp2536
I6
aI6
aI8
aI4
aa(lp2537
I6
aI6
aI4
aa(lp2538
I6
aI6
aI4
aa(lp2539
I6
aI6
aI4
aa(lp2540
I6
aI6
aI4
aa(lp2541
I6
aI6
aI4
aa(lp2542
I6
aI4
aa(lp2543
I6
aI4
aa(lp2544
I6
aI4
aa(lp2545
I6
aI4
aa(lp2546
I6
aI4
aa(lp2547
I6
aI4
aa(lp2548
I6
aI4
aa(lp2549
I6
aI4
aa(lp2550
I6
aI4
aa(lp2551
I6
aI4
aa(lp2552
I6
aI4
aa(lp2553
I6
aI4
aa(lp2554
I6
aI4
aa(lp2555
I4
aa(lp2556
I4
aa(lp2557
I4
aI4
aa(lp2558
I4
aI4
aa(lp2559
I4
aI4
aa(lp2560
I4
aI4
aa(lp2561
I4
aI4
aa(lp2562
I4
aI4
aa(lp2563
I4
aa(lp2564
I4
aa(lp2565
I4
aa(lp2566
I4
aa(lp2567
I4
aI4
aa(lp2568
I4
aI4
aa(lp2569
I4
aa(lp2570
I4
aa(lp2571
I4
aa(lp2572
I4
aa(lp2573
I4
aa(lp2574
I4
aa(lp2575
I4
aa(lp2576
I10
aI4
aa(lp2577
I10
aI4
aa(lp2578
I10
aI4
aa(lp2579
I10
aI4
aa(lp2580
I10
aI4
aa(lp2581
I10
aI4
aa(lp2582
I10
aI4
aa(lp2583
I10
aI4
aa(lp2584
I10
aa(lp2585
I10
aa(lp2586
I10
aa(lp2587
a(lp2588
I10
aa(lp2589
I10
aI4
aa(lp2590
I10
aI4
aa(lp2591
I10
aI4
aa(lp2592
I10
aI4
aa(lp2593
I10
aI4
aa(lp2594
I10
aI4
aa(lp2595
I10
aI4
aa(lp2596
I10
aI8
aI4
aa(lp2597
I10
aI8
aI4
aa(lp2598
I10
aI8
aa(lp2599
I10
aI8
aa(lp2600
I10
aI8
aa(lp2601
I10
aI8
aa(lp2602
I10
aI8
aa(lp2603
I10
aI6
aI8
aa(lp2604
I10
aI6
aI8
aa(lp2605
I10
aI6
aI8
aa(lp2606
I10
aI6
aa(lp2607
I10
aI6
aa(lp2608
I10
aI6
aa(lp2609
I10
aI6
aa(lp2610
I10
aI6
aa(lp2611
I10
aI6
aI8
aa(lp2612
I10
aI6
aI8
aa(lp2613
I10
aI6
aI8
aa(lp2614
I10
aI6
aI8
aa(lp2615
I10
aI6
aI8
aI6
aa(lp2616
I10
aI6
aI6
aa(lp2617
I10
aI6
aI6
aa(lp2618
I10
aI6
aI6
aa(lp2619
I10
aI6
aI6
aa(lp2620
I10
aI6
aI6
aa(lp2621
I10
aI6
aI6
aa(lp2622
I10
aI6
aI6
aa(lp2623
I10
aI6
aI6
aI6
aa(lp2624
I10
aI6
aI6
aI6
aa(lp2625
I10
aI6
aI6
aI6
aI6
aa(lp2626
I10
aI6
aI6
aI8
aI6
aI6
aa(lp2627
I10
aI6
aI6
aI8
aI6
aI6
aa(lp2628
I10
aI6
aI6
aI8
aI6
aI6
aa(lp2629
I10
aI6
aI6
aI8
aI6
aI6
aa(lp2630
I10
aI6
aI6
aI6
aI8
aI6
aI6
aa(lp2631
I10
aI6
aI6
aI8
aI6
aI6
aa(lp2632
I10
aI6
aI6
aI8
aI6
aI4
aI6
aa(lp2633
I10
aI6
aI6
aI8
aI6
aI4
aa(lp2634
I10
aI6
aI6
aI6
aI6
aI4
aa(lp2635
I10
aI6
aI6
aI6
aI6
aI4
aa(lp2636
I10
aI6
aI6
aI6
aI8
aI6
aI4
aa(lp2637
I10
aI6
aI6
aI6
aI8
aI6
aI4
aa(lp2638
I10
aI6
aI6
aI6
aI4
aa(lp2639
I10
aI6
aI4
aI6
aI6
aI6
aI4
aa(lp2640
I10
aI6
aI4
aI6
aI6
aI6
aI4
aa(lp2641
I10
aI6
aI4
aI6
aI6
aI6
aI4
aa(lp2642
I10
aI4
aI6
aI6
aI6
aI4
aa(lp2643
I10
aI4
aI6
aI6
aI6
aI4
aa(lp2644
I10
aI4
aI6
aI6
aI6
aI4
aa(lp2645
I10
aI4
aI6
aI6
aI6
aI4
aa(lp2646
I10
aI4
aI6
aI6
aI4
aa(lp2647
I10
aI4
aI6
aI6
aI4
aa(lp2648
I10
aI4
aI6
aI6
aI4
aa(lp2649
I4
aI6
aI6
aI4
aa(lp2650
I4
aI6
aI6
aI4
aa(lp2651
I4
aI4
aI6
aI6
aI4
aa(lp2652
I4
aI4
aI6
aI6
aI4
aa(lp2653
I4
aI4
aI6
aI6
aI4
aa(lp2654
I4
aI4
aI6
aI4
aa(lp2655
I4
aI4
aI6
aI6
aI4
aa(lp2656
I4
aI4
aI6
aI6
aI4
aa(lp2657
I4
aI4
aI6
aI6
aI4
aa(lp2658
I4
aI4
aI6
aI6
aI4
aa(lp2659
I4
aI4
aI6
aI6
aI4
aa(lp2660
I4
aI4
aI6
aI6
aa(lp2661
I4
aI4
aI6
aI6
aa(lp2662
I4
aI4
aI6
aa(lp2663
I4
aI4
aI6
aI6
aa(lp2664
I4
aI4
aI6
aI6
aa(lp2665
I4
aI4
aI6
aI6
aa(lp2666
I4
aI4
aI6
aI6
aa(lp2667
I4
aI4
aI6
aI6
aa(lp2668
I4
aI4
aI6
aI6
aa(lp2669
I4
aI4
aI6
aI6
aa(lp2670
I4
aI4
aI6
aI6
aa(lp2671
I4
aI4
aI6
aI6
aa(lp2672
I4
aI4
aI6
aI6
aa(lp2673
I4
aI4
aI6
aa(lp2674
I4
aI4
aI6
aa(lp2675
I4
aI4
aI6
aI6
aa(lp2676
I4
aI6
aI6
aa(lp2677
I4
aI6
aI6
aa(lp2678
I4
aI4
aI6
aI6
aa(lp2679
I4
aI4
aI6
aa(lp2680
I4
aI4
aI6
aa(lp2681
I4
aI4
aI6
aI6
aa(lp2682
I4
aI4
aI6
aI6
aa(lp2683
I4
aI4
aI6
aI6
aI6
aa(lp2684
I4
aI4
aI6
aI6
aI6
aa(lp2685
I4
aI4
aI6
aI6
aI6
aa(lp2686
I4
aI4
aI6
aI6
aI6
aa(lp2687
I4
aI4
aI6
aI6
aI6
aa(lp2688
I4
aI4
aI6
aI6
aI6
aa(lp2689
I4
aI4
aI6
aI6
aI6
aa(lp2690
I4
aI4
aI6
aI6
aI6
aa(lp2691
I4
aI4
aI6
aI6
aI6
aa(lp2692
I4
aI4
aI6
aI6
aI6
aa(lp2693
I4
aI4
aI6
aI6
aI6
aa(lp2694
I4
aI4
aI6
aI6
aI6
aa(lp2695
I4
aI4
aI6
aI6
aI6
aa(lp2696
I4
aI4
aI6
aI6
aI6
aa(lp2697
I4
aI4
aI6
aI6
aa(lp2698
I4
aI4
aI6
aI6
aa(lp2699
I4
aI4
aI6
aI6
aa(lp2700
I4
aI4
aI6
aI6
aa(lp2701
I12
aI4
aI4
aI6
aI6
aa(lp2702
I12
aI4
aI4
aI6
aI6
aI6
aa(lp2703
I12
aI4
aI4
aI6
aI6
aI6
aa(lp2704
I12
aI4
aI4
aI6
aI6
aI6
aa(lp2705
I12
aI4
aI4
aI6
aI6
aa(lp2706
I12
aI6
aI6
aa(lp2707
I12
aI6
aI6
aa(lp2708
I4
aI6
aI4
aI6
aa(lp2709
I4
aI6
aI4
aI6
aa(lp2710
I4
aI6
aI4
aI6
aa(lp2711
I8
aI4
aI6
aI4
aI6
aa(lp2712
I8
aI4
aI6
aI4
aI6
aa(lp2713
I8
aI4
aI6
aI4
aI6
aa(lp2714
I4
aI6
aI4
aI6
aa(lp2715
I4
aI6
aI4
aI6
aa(lp2716
I6
aI4
aI6
aa(lp2717
I6
aI4
aI6
aa(lp2718
I6
aI4
aI6
aa(lp2719
I6
aI4
aI6
aa(lp2720
I6
aI4
aI6
aa(lp2721
I6
aI6
aa(lp2722
I6
aI6
aa(lp2723
I6
aI6
aa(lp2724
I6
aI6
aa(lp2725
I6
aI6
aa(lp2726
I6
aI6
aa(lp2727
I6
aa(lp2728
I6
aI6
aa(lp2729
I6
aI6
aI4
aI6
aa(lp2730
I4
aI6
aI6
aI4
aI6
aa(lp2731
I4
aI6
aI6
aI4
aI6
aa(lp2732
I4
aI6
aI4
aI6
aI4
aI6
aa(lp2733
I4
aI6
aI4
aI6
aI4
aI6
aa(lp2734
I4
aI6
aI4
aI6
aI4
aI6
aa(lp2735
I4
aI6
aI4
aI6
aI4
aI6
aa(lp2736
I4
aI6
aI4
aI6
aI4
aI6
aa(lp2737
I4
aI6
aI4
aI6
aI4
aI6
aa(lp2738
I4
aI4
aI6
aI4
aI6
aa(lp2739
I4
aI4
aI6
aI4
aI6
aa(lp2740
I4
aI4
aI6
aI4
aI6
aa(lp2741
I4
aI4
aI6
aI4
aI6
aa(lp2742
I4
aI4
aI4
aI6
aa(lp2743
I4
aI6
aI4
aI6
aa(lp2744
I4
aI6
aI4
aI6
aa(lp2745
I4
aI6
aI4
aI6
aa(lp2746
I4
aI6
aI4
aI6
aa(lp2747
I4
aI6
aI4
aI6
aa(lp2748
I4
aI6
aI4
aI6
aa(lp2749
I4
aI6
aI4
aI6
aa(lp2750
I6
aI4
aI6
aa(lp2751
I6
aI4
aI6
aa(lp2752
I6
aI4
aI6
aa(lp2753
I6
aI4
aI6
aa(lp2754
I6
aI4
aI6
aa(lp2755
I6
aI4
aI6
aa(lp2756
I6
aI4
aI6
aa(lp2757
I6
aI4
aI6
aa(lp2758
I6
aI4
aI6
aa(lp2759
I6
aI6
aa(lp2760
I6
aI4
aa(lp2761
I6
aI4
aa(lp2762
I6
aI4
aa(lp2763
I6
aI4
aa(lp2764
I6
aI4
aa(lp2765
I6
aI4
aa(lp2766
I6
aI4
aa(lp2767
I6
aI4
aa(lp2768
I6
aI4
aa(lp2769
I6
aI4
aa(lp2770
I6
aI4
aa(lp2771
I6
aI4
aa(lp2772
I6
aI4
aa(lp2773
I6
aI4
aa(lp2774
I6
aI4
aa(lp2775
I6
aI4
aa(lp2776
I6
aI4
aa(lp2777
I6
aI4
aa(lp2778
I6
aI6
aI4
aa(lp2779
I6
aI6
aI4
aa(lp2780
I6
aI6
aI4
aa(lp2781
I6
aI6
aI4
aa(lp2782
I6
aI6
aI4
aa(lp2783
I6
aI6
aI4
aa(lp2784
I6
aI6
aI4
aa(lp2785
I6
aI6
aI4
aa(lp2786
I6
aI6
aI4
aI4
aa(lp2787
I6
aI6
aI4
aI4
aa(lp2788
I6
aI6
aI4
aI4
aa(lp2789
I6
aI6
aI4
aI4
aa(lp2790
I6
aI6
aI6
aI4
aI4
aa(lp2791
I6
aI6
aI6
aI4
aI4
aa(lp2792
I6
aI6
aI4
aI4
aa(lp2793
I6
aI6
aI4
aI4
aa(lp2794
I6
aI6
aI4
aI4
aa(lp2795
I6
aI6
aI4
aa(lp2796
I6
aI6
aI4
aa(lp2797
I6
aI6
aI4
aI4
aa(lp2798
I6
aI6
aI4
aI4
aa(lp2799
I6
aI6
aI4
aI4
aa(lp2800
I6
aI6
aI4
aI4
aa(lp2801
I6
aI6
aI4
aI4
aa(lp2802
I6
aI6
aI6
aI4
aI4
aa(lp2803
I6
aI6
aI6
aI4
aI4
aa(lp2804
I6
aI6
aI6
aI4
aI4
aa(lp2805
I6
aI6
aI4
aa(lp2806
I6
aI6
aI4
aa(lp2807
I6
aI6
aI4
aa(lp2808
I6
aI6
aI4
aa(lp2809
I6
aI6
aI4
aa(lp2810
I6
aI6
aI4
aa(lp2811
I6
aI6
aI4
aa(lp2812
I6
aI6
aI8
aI4
aa(lp2813
I6
aI6
aI8
aI4
aa(lp2814
I6
aI6
aI8
aI4
aa(lp2815
I6
aI6
aI8
aI4
aa(lp2816
I6
aI6
aI8
aI4
aa(lp2817
I6
aI6
aI8
aI4
aa(lp2818
I6
aI6
aI8
aI4
aa(lp2819
I6
aI6
aI8
aI4
aa(lp2820
I6
aI6
aI8
aI4
aa(lp2821
I6
aI6
aI8
aI4
aa(lp2822
I6
aI6
aI8
aI4
aa(lp2823
I6
aI6
aI8
aI4
aa(lp2824
I6
aI6
aI8
aI4
aI12
aa(lp2825
I6
aI6
aI8
aI4
aI12
aa(lp2826
I6
aI6
aI8
aI4
aI12
aa(lp2827
I6
aI6
aI8
aI4
aI12
aa(lp2828
I6
aI6
aI8
aI4
aI12
aa(lp2829
I6
aI6
aI8
aI4
aI12
aa(lp2830
I6
aI6
aI4
aI8
aI4
aI12
aa(lp2831
I6
aI6
aI4
aI8
aI4
aI12
aa(lp2832
I6
aI6
aI4
aI8
aI4
aI12
aa(lp2833
I6
aI6
aI4
aI8
aI4
aI12
aa(lp2834
I6
aI6
aI6
aI4
aI8
aI4
aI12
aa(lp2835
I6
aI6
aI6
aI4
aI8
aI4
aI12
aa(lp2836
I6
aI6
aI6
aI4
aI8
aI4
aI12
aa(lp2837
I6
aI6
aI6
aI4
aI8
aI4
aI12
aa(lp2838
I6
aI6
aI6
aI4
aI4
aI12
aa(lp2839
I6
aI6
aI6
aI4
aI4
aI12
aa(lp2840
I6
aI6
aI6
aI4
aI4
aI12
aa(lp2841
I6
aI6
aI6
aI4
aI4
aI12
aa(lp2842
I6
aI6
aI6
aI4
aI4
aI6
aI12
aa(lp2843
I6
aI6
aI6
aI4
aI4
aI6
aI12
aa(lp2844
I6
aI6
aI6
aI4
aI4
aI6
aI12
aa(lp2845
I6
aI6
aI6
aI4
aI4
aI6
aI12
aa(lp2846
I6
aI6
aI6
aI4
aI4
aI6
aI12
aa(lp2847
I6
aI6
aI6
aI4
aI4
aI6
aI12
aa(lp2848
I6
aI6
aI6
aI4
aI4
aI6
aI12
aa(lp2849
I6
aI6
aI6
aI4
aI4
aI6
aI12
aa(lp2850
I6
aI6
aI6
aI4
aI6
aI12
aa(lp2851
I6
aI6
aI6
aI4
aI6
aI12
aa(lp2852
I6
aI6
aI6
aI4
aI6
aI12
aa(lp2853
I6
aI6
aI6
aI4
aI4
aI6
aI6
aI12
aa(lp2854
I6
aI6
aI6
aI4
aI6
aI6
aI6
aI12
aa(lp2855
I6
aI6
aI6
aI4
aI4
aI6
aI6
aI6
aI12
aa(lp2856
I6
aI6
aI6
aI4
aI4
aI6
aI6
aI6
aI12
aa(lp2857
I6
aI6
aI6
aI4
aI4
aI6
aI6
aI6
aI12
aa(lp2858
I6
aI6
aI6
aI4
aI4
aI6
aI6
aI6
aI12
aa(lp2859
I6
aI6
aI6
aI4
aI4
aI6
aI6
aI6
aI12
aa(lp2860
I6
aI6
aI6
aI4
aI6
aI6
aI6
aI12
aa(lp2861
I6
aI6
aI6
aI4
aI6
aI6
aI4
aI12
aa(lp2862
I6
aI6
aI6
aI4
aI6
aI6
aI4
aI12
aa(lp2863
I6
aI6
aI6
aI4
aI6
aI6
aI4
aI12
aa(lp2864
I6
aI6
aI6
aI4
aI6
aI6
aI4
aI12
aa(lp2865
I6
aI6
aI6
aI4
aI6
aI6
aI4
aI12
aa(lp2866
I6
aI6
aI6
aI4
aI6
aI4
aI12
aa(lp2867
I6
aI6
aI6
aI4
aI6
aI4
aI12
aa(lp2868
I6
aI6
aI6
aI4
aI6
aI6
aI4
aI12
aa(lp2869
I6
aI6
aI6
aI4
aI6
aI6
aI4
aI12
aa(lp2870
I6
aI6
aI6
aI4
aI6
aI4
aI12
aa(lp2871
I6
aI6
aI6
aI4
aI4
aI6
aI4
aI12
aa(lp2872
I6
aI6
aI6
aI4
aI4
aI6
aI4
aI12
aa(lp2873
I6
aI6
aI6
aI4
aI4
aI6
aI4
aI12
aa(lp2874
I6
aI6
aI6
aI4
aI4
aI6
aI4
aI12
aa(lp2875
I6
aI6
aI6
aI4
aI4
aI6
aI4
aI12
aa(lp2876
I6
aI6
aI4
aI4
aI6
aI4
aa(lp2877
I6
aI6
aI4
aI4
aI6
aI4
aa(lp2878
I6
aI6
aI4
aI4
aI6
aa(lp2879
I6
aI6
aI6
aI4
aI4
aI6
aI4
aa(lp2880
I6
aI6
aI6
aI4
aI4
aI6
aa(lp2881
I6
aI6
aI6
aI4
aI4
aI6
aa(lp2882
I6
aI6
aI6
aI4
aI4
aI6
aa(lp2883
I6
aI6
aI6
aI4
aI4
aI6
aa(lp2884
I6
aI6
aI6
aI4
aI4
aI6
aa(lp2885
I6
aI6
aI6
aI4
aI4
aI6
aa(lp2886
I6
aI6
aI6
aI4
aI4
aI6
aa(lp2887
I6
aI6
aI6
aI4
aI4
aa(lp2888
I6
aI6
aI6
aI4
aI4
aa(lp2889
I6
aI6
aI4
aI4
aa(lp2890
I6
aI6
aI4
aI4
aa(lp2891
I6
aI6
aI4
aI4
aa(lp2892
I6
aI6
aI4
aI4
aa(lp2893
I6
aI6
aI4
aI4
aa(lp2894
I6
aI6
aI4
aI4
aa(lp2895
I6
aI6
aI4
aI4
aa(lp2896
I6
aI6
aI4
aI4
aI4
aa(lp2897
I6
aI6
aI4
aI4
aI4
aa(lp2898
I6
aI6
aI4
aI4
aI4
aa(lp2899
I6
aI6
aI4
aI4
aI4
aa(lp2900
I6
aI6
aI4
aI4
aI4
aa(lp2901
I6
aI6
aI4
aI4
aI4
aa(lp2902
I6
aI6
aI4
aI4
aa(lp2903
I6
aI6
aI4
aI4
aa(lp2904
I6
aI6
aI4
aI4
aa(lp2905
I6
aI6
aI4
aI4
aa(lp2906
I6
aI4
aI4
aa(lp2907
I6
aI4
aI4
aa(lp2908
I6
aI4
aI4
aa(lp2909
I6
aI4
aI4
aa(lp2910
I6
aI4
aI4
aa(lp2911
I6
aI4
aI4
aa(lp2912
I4
aI6
aI4
aI4
aa(lp2913
I4
aI6
aI4
aI4
aa(lp2914
I4
aI6
aI4
aI4
aa(lp2915
I4
aI6
aI4
aI4
aa(lp2916
I4
aI6
aI4
aI4
aa(lp2917
I4
aI6
aI4
aI4
aa(lp2918
I4
aI6
aI4
aI4
aa(lp2919
I4
aI4
aI4
aa(lp2920
I4
aI4
aI4
aa(lp2921
I4
aI4
aI4
aa(lp2922
I4
aI4
aa(lp2923
I4
aa(lp2924
I4
aa(lp2925
I4
aa(lp2926
I4
aa(lp2927
I4
aa(lp2928
I8
aI4
aa(lp2929
I8
aI4
aa(lp2930
I8
aI4
aa(lp2931
I6
aI8
aI4
aa(lp2932
I6
aI8
aI4
aa(lp2933
I6
aI8
aI4
aa(lp2934
I6
aI8
aI4
aa(lp2935
I8
aI4
aa(lp2936
I8
aI4
aa(lp2937
I8
aI4
aa(lp2938
I6
aI8
aI4
aa(lp2939
I6
aI8
aI4
aa(lp2940
I8
aI4
aa(lp2941
I8
aI4
aa(lp2942
I8
aI4
aa(lp2943
I6
aI8
aI4
aa(lp2944
I6
aI4
aa(lp2945
I6
aI4
aa(lp2946
I6
aI4
aa(lp2947
I6
aI4
aa(lp2948
I6
aI4
aa(lp2949
I6
aI4
aa(lp2950
I6
aI8
aI4
aa(lp2951
I6
aI8
aI4
aa(lp2952
I6
aI8
aI4
aa(lp2953
I6
aI8
aI4
aa(lp2954
I6
aI8
aI4
aa(lp2955
I6
aI8
aI4
aa(lp2956
I6
aI8
aI4
aa(lp2957
I6
aI8
aI4
aa(lp2958
I6
aI4
aa(lp2959
I6
aa(lp2960
I6
aa(lp2961
I6
aa(lp2962
I6
aa(lp2963
I6
aa(lp2964
I6
aa(lp2965
I6
aa(lp2966
I6
aa(lp2967
I6
aa(lp2968
I6
aI6
aa(lp2969
I6
aI6
aa(lp2970
I6
aI6
aa(lp2971
I6
aI6
aa(lp2972
I6
aI6
aa(lp2973
I6
aI6
aa(lp2974
I8
aI6
aI6
aa(lp2975
I8
aI6
aI6
aa(lp2976
I8
aI6
aI6
aa(lp2977
I8
aI6
aI6
aa(lp2978
I8
aI6
aI6
aa(lp2979
I8
aI6
aI6
aa(lp2980
I8
aI6
aI6
aa(lp2981
I8
aI6
aI6
aa(lp2982
I8
aI6
aI6
aa(lp2983
I8
aI6
aI6
aa(lp2984
I8
aI6
aI6
aa(lp2985
I6
aI6
aa(lp2986
I6
aI6
aa(lp2987
I6
aI6
aa(lp2988
I6
aI6
aa(lp2989
I6
aI6
aa(lp2990
I6
aI6
aa(lp2991
I6
aI6
aa(lp2992
I6
aI6
aa(lp2993
I6
aI6
aa(lp2994
I6
aI6
aa(lp2995
I6
aI6
aa(lp2996
I6
aI6
aa(lp2997
I6
aI6
aa(lp2998
I6
aI6
aa(lp2999
I6
aI4
aI6
aa(lp3000
I6
aI4
aI6
aa(lp3001
I6
aI4
aI6
aa(lp3002
I6
aI4
aI6
aa(lp3003
I6
aI4
aI6
aa(lp3004
I6
aI4
aI6
aa(lp3005
I6
aI4
aI6
aa(lp3006
I6
aI4
aI6
aa(lp3007
I6
aI4
aI6
aa(lp3008
I6
aI4
aI6
aa(lp3009
I6
aI4
aI6
aa(lp3010
I6
aI4
aI6
aa(lp3011
I6
aI4
aI6
aa(lp3012
I6
aI4
aa(lp3013
I6
aI4
aa(lp3014
I6
aI4
aa(lp3015
I6
aI4
aa(lp3016
I6
aI4
aa(lp3017
I6
aI4
aa(lp3018
I6
aI4
aa(lp3019
I6
aI4
aa(lp3020
I6
aI4
aa(lp3021
I6
aI4
aa(lp3022
I6
aI4
aI8
aa(lp3023
I6
aI4
aI8
aa(lp3024
I8
aI6
aI4
aI8
aa(lp3025
I6
aI4
aI8
aa(lp3026
I6
aI4
aI8
aa(lp3027
I6
aI4
aI8
aa(lp3028
I6
aI4
aI8
aa(lp3029
I6
aI4
aI8
aa(lp3030
I6
aI4
aI8
aa(lp3031
I6
aI4
aI8
aa(lp3032
I6
aI4
aI8
aa(lp3033
I6
aI4
aI8
aa(lp3034
I6
aI4
aI8
aa(lp3035
I6
aI4
aI8
aa(lp3036
I6
aI4
aI8
aa(lp3037
I6
aI4
aI8
aa(lp3038
I6
aI4
aI8
aa(lp3039
I6
aI4
aa(lp3040
I6
aI4
aI8
aa(lp3041
I6
aI8
aa(lp3042
I6
aI8
aa(lp3043
I6
aI8
aa(lp3044
I6
aI8
aa(lp3045
I6
aI8
aa(lp3046
I6
aI8
aa(lp3047
I6
aI8
aa(lp3048
I6
aI8
aa(lp3049
I4
aI6
aI8
aa(lp3050
I4
aI6
aI8
aa(lp3051
I4
aI6
aI8
aa(lp3052
I4
aI6
aI8
aa(lp3053
I4
aI6
aI8
aa(lp3054
I4
aI6
aI8
aa(lp3055
I4
aI6
aI8
aa(lp3056
I4
aI6
aI8
aa(lp3057
I6
aI8
aa(lp3058
I6
aI8
aa(lp3059
I6
aI8
aa(lp3060
I6
aI8
aa(lp3061
I8
aI6
aI8
aa(lp3062
I6
aI8
aa(lp3063
I8
aI6
aI8
aa(lp3064
I8
aI6
aI8
aa(lp3065
I8
aI6
aI4
aI8
aa(lp3066
I6
aI4
aI8
aa(lp3067
I6
aI4
aI8
aa(lp3068
I6
aI4
aa(lp3069
I4
aI8
aa(lp3070
I4
aI8
aa(lp3071
I4
aI8
aa(lp3072
I4
aI8
aa(lp3073
I4
aI8
aa(lp3074
I4
aI8
aa(lp3075
I4
aI8
aa(lp3076
I4
aa(lp3077
I4
aa(lp3078
I4
aI6
aa(lp3079
I4
aI6
aa(lp3080
I4
aI6
aa(lp3081
I4
aI6
aa(lp3082
I6
aa(lp3083
I6
aa(lp3084
I6
aa(lp3085
I6
aa(lp3086
I6
aa(lp3087
I6
aa(lp3088
I6
aa(lp3089
I6
aa(lp3090
I6
aI8
aa(lp3091
I6
aI8
aa(lp3092
I6
aI8
aa(lp3093
I6
aI8
aa(lp3094
I6
aI8
aa(lp3095
I6
aI8
aa(lp3096
I6
aI8
aa(lp3097
I6
aI8
aa(lp3098
I6
aI8
aa(lp3099
I6
aI8
aa(lp3100
I6
aI8
aa(lp3101
I6
aI8
aa(lp3102
I6
aI8
aa(lp3103
I6
aI8
aa(lp3104
I6
aI8
aa(lp3105
I6
aI8
aa(lp3106
I6
aI8
aa(lp3107
I6
aI8
aa(lp3108
I6
aI8
aa(lp3109
I6
aI8
aa(lp3110
I6
aI8
aa(lp3111
I8
aa(lp3112
I8
aa(lp3113
I8
aa(lp3114
I8
aa(lp3115
I8
aa(lp3116
I8
aa(lp3117
I8
aa(lp3118
I8
aa(lp3119
I6
aI8
aa(lp3120
I6
aa(lp3121
I6
aa(lp3122
I6
aa(lp3123
I6
aI4
aa(lp3124
I6
aI4
aa(lp3125
I6
aI8
aI4
aa(lp3126
I6
aI8
aI4
aa(lp3127
I6
aI6
aI8
aI4
aa(lp3128
I6
aI6
aI6
aI8
aI4
aa(lp3129
I6
aI6
aI6
aI8
aI4
aa(lp3130
I6
aI6
aI6
aI8
aI4
aa(lp3131
I6
aI6
aI6
aI8
aI4
aa(lp3132
I6
aI6
aI6
aI8
aI4
aa(lp3133
I6
aI6
aI8
aI4
aa(lp3134
I6
aI6
aI8
aI4
aa(lp3135
I6
aI6
aI8
aI4
aa(lp3136
I6
aI6
aI8
aI4
aa(lp3137
I6
aI6
aI8
aI4
aa(lp3138
I6
aI6
aI8
aI4
aa(lp3139
I6
aI6
aI8
aI4
aa(lp3140
I6
aI8
aI4
aa(lp3141
I6
aI8
aI4
aa(lp3142
I6
aI8
aa(lp3143
I6
aI8
aa(lp3144
I6
aI8
aa(lp3145
I6
aI8
aa(lp3146
I6
aI8
aa(lp3147
I8
aa(lp3148
I8
aa(lp3149
I8
aa(lp3150
I8
aa(lp3151
a(lp3152
a(lp3153
a(lp3154
I8
aa(lp3155
I8
aa(lp3156
I8
aa(lp3157
a(lp3158
a(lp3159
a(lp3160
a(lp3161
a(lp3162
a(lp3163
a(lp3164
a(lp3165
a(lp3166
a(lp3167
a(lp3168
a(lp3169
a(lp3170
a(lp3171
a(lp3172
a(lp3173
a(lp3174
a(lp3175
a(lp3176
a(lp3177
a(lp3178
a(lp3179
a(lp3180
a(lp3181
a(lp3182
a(lp3183
a(lp3184
a(lp3185
a(lp3186
a(lp3187
a(lp3188
I4
aa(lp3189
I4
aa(lp3190
I4
aa(lp3191
I4
aa(lp3192
I4
aa(lp3193
I4
aa(lp3194
I4
aa(lp3195
I4
aa(lp3196
I4
aa(lp3197
I4
aa(lp3198
I4
aa(lp3199
I4
aa(lp3200
I4
aa(lp3201
I4
aa(lp3202
I4
aa(lp3203
I4
aa(lp3204
I4
aa(lp3205
I4
aa(lp3206
I4
aa(lp3207
I4
aa(lp3208
I4
aa(lp3209
I10
aI4
aa(lp3210
I10
aI4
aa(lp3211
I10
aI4
aa(lp3212
I10
aI4
aa(lp3213
I10
aI4
aa(lp3214
I10
aI4
aa(lp3215
I10
aI4
aa(lp3216
I10
aI4
aa(lp3217
I10
aI4
aa(lp3218
I10
aI4
aa(lp3219
I10
aI4
aa(lp3220
I10
aI4
aa(lp3221
I4
aa(lp3222
I4
aa(lp3223
I4
aa(lp3224
I4
aa(lp3225
I4
aa(lp3226
I4
aa(lp3227
I6
aI4
aa(lp3228
I6
aI4
aa(lp3229
I6
aI6
aI4
aa(lp3230
I6
aI6
aI4
aa(lp3231
I6
aI6
aI4
aa(lp3232
I6
aI6
aI4
aa(lp3233
I6
aI4
aa(lp3234
I6
aI4
aa(lp3235
I6
aI4
aa(lp3236
I6
aI4
aa(lp3237
I6
aI6
aI4
aa(lp3238
I6
aI6
aI4
aa(lp3239
I6
aI6
aI4
aa(lp3240
I6
aI6
aI4
aa(lp3241
I6
aI6
aI4
aa(lp3242
I6
aI6
aI4
aa(lp3243
I6
aI6
aI4
aa(lp3244
I6
aI6
aI4
aa(lp3245
I6
aI6
aI4
aa(lp3246
I6
aI6
aI4
aa(lp3247
I6
aI6
aI4
aa(lp3248
I6
aI6
aI4
aa(lp3249
I6
aI6
aI6
aI4
aa(lp3250
I6
aI6
aI6
aI4
aa(lp3251
I6
aI6
aI6
aI4
aa(lp3252
I6
aI6
aI6
aI4
aa(lp3253
I6
aI6
aI6
aI4
aa(lp3254
I6
aI6
aI6
aI4
aa(lp3255
I6
aI6
aI6
aI4
aa(lp3256
I6
aI6
aI6
aI4
aa(lp3257
I6
aI6
aI6
aI4
aa(lp3258
I6
aI6
aI6
aI4
aa(lp3259
I6
aI6
aI4
aa(lp3260
I6
aI6
aI4
aa(lp3261
I6
aI6
aI4
aa(lp3262
I6
aI6
aI4
aa(lp3263
I6
aI6
aI4
aI4
aa(lp3264
I6
aI6
aI4
aI4
aa(lp3265
I6
aI6
aI4
aI4
aa(lp3266
I6
aI6
aI6
aI4
aI4
aa(lp3267
I6
aI6
aI6
aI4
aI4
aa(lp3268
I6
aI6
aI6
aI4
aI4
aa(lp3269
I6
aI6
aI6
aI4
aI4
aa(lp3270
I6
aI6
aI6
aI4
aI4
aa(lp3271
I6
aI6
aI4
aI4
aa(lp3272
I6
aI6
aI4
aI4
aa(lp3273
I6
aI6
aI4
aa(lp3274
I6
aI6
aI6
aI4
aa(lp3275
I6
aI6
aI6
aI4
aa(lp3276
I6
aI6
aI6
aI4
aa(lp3277
I6
aI6
aI6
aI4
aa(lp3278
I6
aI6
aI6
aI4
aa(lp3279
I6
aI6
aI6
aI4
aa(lp3280
I6
aI6
aI6
aI4
aa(lp3281
I6
aI6
aI6
aI4
aa(lp3282
I6
aI6
aI6
aI4
aa(lp3283
I6
aI6
aI6
aI4
aa(lp3284
I6
aI6
aI6
aI4
aa(lp3285
I6
aI6
aI6
aI4
aI4
aa(lp3286
I6
aI6
aI6
aI4
aI4
aa(lp3287
I6
aI6
aI6
aI4
aI4
aa(lp3288
I6
aI6
aI6
aI4
aI4
aa(lp3289
I6
aI6
aI6
aI4
aI4
aI4
aa(lp3290
I6
aI6
aI6
aI4
aI4
aa(lp3291
I6
aI6
aI4
aI4
aa(lp3292
I6
aI6
aI4
aI4
aa(lp3293
I6
aI6
aI4
aI4
aa(lp3294
I6
aI6
aI4
aI4
aa(lp3295
I6
aI6
aI4
aI4
aa(lp3296
I6
aI6
aI4
aI4
aa(lp3297
I6
aI6
aI4
aI4
aa(lp3298
I6
aI6
aI4
aI4
aa(lp3299
I6
aI6
aI6
aI6
aI4
aI4
aa(lp3300
I6
aI6
aI6
aI6
aI4
aI4
aa(lp3301
I6
aI6
aI6
aI4
aI4
aa(lp3302
I6
aI6
aI6
aI4
aI4
aa(lp3303
I6
aI6
aI6
aI4
aI4
aa(lp3304
I6
aI4
aI6
aI4
aI4
aa(lp3305
I6
aI4
aI4
aa(lp3306
I6
aI4
aI4
aa(lp3307
I6
aI6
aI4
aI4
aa(lp3308
I12
aI6
aI6
aI4
aI4
aa(lp3309
I12
aI6
aI6
aI4
aI4
aa(lp3310
I12
aI6
aI6
aI4
aI4
aa(lp3311
I12
aI6
aI6
aI4
aI4
aa(lp3312
I12
aI6
aI6
aI4
aI4
aa(lp3313
I12
aI6
aI6
aI4
aI4
aa(lp3314
I12
aI6
aI6
aI4
aI4
aa(lp3315
I12
aI6
aI6
aI4
aI4
aa(lp3316
I12
aI6
aI6
aI6
aI6
aI4
aI4
aa(lp3317
I12
aI6
aI6
aI6
aI6
aI4
aI4
aa(lp3318
I12
aI6
aI6
aI6
aI6
aI4
aI4
aa(lp3319
I12
aI6
aI6
aI6
aI6
aI6
aI4
aI4
aa(lp3320
I12
aI6
aI6
aI6
aI6
aI6
aI4
aI4
aa(lp3321
I12
aI6
aI6
aI6
aI6
aI6
aI4
aI4
aa(lp3322
I12
aI6
aI6
aI6
aI6
aI6
aI4
aI4
aa(lp3323
I12
aI6
aI6
aI6
aI6
aI6
aI4
aI4
aa(lp3324
I12
aI6
aI6
aI6
aI6
aI6
aI4
aI4
aa(lp3325
I12
aI6
aI6
aI6
aI6
aI6
aI4
aI4
aa(lp3326
I12
aI6
aI6
aI6
aI6
aI6
aI4
aI4
aa(lp3327
I12
aI6
aI6
aI6
aI6
aI6
aI4
aI8
aI4
aa(lp3328
I12
aI6
aI6
aI6
aI6
aI6
aI4
aI8
aI4
aa(lp3329
I12
aI6
aI6
aI6
aI6
aI4
aI8
aI4
aa(lp3330
I12
aI6
aI6
aI6
aI6
aI4
aI8
aI4
aa(lp3331
I6
aI6
aI6
aI6
aI4
aI4
aa(lp3332
I6
aI6
aI6
aI6
aI4
aI4
aa(lp3333
I6
aI6
aI6
aI4
aI4
aa(lp3334
I6
aI6
aI6
aI4
aI4
aa(lp3335
I6
aI6
aI6
aI4
aI4
aa(lp3336
I6
aI6
aI6
aI4
aa(lp3337
I6
aI6
aI6
aI4
aa(lp3338
I6
aI6
aI4
aa(lp3339
I6
aI6
aI4
aa(lp3340
I6
aI6
aI4
aa(lp3341
I6
aI6
aI6
aI4
aa(lp3342
I6
aI6
aI6
aI4
aa(lp3343
I6
aI6
aI4
aa(lp3344
I6
aI6
aI4
aa(lp3345
I6
aI6
aI4
aa(lp3346
I6
aI6
aI4
aa(lp3347
I6
aI6
aI4
aa(lp3348
I6
aI6
aI4
aa(lp3349
I6
aI6
aI4
aa(lp3350
I6
aI6
aI4
aa(lp3351
I6
aI6
aI4
aa(lp3352
I6
aI6
aI4
aa(lp3353
I6
aI6
aI4
aa(lp3354
I6
aI6
aI4
aa(lp3355
I6
aI6
aI4
aa(lp3356
I6
aI6
aI6
aI4
aa(lp3357
I6
aI6
aI6
aI4
aa(lp3358
I6
aI6
aI6
aI4
aa(lp3359
I6
aI6
aI4
aI6
aa(lp3360
I6
aI6
aI4
aI6
aa(lp3361
I6
aI6
aI4
aI6
aa(lp3362
I6
aI6
aI4
aI6
aa(lp3363
I6
aI6
aI4
aI6
aa(lp3364
I6
aI6
aI4
aI6
aa(lp3365
I6
aI6
aI4
aI6
aa(lp3366
I6
aI6
aI6
aI4
aI6
aa(lp3367
I6
aI6
aI4
aI6
aa(lp3368
I6
aI6
aI4
aI6
aa(lp3369
I6
aI6
aI4
aI6
aa(lp3370
I6
aI6
aI4
aI6
aa(lp3371
I6
aI6
aI4
aI6
aa(lp3372
I6
aI6
aI4
aI6
aa(lp3373
I6
aI6
aI4
aI6
aa(lp3374
I6
aI6
aI4
aI6
aa(lp3375
I6
aI6
aI4
aI6
aa(lp3376
I6
aI6
aI4
aI6
aa(lp3377
I6
aI6
aI4
aI6
aa(lp3378
I6
aI6
aI4
aI6
aa(lp3379
I6
aI6
aI6
aI4
aI6
aa(lp3380
I6
aI6
aI6
aI4
aI6
aa(lp3381
I6
aI6
aI6
aI4
aI6
aa(lp3382
I6
aI6
aI6
aI4
aI6
aa(lp3383
I6
aI6
aI6
aI4
aI6
aa(lp3384
I6
aI6
aI6
aI4
aI6
aa(lp3385
I6
aI6
aI6
aI4
aI6
aa(lp3386
I6
aI6
aI6
aI4
aI6
aa(lp3387
I6
aI6
aI6
aI4
aI6
aa(lp3388
I6
aI6
aI6
aI6
aI4
aI6
aa(lp3389
I6
aI6
aI6
aI4
aI6
aa(lp3390
I6
aI6
aI6
aI4
aI6
aa(lp3391
I6
aI6
aI6
aI4
aI6
aa(lp3392
I6
aI6
aI6
aI4
aI6
aa(lp3393
I6
aI6
aI6
aI4
aI6
aa(lp3394
I6
aI6
aI6
aI4
aI6
aa(lp3395
I6
aI6
aI6
aI4
aI6
aa(lp3396
I6
aI6
aI6
aI4
aI6
aa(lp3397
I6
aI6
aI6
aI4
aI6
aa(lp3398
I6
aI6
aI6
aI4
aI6
aa(lp3399
I6
aI6
aI6
aI4
aI6
aa(lp3400
I6
aI6
aI6
aI4
aI6
aa(lp3401
I6
aI6
aI6
aI4
aI6
aa(lp3402
I6
aI6
aI4
aI6
aa(lp3403
I6
aI6
aI4
aI6
aa(lp3404
I6
aI6
aI4
aI6
aa(lp3405
I6
aI6
aI6
aI4
aI6
aa(lp3406
I6
aI6
aI6
aI4
aI6
aa(lp3407
I6
aI6
aI6
aI4
aI6
aa(lp3408
I6
aI6
aI6
aI6
aa(lp3409
I6
aI6
aI6
aI6
aa(lp3410
I6
aI6
aI6
aI6
aa(lp3411
I6
aI6
aI6
aI6
aa(lp3412
I6
aI6
aI6
aa(lp3413
I6
aI6
aI12
aI6
aa(lp3414
I6
aI6
aI12
aI6
aa(lp3415
I6
aI6
aI12
aI6
aa(lp3416
I6
aI6
aI12
aI6
aa(lp3417
I6
aI6
aI12
aI6
aa(lp3418
I6
aI6
aI12
aI6
aa(lp3419
I6
aI6
aI12
aI6
aa(lp3420
I6
aI6
aI12
aI6
aa(lp3421
I6
aI6
aI12
aI6
aa(lp3422
I6
aI6
aI12
aI6
aa(lp3423
I6
aI6
aI12
aI6
aa(lp3424
I6
aI6
aI12
aI6
aa(lp3425
I6
aI6
aI12
aI6
aa(lp3426
I6
aI6
aI12
aI6
aa(lp3427
I6
aI12
aI6
aa(lp3428
I6
aI12
aI6
aa(lp3429
I12
aI6
aa(lp3430
I12
aI6
aa(lp3431
I12
aI6
aa(lp3432
I12
aI6
aI4
aa(lp3433
I12
aI6
aI4
aa(lp3434
I6
aI4
aI4
aa(lp3435
I6
aI4
aI4
aa(lp3436
I6
aI4
aI4
aa(lp3437
I6
aI4
aI4
aa(lp3438
I6
aI4
aI4
aa(lp3439
I16
aI6
aI4
aI4
aI4
aa(lp3440
I6
aI4
aI4
aI4
aa(lp3441
I6
aI4
aI4
aI4
aa(lp3442
I6
aI4
aI4
aI4
aa(lp3443
I6
aI4
aI4
aI4
aa(lp3444
I6
aI4
aI4
aI4
aa(lp3445
I6
aI4
aI4
aI4
aa(lp3446
I6
aI4
aI4
aI4
aa(lp3447
I6
aI4
aI4
aI4
aa(lp3448
I6
aI4
aI4
aI4
aa(lp3449
I6
aI4
aI4
aI4
aa(lp3450
I6
aI4
aI4
aI4
aa(lp3451
I4
aI4
aI4
aa(lp3452
I6
aI4
aI4
aI4
aa(lp3453
I6
aI4
aI4
aI4
aa(lp3454
I6
aI4
aI4
aI4
aa(lp3455
I6
aI4
aI4
aI4
aa(lp3456
I6
aI4
aI4
aI4
aa(lp3457
I6
aI4
aI4
aI4
aa(lp3458
I6
aI4
aI4
aa(lp3459
I6
aI4
aI4
aa(lp3460
I6
aI4
aI4
aa(lp3461
I6
aI4
aI4
aa(lp3462
I6
aI4
aI4
aa(lp3463
I6
aI4
aI8
aI4
aa(lp3464
I6
aI4
aI8
aI4
aa(lp3465
I4
aI8
aI4
aa(lp3466
I4
aI8
aI4
aa(lp3467
I4
aI8
aI4
aa(lp3468
I4
aI8
aI4
aa(lp3469
I4
aI8
aI4
aa(lp3470
I4
aI8
aI4
aa(lp3471
I4
aI8
aI4
aa(lp3472
I8
aI4
aa(lp3473
I8
aI4
aa(lp3474
I8
aI4
aa(lp3475
I8
aI4
aa(lp3476
I8
aI4
aa(lp3477
I8
aI4
aa(lp3478
I8
aI4
aa(lp3479
I8
aI4
aa(lp3480
I8
aI4
aa(lp3481
I8
aI4
aI4
aa(lp3482
I8
aI4
aI4
aa(lp3483
I4
aI4
aa(lp3484
I4
aa(lp3485
I4
aa(lp3486
I4
aI4
aI4
aa(lp3487
I4
aI4
aI4
aa(lp3488
I4
aI4
aI4
aa(lp3489
I4
aI4
aI4
aa(lp3490
I4
aI4
aI4
aa(lp3491
I4
aI4
aI4
aa(lp3492
I4
aI4
aI4
aa(lp3493
I4
aI4
aI4
aa(lp3494
I4
aI4
aI4
aa(lp3495
I4
aI4
aI4
aI4
aa(lp3496
I4
aI4
aI4
aI4
aa(lp3497
I4
aI4
aI4
aI4
aa(lp3498
I4
aI4
aI4
aI4
aa(lp3499
I4
aI4
aI4
aI4
aa(lp3500
I4
aI4
aI4
aI4
aa(lp3501
I4
aI4
aI4
aI4
aa(lp3502
I4
aI4
aI4
aI4
aa(lp3503
I4
aI4
aI4
aI4
aa(lp3504
I4
aI4
aI4
aI4
aa(lp3505
I4
aI4
aI4
aI4
aa(lp3506
I4
aI4
aI4
aI4
aa(lp3507
I4
aI4
aI4
aI4
aa(lp3508
I4
aI4
aI4
aI4
aa(lp3509
I4
aI4
aI4
aa(lp3510
I4
aI4
aI4
aa(lp3511
I4
aI4
aI4
aa(lp3512
I4
aI4
aI4
aa(lp3513
I4
aI4
aa(lp3514
I4
aI4
aa(lp3515
I4
aa(lp3516
I4
aa(lp3517
I4
aI4
aa(lp3518
I4
aI4
aa(lp3519
I4
aI4
aa(lp3520
I4
aI4
aa(lp3521
I4
aI4
aa(lp3522
I4
aa(lp3523
I4
aI4
aa(lp3524
I4
aI4
aa(lp3525
I4
aI4
aa(lp3526
I4
aa(lp3527
I6
aI4
aa(lp3528
I6
aI4
aa(lp3529
I6
aI6
aI4
aa(lp3530
I6
aI6
aI4
aa(lp3531
I6
aI4
aa(lp3532
I6
aI6
aI4
aa(lp3533
I6
aI4
aa(lp3534
I6
aI8
aI4
aa(lp3535
I6
aI8
aI4
aa(lp3536
I6
aI8
aI4
aa(lp3537
I6
aI8
aI4
aa(lp3538
I6
aI8
aI4
aa(lp3539
I6
aI8
aI4
aa(lp3540
I6
aI8
aI4
aa(lp3541
I6
aI4
aa(lp3542
I6
aI4
aa(lp3543
I6
aI4
aa(lp3544
I6
aI4
aa(lp3545
I6
aI4
aa(lp3546
I6
aI4
aa(lp3547
I6
aI4
aa(lp3548
I6
aI4
aa(lp3549
I6
aI4
aa(lp3550
I6
aI4
aa(lp3551
I6
aI4
aa(lp3552
I6
aI4
aa(lp3553
I6
aI4
aa(lp3554
I6
aI4
aa(lp3555
I6
aI4
aa(lp3556
I6
aI6
aI4
aa(lp3557
I6
aI4
aa(lp3558
I6
aI4
aa(lp3559
I6
aI4
aa(lp3560
I6
aI4
aa(lp3561
I6
aI4
aI4
aa(lp3562
I6
aI6
aI4
aI4
aa(lp3563
I6
aI4
aI4
aI4
aa(lp3564
I6
aI4
aI4
aa(lp3565
I6
aI4
aI4
aa(lp3566
I6
aI4
aI4
aa(lp3567
I6
aI4
aI4
aa(lp3568
I6
aI4
aI4
aa(lp3569
I6
aI4
aI4
aI4
aa(lp3570
I6
aI4
aI4
aI4
aa(lp3571
I6
aI4
aI4
aI4
aa(lp3572
I6
aI4
aI4
aI4
aa(lp3573
I6
aI4
aI4
aI4
aa(lp3574
I6
aI4
aI4
aI4
aa(lp3575
I6
aI4
aI4
aI4
aa(lp3576
I6
aI6
aI4
aI4
aI4
aa(lp3577
I6
aI6
aI4
aI4
aI4
aa(lp3578
I6
aI6
aI4
aI4
aI4
aa(lp3579
I6
aI6
aI4
aI4
aI4
aa(lp3580
I6
aI6
aI4
aI4
aI4
aa(lp3581
I6
aI6
aI4
aI4
aI4
aa(lp3582
I6
aI6
aI4
aI4
aI4
aa(lp3583
I6
aI6
aI4
aI4
aI4
aa(lp3584
I6
aI4
aI4
aI4
aa(lp3585
I6
aI4
aI4
aI4
aa(lp3586
I6
aI4
aI4
aI4
aa(lp3587
I6
aI4
aI4
aI4
aa(lp3588
I6
aI4
aI4
aI4
aa(lp3589
I6
aI4
aI4
aI4
aa(lp3590
I6
aI6
aI4
aI4
aI4
aa(lp3591
I6
aI6
aI4
aI4
aI4
aa(lp3592
I6
aI6
aI4
aI4
aI4
aa(lp3593
I6
aI6
aI4
aI4
aI4
aa(lp3594
I6
aI4
aI4
aI4
aa(lp3595
I6
aI4
aI4
aI4
aa(lp3596
I6
aI4
aI4
aI4
aa(lp3597
I6
aI4
aI4
aI4
aa(lp3598
I6
aI4
aI4
aI4
aa(lp3599
I6
aI4
aI4
aI4
aa(lp3600
I6
aI4
aI4
aI4
aa(lp3601
I6
aI4
aI4
aI4
aa(lp3602
I6
aI4
aI4
aI4
aa(lp3603
I6
aI6
aI6
aI4
aI4
aI4
aa(lp3604
I6
aI6
aI6
aI4
aI4
aI4
aa(lp3605
I6
aI6
aI6
aI4
aI4
aI4
aa(lp3606
I6
aI6
aI6
aI4
aI4
aI4
aI4
aa(lp3607
I6
aI6
aI6
aI4
aI4
aI4
aI4
aa(lp3608
I6
aI6
aI6
aI4
aI4
aI4
aI4
aa(lp3609
I6
aI6
aI6
aI4
aI4
aI4
aI4
aa(lp3610
I6
aI6
aI6
aI4
aI4
aI4
aI4
aa(lp3611
I6
aI6
aI6
aI4
aI4
aI4
aI4
aa(lp3612
I6
aI6
aI6
aI4
aI4
aI4
aI4
aa(lp3613
I6
aI6
aI6
aI4
aI4
aI4
aI4
aa(lp3614
I6
aI6
aI6
aI4
aI4
aI4
aI4
aa(lp3615
I6
aI6
aI6
aI4
aI4
aI4
aI4
aa(lp3616
I6
aI6
aI6
aI4
aI4
aI4
aI4
aa(lp3617
I6
aI6
aI6
aI4
aI4
aI4
aI4
aa(lp3618
I6
aI6
aI6
aI4
aI4
aI4
aI4
aa(lp3619
I6
aI6
aI6
aI4
aI4
aI4
aa(lp3620
I6
aI6
aI6
aI4
aI4
aI4
aa(lp3621
I6
aI6
aI4
aI4
aI4
aa(lp3622
I6
aI6
aI4
aI4
aa(lp3623
I6
aI6
aI4
aI4
aa(lp3624
I6
aI6
aI4
aI4
aI4
aa(lp3625
I6
aI6
aI6
aI4
aI4
aI4
aa(lp3626
I6
aI6
aI4
aI4
aI4
aa(lp3627
I6
aI6
aI4
aI4
aI4
aa(lp3628
I6
aI6
aI4
aI4
aI4
aa(lp3629
I6
aI6
aI4
aI4
aI4
aa(lp3630
I6
aI14
aI6
aI4
aI4
aI4
aa(lp3631
I6
aI14
aI6
aI4
aI4
aI4
aa(lp3632
I6
aI14
aI6
aI4
aI4
aI4
aa(lp3633
I6
aI14
aI6
aI4
aI4
aI4
aa(lp3634
I6
aI14
aI6
aI4
aI6
aI4
aI4
aa(lp3635
I6
aI14
aI6
aI4
aI6
aI4
aI4
aa(lp3636
I6
aI14
aI6
aI4
aI6
aI4
aI4
aa(lp3637
I6
aI14
aI6
aI4
aI6
aI4
aI4
aa(lp3638
I6
aI14
aI6
aI4
aI6
aI4
aI4
aa(lp3639
I6
aI6
aI4
aI6
aI4
aI4
aa(lp3640
I4
aI6
aI6
aI4
aI6
aI4
aI4
aa(lp3641
I4
aI6
aI8
aI6
aI4
aI6
aI4
aI4
aa(lp3642
I6
aI8
aI6
aI4
aI6
aI4
aI4
aa(lp3643
I6
aI8
aI4
aI6
aI4
aI4
aa(lp3644
I6
aI8
aI4
aI6
aI4
aI4
aa(lp3645
I6
aI4
aI6
aI4
aI4
aa(lp3646
I6
aI4
aI6
aI4
aI4
aa(lp3647
I6
aI4
aI6
aI4
aI4
aa(lp3648
I6
aI4
aI6
aI4
aI4
aa(lp3649
I6
aI4
aI6
aI4
aI4
aa(lp3650
I6
aI4
aI6
aI4
aI4
aa(lp3651
I6
aI4
aI6
aI4
aa(lp3652
I6
aI4
aI6
aI4
aa(lp3653
I6
aI4
aI6
aI4
aa(lp3654
I6
aI4
aI6
aI4
aa(lp3655
I6
aI4
aI6
aI4
aa(lp3656
I4
aI6
aI4
aa(lp3657
I4
aI6
aa(lp3658
I6
aa(lp3659
I6
aa(lp3660
I6
aa(lp3661
I6
aI6
aa(lp3662
I6
aI6
aa(lp3663
I6
aI6
aa(lp3664
I6
aI6
aa(lp3665
I6
aI6
aa(lp3666
I6
aI6
aa(lp3667
I6
aI6
aa(lp3668
I4
aI6
aI6
aa(lp3669
I4
aI6
aa(lp3670
I4
aI6
aI6
aa(lp3671
I4
aI6
aI6
aa(lp3672
I4
aI6
aI6
aa(lp3673
I4
aI6
aI6
aa(lp3674
I4
aI6
aI6
aa(lp3675
I4
aI6
aI6
aa(lp3676
I4
aI6
aI6
aa(lp3677
I4
aI6
aI6
aa(lp3678
I4
aI6
aI6
aa(lp3679
I4
aI6
aI6
aa(lp3680
I4
aI6
aI6
aa(lp3681
I4
aI6
aI6
aa(lp3682
I4
aI6
aI6
aa(lp3683
I4
aI4
aI6
aI6
aa(lp3684
I4
aI4
aI4
aI6
aI6
aa(lp3685
I4
aI4
aI4
aI6
aI6
aa(lp3686
I4
aI4
aI4
aI6
aI6
aa(lp3687
I4
aI4
aI4
aI6
aI6
aa(lp3688
I4
aI4
aI4
aI6
aI6
aa(lp3689
I4
aI4
aI4
aI6
aa(lp3690
I4
aI4
aI4
aI6
aa(lp3691
I6
aI4
aI4
aI4
aI6
aa(lp3692
I6
aI4
aI4
aI4
aI6
aa(lp3693
I12
aI6
aI4
aI4
aI4
aI6
aa(lp3694
I12
aI6
aI4
aI4
aI4
aa(lp3695
I12
aI6
aI4
aI4
aI4
aa(lp3696
I12
aI6
aI4
aI4
aI4
aa(lp3697
I12
aI6
aI4
aI4
aI4
aa(lp3698
I12
aI6
aI4
aI4
aI4
aa(lp3699
I12
aI6
aI4
aI4
aI4
aa(lp3700
I12
aI6
aI4
aI4
aI4
aa(lp3701
I6
aI4
aI4
aI4
aa(lp3702
I6
aI4
aI4
aI4
aa(lp3703
I6
aI4
aI4
aI4
aa(lp3704
I6
aI4
aI4
aI4
aa(lp3705
I6
aI4
aI4
aI4
aa(lp3706
I6
aI4
aI4
aI4
aa(lp3707
I4
aI4
aI4
aa(lp3708
I4
aI4
aI4
aa(lp3709
I4
aI4
aI4
aa(lp3710
I4
aI4
aI4
aa(lp3711
I4
aI4
aI4
aa(lp3712
I4
aI4
aI4
aa(lp3713
I4
aI4
aa(lp3714
I4
aI4
aa(lp3715
I4
aa(lp3716
I4
aa(lp3717
I4
aa(lp3718
I4
aa(lp3719
I4
aa(lp3720
I4
aa(lp3721
I4
aa(lp3722
I4
aa(lp3723
I4
aa(lp3724
I4
aa(lp3725
I4
aa(lp3726
I4
aa(lp3727
I4
aa(lp3728
I4
aa(lp3729
I4
aa(lp3730
I4
aa(lp3731
I4
aa(lp3732
I4
aa(lp3733
I4
aa(lp3734
I4
aa(lp3735
I4
aa(lp3736
I4
aa(lp3737
I4
aa(lp3738
I4
aa(lp3739
I4
aa(lp3740
I4
aa(lp3741
I4
aa(lp3742
I4
aa(lp3743
I4
aa(lp3744
I4
aa(lp3745
I4
aa(lp3746
I4
aa(lp3747
I4
aa(lp3748
I4
aa(lp3749
I4
aa(lp3750
I4
aa(lp3751
I4
aa(lp3752
I4
aa(lp3753
I4
aa(lp3754
I4
aa(lp3755
I4
aa(lp3756
I4
aa(lp3757
I4
aa(lp3758
I4
aa(lp3759
a(lp3760
a(lp3761
a(lp3762
a(lp3763
a(lp3764
a(lp3765
a(lp3766
a(lp3767
I4
aa(lp3768
I4
aa(lp3769
I4
aa(lp3770
I4
aa(lp3771
I4
aa(lp3772
I4
aa(lp3773
I4
aI4
aa(lp3774
I4
aI4
aa(lp3775
I4
aI4
aI6
aa(lp3776
I4
aI4
aI6
aa(lp3777
I4
aI4
aI6
aa(lp3778
I4
aI4
aI6
aa(lp3779
I4
aI4
aI6
aa(lp3780
I4
aI4
aI4
aI6
aa(lp3781
I4
aI4
aI4
aI6
aa(lp3782
I4
aI4
aI4
aI6
aa(lp3783
I4
aI4
aI4
aI6
aa(lp3784
I4
aI4
aI6
aa(lp3785
I4
aI4
aI6
aa(lp3786
I4
aI4
aI6
aa(lp3787
I4
aI6
aa(lp3788
I4
aI4
aI6
aa(lp3789
I4
aI4
aI6
aa(lp3790
I4
aI4
aI6
aa(lp3791
I4
aI4
aI6
aa(lp3792
I4
aI4
aI4
aI6
aa(lp3793
I4
aI4
aI4
aI6
aa(lp3794
I4
aI4
aI4
aI6
aa(lp3795
I4
aI4
aI4
aI6
aa(lp3796
I18
aI4
aI4
aI4
aI6
aa(lp3797
I18
aI4
aI4
aI6
aa(lp3798
I18
aI4
aI4
aI6
aa(lp3799
I18
aI4
aI4
aI6
aa(lp3800
I18
aI4
aI4
aI6
aa(lp3801
I18
aI4
aI4
aI6
aa(lp3802
I4
aI4
aI6
aa(lp3803
I18
aI4
aI4
aI6
aa(lp3804
I18
aI4
aI4
aI6
aa(lp3805
I18
aI4
aI4
aI6
aa(lp3806
I18
aI4
aI4
aI6
aa(lp3807
I4
aI4
aI6
aa(lp3808
I18
aI4
aI4
aI6
aa(lp3809
I18
aI4
aI4
aI6
aa(lp3810
I4
aI4
aI6
aa(lp3811
I4
aI4
aI6
aa(lp3812
I4
aI4
aI6
aa(lp3813
I4
aI4
aI6
aa(lp3814
I4
aI4
aI6
aa(lp3815
I4
aI4
aI6
aa(lp3816
I4
aI4
aI6
aa(lp3817
I4
aI4
aI6
aa(lp3818
I4
aI4
aI6
aa(lp3819
I4
aI4
aI6
aa(lp3820
I4
aI4
aI6
aa(lp3821
I4
aI4
aI6
aa(lp3822
I4
aI4
aI4
aI6
aa(lp3823
I4
aI4
aI4
aI6
aa(lp3824
I4
aI4
aI4
aI6
aa(lp3825
I4
aI4
aI4
aI6
aa(lp3826
I4
aI4
aI4
aI6
aa(lp3827
I4
aI4
aI4
aI6
aa(lp3828
I4
aI4
aI4
aI6
aa(lp3829
I4
aI4
aI4
aI6
aa(lp3830
I4
aI4
aI4
aI6
aa(lp3831
I4
aI4
aI4
aI6
aa(lp3832
I4
aI4
aI4
aI6
aa(lp3833
I4
aI4
aI4
aI6
aa(lp3834
I4
aI4
aI4
aI6
aa(lp3835
I4
aI4
aI6
aa(lp3836
I4
aI4
aI6
aa(lp3837
I4
aI4
aI6
aa(lp3838
I4
aI4
aI6
aa(lp3839
I4
aI4
aI6
aa(lp3840
I4
aI6
aa(lp3841
I4
aI6
aI4
aI6
aa(lp3842
I4
aI6
aI4
aI6
aa(lp3843
I4
aI6
aI4
aI6
aa(lp3844
I4
aI6
aI4
aI6
aa(lp3845
I4
aI6
aI4
aI6
aa(lp3846
I4
aI6
aI4
aI6
aa(lp3847
I4
aI6
aI4
aI6
aa(lp3848
I4
aI6
aI4
aI6
aa(lp3849
I4
aI6
aI4
aI6
aa(lp3850
I4
aI6
aI4
aa(lp3851
I4
aI6
aI4
aa(lp3852
I4
aI6
aI4
aa(lp3853
I6
aI4
aa(lp3854
I6
aI4
aa(lp3855
I6
aI4
aa(lp3856
I6
aI4
aa(lp3857
I4
aI6
aI4
aa(lp3858
I4
aI6
aI4
aa(lp3859
I4
aI6
aI4
aa(lp3860
I4
aI6
aI4
aa(lp3861
I4
aI6
aI4
aa(lp3862
I4
aI6
aI4
aa(lp3863
I4
aI6
aa(lp3864
I4
aI6
aa(lp3865
I4
aI6
aa(lp3866
I4
aI6
aa(lp3867
I4
aI6
aa(lp3868
I4
aI6
aa(lp3869
I4
aI6
aa(lp3870
I4
aI6
aa(lp3871
I4
aI6
aa(lp3872
I4
aI6
aa(lp3873
I4
aI6
aa(lp3874
I4
aI6
aa(lp3875
I4
aI6
aa(lp3876
I4
aI6
aa(lp3877
I4
aI6
aa(lp3878
I4
aI6
aa(lp3879
I4
aI6
aa(lp3880
I4
aI6
aa(lp3881
I4
aI8
aI6
aa(lp3882
I4
aI8
aI6
aa(lp3883
I4
aI8
aI6
aa(lp3884
I4
aI6
aa(lp3885
I4
aI6
aa(lp3886
I4
aI8
aI6
aI4
aa(lp3887
I4
aI8
aI6
aI4
aa(lp3888
I4
aI8
aI6
aI4
aa(lp3889
I4
aI6
aI4
aa(lp3890
I4
aI6
aI4
aa(lp3891
I4
aI6
aI4
aa(lp3892
I4
aI6
aI4
aa(lp3893
I4
aI6
aI4
aa(lp3894
I4
aI6
aI4
aa(lp3895
I4
aI6
aI4
aa(lp3896
I4
aI6
aI4
aa(lp3897
I4
aI6
aI4
aa(lp3898
I4
aI6
aI4
aa(lp3899
I4
aI6
aI4
aa(lp3900
I4
aI6
aI4
aa(lp3901
I4
aI6
aa(lp3902
I4
aI6
aa(lp3903
I4
aI4
aI6
aa(lp3904
I4
aI4
aI6
aa(lp3905
I4
aI4
aI6
aa(lp3906
I4
aI6
aI10
aa(lp3907
I4
aI6
aI10
aa(lp3908
I6
aI10
aa(lp3909
I6
aI10
aa(lp3910
I6
aI10
aa(lp3911
I6
aI10
aa(lp3912
I8
aI6
aI10
aa(lp3913
I8
aI6
aI10
aa(lp3914
I8
aI8
aI6
aI10
aa(lp3915
I8
aI8
aI6
aI10
aa(lp3916
I8
aI8
aI6
aI10
aa(lp3917
I8
aI8
aI6
aI10
aa(lp3918
I8
aI8
aI6
aI10
aa(lp3919
I8
aI8
aI6
aI10
aa(lp3920
I8
aI8
aI6
aI10
aa(lp3921
I8
aI8
aI6
aI10
aa(lp3922
I8
aI4
aI8
aI6
aa(lp3923
I4
aI8
aI6
aa(lp3924
I4
aI8
aI6
aa(lp3925
I4
aI8
aI6
aa(lp3926
I4
aI8
aI6
aa(lp3927
I8
aI4
aI8
aI6
aa(lp3928
I8
aI4
aI8
aI6
aa(lp3929
I8
aI4
aI8
aI6
aa(lp3930
I8
aI4
aI8
aI6
aa(lp3931
I8
aI4
aI8
aI6
aa(lp3932
I8
aI4
aI8
aI6
aa(lp3933
I8
aI4
aI8
aI6
aa(lp3934
I8
aI4
aI8
aa(lp3935
I8
aI4
aI8
aa(lp3936
I8
aI4
aI8
aa(lp3937
I8
aI4
aI8
aI6
aa(lp3938
I8
aI4
aI8
aa(lp3939
I8
aI4
aI8
aa(lp3940
I4
aI8
aa(lp3941
I4
aI8
aa(lp3942
I4
aI8
aa(lp3943
I4
aI8
aa(lp3944
I4
aI8
aa(lp3945
I4
aI8
aa(lp3946
I4
aa(lp3947
I4
aa(lp3948
I4
aa(lp3949
I4
aa(lp3950
I4
aa(lp3951
I4
aa(lp3952
I4
aa(lp3953
I4
aa(lp3954
I4
aa(lp3955
I4
aI4
aa(lp3956
I4
aI4
aa(lp3957
I4
aI4
aa(lp3958
I4
aI4
aa(lp3959
I4
aI4
aa(lp3960
I4
aI4
aa(lp3961
I4
aI4
aa(lp3962
I4
aI4
aa(lp3963
I4
aI4
aa(lp3964
I4
aI4
aa(lp3965
I4
aI4
aa(lp3966
I4
aI4
aa(lp3967
I4
aa(lp3968
I4
aa(lp3969
I4
aa(lp3970
I4
aI4
aa(lp3971
I4
aI4
aa(lp3972
I4
aI4
aa(lp3973
I4
aI4
aa(lp3974
I4
aa(lp3975
I4
aa(lp3976
I4
aI4
aa(lp3977
I4
aI4
aa(lp3978
I4
aI4
aI4
aa(lp3979
I4
aI4
aI4
aa(lp3980
I4
aI4
aI4
aa(lp3981
I4
aI4
aI4
aa(lp3982
I4
aI4
aI4
aa(lp3983
I4
aI4
aI4
aa(lp3984
I4
aI4
aI4
aa(lp3985
I4
aI4
aI4
aI4
aa(lp3986
I4
aI4
aI4
aI4
aa(lp3987
I4
aI4
aI4
aI4
aa(lp3988
I4
aI4
aI4
aI4
aa(lp3989
I4
aI4
aI4
aI4
aa(lp3990
I4
aI4
aI4
aa(lp3991
I4
aI4
aI4
aa(lp3992
I4
aI4
aI4
aa(lp3993
I4
aI4
aI4
aa(lp3994
I4
aI4
aI4
aa(lp3995
I4
aI4
aI4
aa(lp3996
I4
aI4
aI4
aa(lp3997
I4
aI6
aI4
aI4
aa(lp3998
I4
aI6
aI4
aI4
aa(lp3999
I4
aI6
aI4
aI4
aa(lp4000
I4
aI6
aI4
aI4
aa(lp4001
I4
aI6
aI4
aI4
aa(lp4002
I4
aI6
aI4
aI4
aa(lp4003
I4
aI6
aI4
aI4
aa(lp4004
I4
aI6
aI4
aI4
aa(lp4005
I4
aI6
aI4
aI4
aa(lp4006
I4
aI6
aI4
aI4
aa(lp4007
I4
aI6
aI4
aI4
aa(lp4008
I4
aI6
aI4
aa(lp4009
I4
aI6
aI4
aa(lp4010
I4
aI4
aa(lp4011
I4
aI4
aa(lp4012
I4
aI4
aa(lp4013
I4
aI6
aI4
aa(lp4014
I4
aI6
aI4
aa(lp4015
I4
aI6
aI4
aa(lp4016
I4
aI6
aI4
aa(lp4017
I4
aI6
aI4
aa(lp4018
I12
aI4
aI4
aa(lp4019
I12
aI4
aI4
aa(lp4020
I12
aI4
aI4
aI4
aa(lp4021
I12
aI4
aI4
aI4
aa(lp4022
I12
aI4
aI4
aI4
aa(lp4023
I12
aI4
aI4
aI4
aa(lp4024
I12
aI4
aI4
aI4
aa(lp4025
I12
aI4
aI4
aI4
aa(lp4026
I12
aI4
aI4
aI4
aa(lp4027
I12
aI4
aI4
aI4
aa(lp4028
I12
aI4
aI4
aI4
aa(lp4029
I12
aI4
aI4
aI4
aa(lp4030
I4
aI4
aI4
aa(lp4031
I4
aI4
aI4
aI4
aa(lp4032
I12
aI4
aI4
aI4
aI4
aa(lp4033
I12
aI4
aI4
aI4
aI4
aa(lp4034
I12
aI4
aI4
aI4
aI4
aa(lp4035
I12
aI4
aI4
aI4
aI4
aa(lp4036
I12
aI4
aI4
aI4
aI4
aI4
aa(lp4037
I12
aI4
aI4
aI4
aI4
aI4
aa(lp4038
I12
aI4
aI4
aI4
aI4
aI4
aa(lp4039
I12
aI4
aI4
aI4
aI4
aI4
aa(lp4040
I12
aI4
aI4
aI4
aI4
aI4
aa(lp4041
I12
aI4
aI4
aI4
aI4
aI4
aa(lp4042
I12
aI4
aI4
aI4
aI4
aa(lp4043
I12
aI4
aI4
aI4
aI4
aa(lp4044
I4
aI4
aI4
aI4
aa(lp4045
I4
aI4
aI4
aI4
aa(lp4046
I4
aI4
aI4
aI4
aa(lp4047
I4
aI4
aI4
aI4
aa(lp4048
I4
aI4
aI4
aI4
aa(lp4049
I4
aI4
aI4
aa(lp4050
I4
aI4
aI4
aa(lp4051
I4
aI4
aI4
aa(lp4052
I4
aI4
aI4
aa(lp4053
I4
aI4
aI4
aa(lp4054
I4
aI4
aI4
aa(lp4055
I4
aI4
aI4
aa(lp4056
I4
aI4
aI4
aa(lp4057
I4
aI4
aI4
aa(lp4058
I4
aI4
aI4
aa(lp4059
I4
aI4
aI4
aa(lp4060
I4
aI4
aI4
aa(lp4061
I4
aI4
aI4
aa(lp4062
I4
aI4
aI4
aa(lp4063
I4
aI4
aI4
aa(lp4064
I4
aI4
aI4
aa(lp4065
I4
aI4
aI4
aa(lp4066
I4
aI4
aI4
aa(lp4067
I4
aI4
aI4
aa(lp4068
I4
aI4
aI4
aa(lp4069
I4
aI4
aI4
aa(lp4070
I4
aI4
aI4
aa(lp4071
I4
aI4
aI4
aa(lp4072
I4
aI4
aI4
aa(lp4073
I4
aI4
aI4
aa(lp4074
I4
aI4
aI4
aa(lp4075
I4
aI4
aI4
aa(lp4076
I4
aI4
aI4
aa(lp4077
I4
aI4
aI4
aa(lp4078
I4
aI4
aI4
aa(lp4079
I4
aI4
aI4
aa(lp4080
I4
aI4
aa(lp4081
I4
aI4
aa(lp4082
I4
aI4
aa(lp4083
I4
aI4
aa(lp4084
I4
aa(lp4085
I4
aa(lp4086
I4
aI4
aa(lp4087
I4
aI4
aa(lp4088
I4
aI4
aa(lp4089
I4
aI4
aa(lp4090
I4
aI4
aa(lp4091
I4
aI4
aa(lp4092
I4
aI4
aa(lp4093
I4
aI4
aa(lp4094
I4
aI4
aa(lp4095
I4
aI4
aa(lp4096
I4
aI4
aa(lp4097
I4
aI4
aa(lp4098
I4
aI4
aa(lp4099
I4
aI4
aa(lp4100
I4
aa(lp4101
I4
aa(lp4102
I4
aa(lp4103
I4
aa(lp4104
I4
aa(lp4105
I4
aa(lp4106
I4
aa(lp4107
I4
aa(lp4108
I6
aa(lp4109
I6
aa(lp4110
I6
aa(lp4111
I6
aa(lp4112
I6
aa(lp4113
I6
aa(lp4114
I6
aa(lp4115
I6
aa(lp4116
I6
aa(lp4117
I6
aI6
aa(lp4118
I6
aI6
aa(lp4119
I6
aI6
aa(lp4120
I6
aI6
aa(lp4121
I6
aI6
aI4
aa(lp4122
I6
aI6
aI4
aI4
aa(lp4123
I6
aI4
aa(lp4124
I6
aa(lp4125
I6
aa(lp4126
I6
aa(lp4127
I6
aa(lp4128
I6
aa(lp4129
a(lp4130
a(lp4131
a(lp4132
a(lp4133
a(lp4134
a(lp4135
a(lp4136
a(lp4137
a(lp4138
I4
aa(lp4139
I4
aa(lp4140
I4
aa(lp4141
I4
aa(lp4142
I4
aa(lp4143
I4
aa(lp4144
I4
aa(lp4145
I4
aI10
aI6
aa(lp4146
I4
aI10
aI6
aa(lp4147
I4
aI10
aI6
aa(lp4148
I4
aI10
aI6
aa(lp4149
I4
aI10
aI6
aa(lp4150
I4
aI10
aI6
aa(lp4151
I4
aI10
aI6
aa(lp4152
I4
aI10
aI6
aa(lp4153
I4
aI10
aI6
aa(lp4154
I4
aI10
aI6
aa(lp4155
I4
aI10
aI6
aa(lp4156
I4
aI10
aI6
aa(lp4157
I4
aI10
aI6
aa(lp4158
I4
aI10
aI6
aa(lp4159
I4
aI6
aa(lp4160
I4
aI6
aa(lp4161
I4
aI6
aa(lp4162
I4
aI4
aI6
aa(lp4163
I4
aI4
aI6
aa(lp4164
I4
aI4
aI6
aa(lp4165
I4
aI10
aI4
aI16
aI6
aa(lp4166
I4
aI10
aI4
aI16
aI6
aa(lp4167
I4
aI10
aI4
aI16
aI6
aa(lp4168
I4
aI10
aI4
aI16
aI6
aa(lp4169
I4
aI10
aI4
aI6
aa(lp4170
I4
aI10
aI4
aI6
aa(lp4171
I4
aI10
aI4
aI6
aa(lp4172
I4
aI10
aI4
aI6
aa(lp4173
I4
aI10
aI4
aI6
aa(lp4174
I4
aI4
aI6
aa(lp4175
I4
aI4
aI6
aa(lp4176
I4
aI4
aa(lp4177
I4
aI4
aa(lp4178
I4
aI4
aa(lp4179
I4
aI4
aa(lp4180
I4
aa(lp4181
I4
aa(lp4182
I4
aa(lp4183
I4
aa(lp4184
I4
aa(lp4185
I4
aa(lp4186
I4
aa(lp4187
I4
aa(lp4188
I4
aa(lp4189
I4
aa(lp4190
I4
aa(lp4191
I4
aa(lp4192
I4
aa(lp4193
I4
aa(lp4194
I4
aa(lp4195
I4
aI4
aa(lp4196
I4
aI4
aa(lp4197
I4
aI4
aa(lp4198
I4
aa(lp4199
I4
aa(lp4200
I4
aa(lp4201
I24
aI4
aI4
aa(lp4202
I4
aI4
aa(lp4203
I4
aI4
aa(lp4204
I4
aI4
aa(lp4205
I4
aI4
aa(lp4206
I4
aI4
aa(lp4207
I4
aI4
aa(lp4208
I4
aI4
aa(lp4209
I4
aI4
aa(lp4210
I4
aI4
aa(lp4211
I4
aI4
aa(lp4212
I4
aI4
aI4
aa(lp4213
I4
aI4
aI4
aa(lp4214
I4
aI4
aI4
aa(lp4215
I4
aI4
aI4
aa(lp4216
I4
aI4
aI4
aa(lp4217
I4
aI4
aI4
aa(lp4218
I4
aI4
aa(lp4219
I4
aI4
aa(lp4220
I4
aI4
aa(lp4221
I4
aI4
aa(lp4222
I4
aI4
aa(lp4223
I4
aI4
aa(lp4224
I4
aI4
aI4
aa(lp4225
I4
aI4
aI4
aa(lp4226
I4
aI4
aa(lp4227
I4
aI4
aa(lp4228
I4
aI4
aa(lp4229
I4
aI4
aa(lp4230
I4
aI4
aa(lp4231
I4
aI4
aI4
aa(lp4232
I4
aI4
aI4
aa(lp4233
I4
aI4
aI4
aa(lp4234
I4
aI4
aI4
aa(lp4235
I4
aI4
aI4
aa(lp4236
I4
aI4
aa(lp4237
I4
aI4
aa(lp4238
I4
aI4
aa(lp4239
I4
aI4
aa(lp4240
I4
aI4
aa(lp4241
I4
aI4
aa(lp4242
I4
aI4
aI4
aa(lp4243
I4
aI4
aI4
aa(lp4244
I4
aI4
aI4
aa(lp4245
I4
aI4
aI4
aa(lp4246
I4
aI4
aI4
aa(lp4247
I4
aI4
aI4
aa(lp4248
I4
aI4
aI4
aa(lp4249
I4
aI4
aa(lp4250
I4
aI4
aa(lp4251
I4
aI4
aa(lp4252
I4
aI4
aa(lp4253
I4
aI4
aa(lp4254
I4
aI4
aI4
aa(lp4255
I4
aI4
aI4
aa(lp4256
I4
aI4
aI4
aa(lp4257
I4
aI4
aI4
aa(lp4258
I4
aI4
aI4
aa(lp4259
I4
aI4
aI4
aa(lp4260
I4
aI4
aI4
aI4
aa(lp4261
I4
aI4
aI4
aI4
aa(lp4262
I4
aI4
aI4
aI4
aa(lp4263
I4
aI4
aI4
aI4
aa(lp4264
I4
aI4
aI4
aI4
aa(lp4265
I4
aI4
aI4
aI4
aa(lp4266
I4
aI4
aI4
aI4
aa(lp4267
I4
aI4
aI4
aI4
aa(lp4268
I4
aI4
aI4
aI4
aa(lp4269
I4
aI4
aI4
aI4
aa(lp4270
I4
aI4
aI4
aI4
aa(lp4271
I12
aI4
aI4
aI4
aI4
aa(lp4272
I12
aI4
aI4
aI4
aI4
aa(lp4273
I12
aI4
aI4
aI4
aI4
aa(lp4274
I12
aI4
aI4
aI4
aI4
aa(lp4275
I12
aI4
aI4
aI4
aI4
aa(lp4276
I12
aI4
aI6
aI4
aI4
aI4
aa(lp4277
I4
aI6
aI4
aI4
aI4
aa(lp4278
I4
aI4
aI6
aI4
aI4
aI4
aa(lp4279
I4
aI4
aI6
aI4
aI4
aI4
aa(lp4280
I6
aI4
aI4
aI6
aI4
aI4
aI4
aa(lp4281
I6
aI4
aI4
aI6
aI4
aI4
aI4
aa(lp4282
I4
aI4
aI6
aI4
aI4
aI4
aa(lp4283
I4
aI4
aI6
aI4
aI4
aI4
aa(lp4284
I4
aI6
aI4
aI4
aI4
aa(lp4285
I4
aI6
aI4
aI4
aI4
aa(lp4286
I6
aI4
aI6
aI4
aI4
aI4
aa(lp4287
I6
aI4
aI6
aI4
aI4
aa(lp4288
I6
aI4
aI6
aI4
aI4
aa(lp4289
I6
aI4
aI6
aI4
aI4
aa(lp4290
I6
aI4
aI6
aI4
aI4
aa(lp4291
I6
aI6
aI4
aI6
aI4
aI4
aa(lp4292
I6
aI6
aI4
aI6
aI4
aI4
aI4
aa(lp4293
I6
aI6
aI4
aI12
aI6
aI4
aI4
aI4
aa(lp4294
I6
aI6
aI4
aI12
aI6
aI4
aI4
aI4
aa(lp4295
I6
aI6
aI4
aI12
aI6
aI4
aI4
aI4
aa(lp4296
I6
aI6
aI4
aI12
aI6
aI4
aI4
aI4
aa(lp4297
I6
aI6
aI4
aI12
aI6
aI4
aI4
aI4
aa(lp4298
I6
aI6
aI4
aI12
aI4
aI4
aI4
aa(lp4299
I6
aI6
aI4
aI12
aI4
aI4
aI4
aa(lp4300
I6
aI6
aI4
aI12
aI6
aI4
aI4
aI4
aa(lp4301
I6
aI6
aI4
aI12
aI6
aI4
aI4
aI4
aa(lp4302
I6
aI6
aI4
aI12
aI6
aI4
aI4
aI4
aa(lp4303
I6
aI4
aI4
aI12
aI6
aI4
aI4
aI4
aa(lp4304
I6
aI4
aI4
aI12
aI6
aI4
aI4
aI4
aa(lp4305
I6
aI4
aI4
aI12
aI6
aI4
aI4
aI4
aa(lp4306
I6
aI4
aI4
aI12
aI6
aI4
aI4
aI4
aa(lp4307
I6
aI4
aI4
aI12
aI6
aI4
aI4
aI4
aa(lp4308
I4
aI4
aI12
aI4
aI6
aI4
aI4
aI4
aa(lp4309
I4
aI4
aI12
aI6
aI4
aI4
aI4
aa(lp4310
I4
aI4
aI12
aI6
aI4
aI4
aI4
aa(lp4311
I4
aI4
aI12
aI6
aI4
aI4
aI4
aa(lp4312
I4
aI4
aI12
aI6
aI4
aI4
aI4
aa(lp4313
I4
aI4
aI12
aI6
aI4
aI4
aI4
aa(lp4314
I4
aI4
aI12
aI6
aI4
aI4
aI4
aa(lp4315
I4
aI4
aI12
aI6
aI4
aI4
aI4
aa(lp4316
I4
aI4
aI12
aI6
aI4
aI4
aI4
aa(lp4317
I6
aI4
aI4
aI12
aI6
aI4
aI4
aI4
aa(lp4318
I6
aI4
aI4
aI12
aI6
aI4
aI4
aI4
aa(lp4319
I6
aI4
aI4
aI12
aI6
aI4
aI4
aI4
aa(lp4320
I6
aI4
aI4
aI12
aI6
aI4
aI4
aI4
aa(lp4321
I6
aI4
aI4
aI12
aI6
aI4
aI4
aI4
aa(lp4322
I6
aI4
aI4
aI12
aI4
aI4
aI4
aa(lp4323
I6
aI4
aI4
aI12
aI4
aI4
aI4
aa(lp4324
I6
aI4
aI4
aI12
aI4
aI4
aI4
aa(lp4325
I6
aI4
aI4
aI4
aI4
aI4
aa(lp4326
I6
aI4
aI4
aI4
aI4
aI4
aa(lp4327
I6
aI4
aI4
aI4
aI4
aI4
aa(lp4328
I6
aI4
aI4
aI4
aI4
aI4
aa(lp4329
I4
aI4
aI4
aI4
aI4
aa(lp4330
I4
aI4
aI4
aI4
aI4
aa(lp4331
I4
aI4
aI4
aI4
aI4
aa(lp4332
I4
aI4
aI4
aI4
aI4
aa(lp4333
I4
aI4
aI4
aI4
aI4
aa(lp4334
I6
aI4
aI4
aI4
aI4
aI4
aa(lp4335
I6
aI4
aI4
aI6
aI4
aI4
aI4
aa(lp4336
I6
aI4
aI4
aI6
aI4
aI4
aI4
aa(lp4337
I6
aI4
aI4
aI6
aI4
aI4
aI4
aa(lp4338
I6
aI4
aI4
aI6
aI6
aI4
aI4
aI4
aa(lp4339
I6
aI4
aI4
aI6
aI6
aI4
aI4
aI4
aa(lp4340
I6
aI4
aI4
aI6
aI6
aI4
aI4
aI4
aa(lp4341
I6
aI4
aI4
aI6
aI6
aI4
aI4
aI4
aa(lp4342
I6
aI4
aI4
aI6
aI6
aI4
aI4
aI4
aa(lp4343
I6
aI4
aI4
aI6
aI6
aI4
aI4
aI4
aa(lp4344
I6
aI4
aI4
aI6
aI4
aI4
aI4
aa(lp4345
I6
aI4
aI4
aI6
aI4
aI4
aI4
aa(lp4346
I6
aI4
aI4
aI6
aI4
aI4
aI4
aa(lp4347
I6
aI4
aI4
aI6
aI4
aI4
aI4
aa(lp4348
I6
aI4
aI4
aI6
aI4
aI4
aI4
aa(lp4349
I6
aI4
aI4
aI6
aI4
aI4
aI4
aa(lp4350
I6
aI4
aI6
aI4
aI4
aI4
aa(lp4351
I6
aI4
aI6
aI4
aI4
aI4
aa(lp4352
I6
aI4
aI6
aI4
aI4
aI4
aa(lp4353
I6
aI4
aI6
aI4
aI4
aI4
aa(lp4354
I6
aI4
aI6
aI4
aI4
aI4
aa(lp4355
I6
aI4
aI6
aI4
aI4
aa(lp4356
I6
aI4
aI6
aI4
aI4
aa(lp4357
I6
aI4
aI6
aI4
aI4
aa(lp4358
I4
aI6
aI4
aI4
aa(lp4359
I4
aI6
aI4
aI4
aI4
aa(lp4360
I4
aI6
aI4
aI4
aI4
aa(lp4361
I4
aI6
aI6
aI6
aI4
aI4
aI4
aa(lp4362
I4
aI6
aI6
aI6
aI4
aI4
aI4
aa(lp4363
I4
aI6
aI6
aI6
aI4
aI4
aI4
aa(lp4364
I4
aI6
aI6
aI6
aI4
aI4
aI4
aa(lp4365
I4
aI6
aI6
aI6
aI4
aI4
aI4
aa(lp4366
I4
aI6
aI6
aI6
aI4
aI4
aI4
aa(lp4367
I4
aI6
aI6
aI4
aI4
aI4
aa(lp4368
I4
aI6
aI6
aI4
aI4
aa(lp4369
I4
aI6
aI6
aI4
aI4
aa(lp4370
I4
aI6
aI6
aI4
aI4
aa(lp4371
I4
aI6
aI6
aI4
aI4
aa(lp4372
I4
aI6
aI4
aI4
aa(lp4373
I4
aI4
aI4
aa(lp4374
I4
aI4
aI4
aI4
aa(lp4375
I4
aI4
aI4
aI4
aa(lp4376
I4
aI4
aI4
aI4
aa(lp4377
I4
aI4
aI4
aa(lp4378
I4
aI4
aI4
aa(lp4379
I4
aI4
aI4
aa(lp4380
I4
aI4
aI4
aa(lp4381
I4
aI4
aI4
aa(lp4382
I4
aI4
aa(lp4383
I4
aI4
aa(lp4384
I4
aI4
aa(lp4385
I4
aI4
aa(lp4386
I4
aI10
aI4
aa(lp4387
I4
aI10
aI4
aa(lp4388
I4
aI10
aI4
aa(lp4389
I4
aI10
aa(lp4390
I4
aI10
aa(lp4391
I10
aa(lp4392
a(lp4393
I4
aa(lp4394
I4
aa(lp4395
I4
aa(lp4396
I4
aa(lp4397
I4
aI4
aa(lp4398
I4
aa(lp4399
I4
aa(lp4400
I4
aa(lp4401
a(lp4402
a(lp4403
I4
aa(lp4404
I4
aa(lp4405
I4
aa(lp4406
I4
aa(lp4407
I4
aI6
aa(lp4408
I4
aI6
aa(lp4409
I4
aI6
aa(lp4410
I4
aI6
aa(lp4411
I4
aI6
aa(lp4412
I4
aI4
aI6
aa(lp4413
I4
aI4
aI6
aa(lp4414
I4
aI4
aI6
aa(lp4415
I4
aI4
aI6
aa(lp4416
I4
aI4
aI6
aa(lp4417
I4
aI4
aI6
aa(lp4418
I4
aI4
aI6
aa(lp4419
I4
aI4
aI6
aa(lp4420
I4
aI4
aI6
aa(lp4421
I4
aI4
aI6
aa(lp4422
I4
aI4
aI6
aa(lp4423
I4
aI4
aI6
aa(lp4424
I4
aI4
aI6
aa(lp4425
I4
aI4
aI6
aa(lp4426
I4
aI4
aI6
aa(lp4427
I4
aI4
aI6
aa(lp4428
I4
aI4
aI6
aa(lp4429
I4
aI4
aI6
aa(lp4430
I4
aI4
aI6
aa(lp4431
I4
aI4
aI6
aa(lp4432
I4
aI4
aI6
aa(lp4433
I4
aI4
aI6
aa(lp4434
I4
aI4
aI6
aa(lp4435
I4
aI4
aI6
aa(lp4436
I4
aa(lp4437
I4
aa(lp4438
a(lp4439
a(lp4440
a(lp4441
a(lp4442
a(lp4443
a(lp4444
a(lp4445
a(lp4446
a(lp4447
a(lp4448
a(lp4449
a(lp4450
a(lp4451
a(lp4452
a(lp4453
a(lp4454
a(lp4455
a(lp4456
a(lp4457
a(lp4458
a(lp4459
I6
aa(lp4460
I6
aa(lp4461
I6
aa(lp4462
I6
aa(lp4463
I6
aa(lp4464
I6
aa(lp4465
I6
aa(lp4466
I6
aa(lp4467
I10
aI6
aa(lp4468
I10
aa(lp4469
I10
aa(lp4470
I10
aa(lp4471
I10
aa(lp4472
I10
aa(lp4473
I10
aa(lp4474
a(lp4475
a(lp4476
a(lp4477
a(lp4478
a(lp4479
a(lp4480
a(lp4481
a(lp4482
a(lp4483
I6
aa(lp4484
I6
aa(lp4485
I6
aa(lp4486
I6
aa(lp4487
a(lp4488
a(lp4489
a(lp4490
a(lp4491
a(lp4492
a(lp4493
a(lp4494
a(lp4495
a(lp4496
a(lp4497
a(lp4498
a(lp4499
a(lp4500
a(lp4501
a(lp4502
a(lp4503
a(lp4504
a(lp4505
a(lp4506
a(lp4507
a(lp4508
a(lp4509
a(lp4510
a(lp4511
a(lp4512
a(lp4513
I8
aa(lp4514
I8
aa(lp4515
I8
aI6
aI8
aa(lp4516
I8
aI6
aI8
aa(lp4517
I8
aI6
aI8
aa(lp4518
I8
aI6
aI8
aa(lp4519
I8
aI6
aI8
aa(lp4520
I8
aI6
aI8
aa(lp4521
I8
aI6
aI8
aa(lp4522
I8
aI6
aI8
aa(lp4523
I8
aI6
aI8
aa(lp4524
I8
aI6
aI8
aa(lp4525
I8
aI8
aa(lp4526
I8
aI8
aa(lp4527
I8
aI8
aa(lp4528
I8
aa(lp4529
I8
aa(lp4530
a(lp4531
a(lp4532
a(lp4533
a(lp4534
a(lp4535
a(lp4536
a(lp4537
a(lp4538
a(lp4539
a(lp4540
a(lp4541
a(lp4542
a(lp4543
a(lp4544
a(lp4545
I6
aa(lp4546
I6
aa(lp4547
a(lp4548
a(lp4549
a(lp4550
a(lp4551
a(lp4552
a(lp4553
a(lp4554
a(lp4555
a(lp4556
a(lp4557
a(lp4558
I4
aa(lp4559
I4
aa(lp4560
I4
aa(lp4561
I4
aa(lp4562
I4
aa(lp4563
I4
aa(lp4564
I4
aa(lp4565
I4
aa(lp4566
I4
aa(lp4567
I4
aa(lp4568
I4
aa(lp4569
I4
aa(lp4570
I4
aa(lp4571
I4
aa(lp4572
I4
aa(lp4573
I4
aa(lp4574
I4
aa(lp4575
I4
aa(lp4576
I4
aa(lp4577
I4
aa(lp4578
I4
aa(lp4579
I4
aa(lp4580
I4
aa(lp4581
I4
aa(lp4582
a(lp4583
a(lp4584
a(lp4585
a(lp4586
a(lp4587
a(lp4588
a(lp4589
a(lp4590
a(lp4591
a(lp4592
a(lp4593
a(lp4594
a(lp4595
a(lp4596
a(lp4597
a(lp4598
a(lp4599
a(lp4600
a(lp4601
a(lp4602
a(lp4603
a(lp4604
a(lp4605
a(lp4606
a(lp4607
a(lp4608
a(lp4609
a(lp4610
a(lp4611
a(lp4612
a(lp4613
a(lp4614
a(lp4615
a(lp4616
a(lp4617
a(lp4618
I6
aa(lp4619
I6
aa(lp4620
I6
aI6
aa(lp4621
I6
aI6
aa(lp4622
I6
aI6
aa(lp4623
I6
aI6
aa(lp4624
I8
aI6
aI6
aa(lp4625
I8
aI6
aI6
aa(lp4626
I8
aI6
aI4
aI6
aa(lp4627
I4
aI8
aI6
aI4
aI6
aa(lp4628
I8
aI6
aI4
aI6
aa(lp4629
I8
aI6
aI4
aI6
aa(lp4630
I8
aI6
aI4
aI6
aa(lp4631
I8
aI6
aI4
aI6
aa(lp4632
I8
aI6
aI4
aI6
aa(lp4633
I8
aI6
aI4
aI4
aI6
aa(lp4634
I8
aI6
aI4
aI4
aI6
aa(lp4635
I8
aI6
aI4
aI4
aI6
aa(lp4636
I8
aI6
aI4
aI4
aI6
aa(lp4637
I8
aI6
aI4
aI4
aI6
aa(lp4638
I8
aI6
aI4
aI4
aI6
aa(lp4639
I6
aI4
aI4
aI6
aa(lp4640
I6
aI4
aI4
aI6
aa(lp4641
I6
aI4
aI4
aI6
aa(lp4642
I6
aI4
aI6
aa(lp4643
I6
aI4
aI6
aa(lp4644
I6
aI6
aI4
aa(lp4645
I6
aI4
aI6
aa(lp4646
I6
aI4
aI6
aa(lp4647
I6
aI8
aI4
aI6
aa(lp4648
I6
aI8
aI4
aI6
aa(lp4649
I6
aI8
aI4
aI6
aa(lp4650
I6
aI4
aI6
aa(lp4651
I6
aI4
aI6
aa(lp4652
I6
aI4
aI6
aa(lp4653
I6
aI4
aI6
aa(lp4654
I6
aI4
aI6
aa(lp4655
I6
aI4
aI6
aa(lp4656
I6
aI4
aI6
aa(lp4657
I6
aI4
aI6
aa(lp4658
I6
aI4
aI6
aa(lp4659
I6
aI4
aI6
aa(lp4660
I6
aI4
aI6
aa(lp4661
I6
aI4
aI6
aa(lp4662
I6
aI4
aI6
aa(lp4663
I6
aI4
aI6
aa(lp4664
I6
aI4
aI6
aa(lp4665
I6
aI4
aI6
aa(lp4666
I6
aI4
aI6
aa(lp4667
I6
aI4
aI6
aa(lp4668
I6
aI6
aI4
aI6
aa(lp4669
I6
aI4
aI6
aa(lp4670
I6
aI6
aI4
aI6
aa(lp4671
I6
aI6
aI4
aI6
aa(lp4672
I6
aI6
aI4
aa(lp4673
I6
aI4
aa(lp4674
I6
aI4
aa(lp4675
I6
aI4
aa(lp4676
I6
aI4
aa(lp4677
I6
aI4
aa(lp4678
I6
aI4
aa(lp4679
I6
aI4
aa(lp4680
I6
aI4
aa(lp4681
I6
aI4
aa(lp4682
I6
aI4
aa(lp4683
I6
aI4
aa(lp4684
I6
aI4
aa(lp4685
I6
aI4
aa(lp4686
I6
aI4
aa(lp4687
I6
aI8
aI4
aa(lp4688
I6
aI8
aI4
aa(lp4689
I6
aI8
aI4
aa(lp4690
I6
aI8
aI8
aI4
aa(lp4691
I6
aI8
aI8
aI4
aa(lp4692
I6
aI8
aI8
aI4
aa(lp4693
I6
aI8
aI8
aa(lp4694
I6
aI8
aI8
aa(lp4695
I6
aI8
aI8
aa(lp4696
I6
aI8
aa(lp4697
I6
aI8
aa(lp4698
I6
aa(lp4699
I6
aa(lp4700
I6
aa(lp4701
I6
aa(lp4702
I6
aa(lp4703
I6
aI8
aa(lp4704
I6
aI8
aa(lp4705
I6
aI8
aa(lp4706
I6
aI8
aa(lp4707
I6
aI8
aa(lp4708
I6
aI8
aa(lp4709
I6
aI8
aa(lp4710
I6
aI8
aa(lp4711
I6
aI8
aa(lp4712
I6
aI8
aa(lp4713
I6
aI8
aa(lp4714
I8
aa(lp4715
I8
aa(lp4716
I8
aa(lp4717
I8
aa(lp4718
I8
aa(lp4719
I8
aa(lp4720
a(lp4721
a(lp4722
a(lp4723
a(lp4724
a(lp4725
I8
aa(lp4726
I8
aa(lp4727
I6
aI8
aa(lp4728
I6
aI8
aa(lp4729
I6
aI8
aa(lp4730
I6
aI8
aa(lp4731
I6
aI8
aa(lp4732
I6
aI8
aa(lp4733
I6
aI8
aa(lp4734
I6
aI8
aa(lp4735
I6
aI8
aa(lp4736
I6
aI8
aa(lp4737
I6
aI6
aI8
aa(lp4738
I6
aI6
aI8
aa(lp4739
I6
aI6
aI8
aa(lp4740
I6
aI6
aa(lp4741
I6
aI6
aa(lp4742
I6
aI6
aa(lp4743
I6
aI6
aa(lp4744
I6
aI6
aa(lp4745
I6
aI6
aa(lp4746
I6
aI4
aI6
aa(lp4747
I6
aI4
aI6
aa(lp4748
I6
aI4
aI6
aa(lp4749
I6
aI4
aI6
aa(lp4750
I6
aI4
aI6
aa(lp4751
I6
aI4
aI6
aa(lp4752
I8
aI6
aI4
aI6
aa(lp4753
I8
aI6
aI4
aI6
aa(lp4754
I8
aI6
aI4
aI6
aa(lp4755
I8
aI6
aI4
aI6
aa(lp4756
I8
aI6
aI4
aI6
aa(lp4757
I8
aI6
aI6
aa(lp4758
I8
aI6
aI4
aI6
aa(lp4759
I8
aI6
aI4
aI6
aa(lp4760
I4
aI8
aI6
aI4
aI6
aa(lp4761
I4
aI8
aI6
aI4
aI6
aa(lp4762
I4
aI8
aI6
aI4
aI6
aa(lp4763
I8
aI6
aI4
aI6
aa(lp4764
I8
aI6
aI4
aI6
aa(lp4765
I8
aI6
aI4
aI6
aa(lp4766
I8
aI6
aI4
aa(lp4767
I8
aI6
aI4
aa(lp4768
I8
aI6
aI4
aa(lp4769
I8
aI6
aI4
aa(lp4770
I8
aI6
aI4
aa(lp4771
I8
aI6
aI4
aa(lp4772
I8
aI6
aI4
aa(lp4773
I8
aI6
aI4
aa(lp4774
I8
aI6
aI4
aa(lp4775
I8
aI6
aI4
aa(lp4776
I8
aI6
aI4
aa(lp4777
I8
aI4
aa(lp4778
I8
aI4
aa(lp4779
I8
aI4
aa(lp4780
I8
aI4
aI4
aa(lp4781
I8
aI4
aI4
aa(lp4782
I8
aI8
aI4
aI4
aa(lp4783
I8
aI8
aI4
aI4
aa(lp4784
I8
aI8
aI4
aI4
aa(lp4785
I8
aI8
aI4
aI4
aa(lp4786
I8
aI8
aI4
aI4
aa(lp4787
I8
aI8
aI4
aI4
aa(lp4788
I8
aI8
aI4
aI4
aa(lp4789
I8
aI8
aI4
aI4
aa(lp4790
I8
aI4
aI4
aa(lp4791
I8
aI4
aI4
aa(lp4792
I8
aI8
aI4
aI4
aa(lp4793
I8
aI8
aI4
aI4
aa(lp4794
I8
aI8
aI4
aI4
aa(lp4795
I8
aI8
aI4
aI4
aa(lp4796
I8
aI8
aI4
aI4
aa(lp4797
I8
aI8
aI4
aI4
aa(lp4798
I8
aI8
aI4
aI4
aa(lp4799
I8
aI8
aI4
aI4
aa(lp4800
I8
aI8
aI4
aI4
aa(lp4801
I8
aI8
aI4
aI4
aa(lp4802
I8
aI4
aI4
aa(lp4803
I8
aI8
aI4
aI4
aa(lp4804
I8
aI8
aI4
aI4
aa(lp4805
I8
aI4
aI4
aa(lp4806
I8
aI4
aI4
aa(lp4807
I8
aI4
aI6
aa(lp4808
I8
aI4
aI14
aI6
aa(lp4809
I8
aI4
aI14
aI6
aa(lp4810
I8
aI4
aI14
aa(lp4811
I8
aI4
aI14
aa(lp4812
I8
aI4
aI14
aa(lp4813
I8
aI4
aI14
aa(lp4814
I8
aI4
aI14
aa(lp4815
I8
aI4
aI14
aa(lp4816
I8
aI4
aI14
aa(lp4817
I8
aI4
aI14
aa(lp4818
I8
aI4
aI14
aa(lp4819
I8
aI4
aI14
aa(lp4820
I8
aI4
aI14
aa(lp4821
I8
aI4
aI14
aa(lp4822
I8
aI4
aI14
aa(lp4823
I8
aI4
aI14
aa(lp4824
I8
aI4
aI14
aa(lp4825
I8
aI4
aI14
aa(lp4826
I8
aI4
aa(lp4827
I8
aI4
aa(lp4828
I8
aI4
aa(lp4829
I8
aI4
aa(lp4830
I8
aI16
aI4
aa(lp4831
I8
aI16
aI4
aa(lp4832
I8
aI16
aI4
aa(lp4833
I8
aI16
aI18
aa(lp4834
I8
aI18
aa(lp4835
I8
aa(lp4836
I8
aI16
aa(lp4837
I8
aI16
aa(lp4838
I8
aI16
aa(lp4839
I8
aI16
aa(lp4840
I8
aI16
aa(lp4841
I8
aI16
aa(lp4842
I8
aI16
aa(lp4843
I8
aI16
aa(lp4844
I8
aI16
aa(lp4845
I8
aI16
aa(lp4846
I8
aI16
aa(lp4847
I8
aI16
aa(lp4848
I8
aI16
aa(lp4849
I8
aI16
aa(lp4850
I8
aI16
aa(lp4851
I8
aI16
aa(lp4852
I8
aI16
aa(lp4853
I8
aI16
aa(lp4854
I8
aI16
aa(lp4855
I8
aI16
aI6
aa(lp4856
I8
aI16
aI6
aa(lp4857
I8
aI16
aI6
aI4
aa(lp4858
I8
aI16
aI6
aI4
aa(lp4859
I8
aI16
aI6
aI4
aa(lp4860
I8
aI16
aI6
aI4
aa(lp4861
I8
aI16
aI6
aI4
aa(lp4862
I8
aI16
aI6
aI4
aa(lp4863
I8
aI16
aI6
aI4
aa(lp4864
I8
aI16
aI6
aI4
aa(lp4865
I8
aI16
aI6
aI4
aa(lp4866
I8
aI16
aI6
aI4
aa(lp4867
I8
aI16
aI6
aI4
aa(lp4868
I8
aI16
aI6
aI4
aa(lp4869
I8
aI16
aI6
aI4
aa(lp4870
I8
aI16
aI6
aI4
aa(lp4871
I8
aI6
aI4
aa(lp4872
I8
aI6
aI4
aa(lp4873
I8
aI6
aI4
aa(lp4874
I8
aI6
aI4
aa(lp4875
I8
aI6
aI4
aa(lp4876
I8
aI6
aI4
aa(lp4877
I8
aI6
aI4
aa(lp4878
I8
aI6
aI4
aa(lp4879
I8
aI6
aI4
aa(lp4880
I8
aI6
aI4
aa(lp4881
I8
aI6
aI4
aa(lp4882
I8
aI6
aI6
aI4
aa(lp4883
I8
aI6
aI6
aa(lp4884
I8
aI6
aI6
aa(lp4885
I8
aI6
aI6
aa(lp4886
I8
aI6
aI6
aa(lp4887
I8
aI6
aI6
aa(lp4888
I8
aI6
aI6
aa(lp4889
I8
aI6
aI6
aa(lp4890
I8
aI6
aI6
aa(lp4891
I8
aI6
aI6
aa(lp4892
I8
aI6
aI6
aa(lp4893
I8
aI6
aa(lp4894
I8
aI6
aa(lp4895
I6
aa(lp4896
I6
aa(lp4897
I6
aI12
aa(lp4898
I6
aI12
aa(lp4899
I8
aI6
aa(lp4900
I8
aI6
aa(lp4901
I8
aI6
aa(lp4902
I8
aI6
aa(lp4903
I8
aI6
aI6
aa(lp4904
I8
aI6
aI6
aa(lp4905
I8
aI6
aI6
aa(lp4906
I8
aI6
aI6
aa(lp4907
I8
aI6
aI12
aa(lp4908
I8
aI6
aI6
aI12
aa(lp4909
I8
aI6
aI6
aI12
aa(lp4910
I8
aI6
aI6
aa(lp4911
I8
aI6
aI6
aa(lp4912
I8
aI6
aI6
aa(lp4913
I8
aI6
aI6
aa(lp4914
I8
aI6
aI6
aa(lp4915
I8
aI6
aI6
aI16
aa(lp4916
I8
aI6
aI6
aI16
aa(lp4917
I8
aI6
aI6
aI16
aa(lp4918
I8
aI6
aI6
aI16
aa(lp4919
I8
aI6
aI6
aa(lp4920
I8
aI6
aI6
aa(lp4921
I8
aI6
aI6
aa(lp4922
I8
aI6
aI6
aa(lp4923
I6
aI6
aa(lp4924
I6
aI6
aa(lp4925
I6
aI6
aI6
aa(lp4926
I6
aI6
aa(lp4927
I6
aI6
aa(lp4928
I6
aI6
aa(lp4929
I6
aI6
aa(lp4930
I6
aI6
aa(lp4931
I6
aI6
aa(lp4932
I6
aI6
aa(lp4933
I6
aI6
aa(lp4934
I6
aI6
aa(lp4935
I6
aI6
aI6
aa(lp4936
I6
aI6
aa(lp4937
I6
aI6
aa(lp4938
I6
aI6
aa(lp4939
I6
aI6
aa(lp4940
I6
aI6
aa(lp4941
I6
aI6
aa(lp4942
I6
aI6
aa(lp4943
I6
aI6
aa(lp4944
I6
aI6
aa(lp4945
I6
aa(lp4946
I6
aa(lp4947
I6
aa(lp4948
I6
aa(lp4949
I6
aa(lp4950
I6
aa(lp4951
I6
aa(lp4952
I6
aa(lp4953
I10
aI6
aa(lp4954
I10
aI6
aa(lp4955
I10
aI6
aa(lp4956
I10
aI6
aa(lp4957
I10
aI6
aa(lp4958
I10
aI6
aa(lp4959
I10
aI6
aa(lp4960
I10
aI6
aI4
aa(lp4961
I10
aI6
aI6
aI4
aa(lp4962
I10
aI6
aI6
aI4
aa(lp4963
I10
aI6
aI6
aI4
aa(lp4964
I10
aI6
aI6
aI4
aa(lp4965
I10
aI6
aI6
aI4
aa(lp4966
I10
aI6
aI6
aI4
aa(lp4967
I10
aI10
aI6
aI6
aI4
aa(lp4968
I10
aI10
aI6
aI6
aI4
aa(lp4969
I10
aI10
aI6
aI6
aI4
aa(lp4970
I10
aI10
aI6
aI6
aI4
aa(lp4971
I10
aI10
aI6
aI6
aI4
aa(lp4972
I10
aI10
aI6
aI6
aI4
aa(lp4973
I10
aI10
aI6
aI6
aI4
aa(lp4974
I10
aI10
aI6
aI6
aI4
aa(lp4975
I10
aI10
aI6
aI6
aI4
aa(lp4976
I10
aI10
aI6
aI6
aI4
aa(lp4977
I10
aI10
aI6
aI6
aI4
aa(lp4978
I10
aI10
aI6
aI6
aI4
aa(lp4979
I10
aI10
aI6
aI6
aI4
aa(lp4980
I10
aI10
aI6
aI6
aI4
aa(lp4981
I10
aI10
aI6
aI6
aI4
aa(lp4982
I10
aI10
aI6
aI6
aI4
aa(lp4983
I10
aI6
aI6
aI4
aa(lp4984
I10
aI6
aI6
aI4
aa(lp4985
I10
aI6
aI6
aI4
aa(lp4986
I10
aI6
aI6
aa(lp4987
I10
aI6
aI6
aI6
aa(lp4988
I10
aI6
aI6
aI6
aa(lp4989
I10
aI6
aI6
aI6
aa(lp4990
I10
aI6
aI6
aI6
aa(lp4991
I10
aI6
aI6
aI6
aa(lp4992
I10
aI6
aI6
aa(lp4993
I10
aI6
aI6
aa(lp4994
I10
aI6
aI6
aa(lp4995
I10
aI6
aI6
aa(lp4996
I10
aI6
aI6
aa(lp4997
I6
aI10
aI6
aI6
aa(lp4998
I6
aI10
aI6
aI6
aa(lp4999
I6
aI10
aI6
aI6
aa(lp5000
I6
aI10
aI6
aI6
aa(lp5001
I6
aI10
aI6
aI6
aa(lp5002
I6
aI10
aI6
aI6
aI6
aa.