(lp1
(lp2
I10
aI4
aI6
aI8
aI4
aa(lp3
I8
aI4
aI8
aI10
aI4
aI8
aI4
aI4
aa(lp4
I8
aI20
aI6
aI6
aI6
aI6
aI4
aI6
aI4
aI4
aI8
aa(lp5
I4
aI6
aI6
aI4
aa(lp6
I8
aI4
aI6
aI8
aI4
aI4
aI4
aI4
aI6
aI4
aI4
aI8
aI4
aa(lp7
I4
aI6
aI4
aI4
aI6
aI6
aI10
aI4
aI6
aI4
aa(lp8
I4
aI4
aI4
aI12
aI16
aI4
aI4
aI4
aI4
aI4
aa(lp9
I10
aI8
aI10
aI4
aI10
aI4
aa(lp10
I4
aI34
aI4
aI12
aI8
aI6
aI4
aI10
aI8
aI4
aI4
aa(lp11
I28
aI8
aI6
aI8
aI4
aa(lp12
I6
aI8
aI10
aI8
aI8
aI6
aa(lp13
I10
aI8
aI4
aI4
aI6
aI6
aI4
aa(lp14
I16
aI6
aI6
aI8
aI6
aI4
aI6
aI4
aI4
aa(lp15
I4
aI6
aI6
aI4
aa(lp16
I8
aI8
aI4
aI4
aI12
aI4
aa(lp17
I4
aI6
aI10
aI4
aI4
aI4
aa(lp18
I6
aI4
aI4
aI4
aa(lp19
I4
aI8
aI8
aI4
aa(lp20
I12
aI4
aI8
aI6
aI4
aI4
aa(lp21
I6
aI20
aI6
aI6
aI6
aI4
aI4
aI6
aI4
aI4
aa.